///////////////////////////////////////////////////////////////////////////////
//                                                                            /
// IAR C/C++ Compiler V8.30.1.41636 for 8051            02/Jun/2014  17:47:56 /
// Copyright 2004-2013 IAR Systems AB.                                        /
//                                                                            /
//    Core               =  plain                                             /
//    Code model         =  banked                                            /
//    Data model         =  large                                             /
//    Calling convention =  xdata reentrant                                   /
//    Constant location  =  data_rom                                          /
//    Dptr setup         =  1,16                                              /
//                                                                            /
//    Source file        =  c:\Users\Administrator\Documents\Dropbox\Fish     /
//                          Brain\HM-10 Hack\HM-10 Firmware\Projects\ble\Prof /
//                          iles\Roles\gapbondmgr.c                           /
//    Command line       =  -f "c:\Users\Administrator\Documents\Dropbox\Fish /
//                           Brain\HM-10 Hack\HM-10                           /
//                          Firmware\Projects\ble\HostTestApp\CC2540\..\..\co /
//                          nfig\buildComponents.cfg"                         /
//                          (-DBROADCASTER_CFG=0x01 -DOBSERVER_CFG=0x02       /
//                          -DPERIPHERAL_CFG=0x04 -DCENTRAL_CFG=0x08          /
//                          -DADV_NCONN_CFG=0x01 -DADV_CONN_CFG=0x02          /
//                          -DSCAN_CFG=0x04 -DINIT_CFG=0x08                   /
//                          -DADV_CFG=ADV_NCONN_CFG+ADV_CONN_CFG              /
//                          -DLINK_CFG=ADV_CONN_CFG+INIT_CFG                  /
//                          -DFULL_CFG=INIT_CFG+SCAN_CFG+ADV_NCONN_CFG+ADV_CO /
//                          NN_CFG) -f "c:\Users\Administrator\Documents\Drop /
//                          box\Fish Brain\HM-10 Hack\HM-10                   /
//                          Firmware\Projects\ble\HostTestApp\CC2540\buildCon /
//                          fig.cfg" (-DHOST_CONFIG=PERIPHERAL_CFG+CENTRAL_CF /
//                          G -DGAP_PRIVACY_RECONNECT)                        /
//                          "c:\Users\Administrator\Documents\Dropbox\Fish    /
//                          Brain\HM-10 Hack\HM-10 Firmware\Projects\ble\Prof /
//                          iles\Roles\gapbondmgr.c" -D INT_HEAP_LEN=2700 -D  /
//                          HALNODEBUG -D OSAL_CBTIMER_NUM_TASKS=1 -D         /
//                          POWER_SAVING -D HAL_AES_DMA=TRUE -D HAL_DMA=TRUE  /
//                          -D HAL_UART=TRUE -D HAL_UART_DMA=0 -D             /
//                          HAL_UART_ISR=0 -D HAL_UART_SPI=2 -D               /
//                          HAL_SPI_QUEUED_TX=TRUE -D HAL_KEY=FALSE -D        /
//                          HAL_LCD=FALSE -D HAL_LED=FALSE -D                 /
//                          GATT_DB_OFF_CHIP -D GAP_BOND_MGR -lCN             /
//                          "c:\Users\Administrator\Documents\Dropbox\Fish    /
//                          Brain\HM-10 Hack\HM-10 Firmware\Projects\ble\Host /
//                          TestApp\CC2540\CC2540SPI\List\" -lA               /
//                          "c:\Users\Administrator\Documents\Dropbox\Fish    /
//                          Brain\HM-10 Hack\HM-10 Firmware\Projects\ble\Host /
//                          TestApp\CC2540\CC2540SPI\List\" -o                /
//                          "c:\Users\Administrator\Documents\Dropbox\Fish    /
//                          Brain\HM-10 Hack\HM-10 Firmware\Projects\ble\Host /
//                          TestApp\CC2540\CC2540SPI\Obj\" -e --debug         /
//                          --core=plain --dptr=16,1 --data_model=large       /
//                          --code_model=banked --calling_convention=xdata_re /
//                          entrant --place_constants=data_rom                /
//                          --nr_virtual_regs 8 -I "c:\Users\Administrator\Do /
//                          cuments\Dropbox\Fish Brain\HM-10 Hack\HM-10       /
//                          Firmware\Projects\ble\HostTestApp\CC2540\..\..\co /
//                          mmon\" -I "c:\Users\Administrator\Documents\Dropb /
//                          ox\Fish Brain\HM-10 Hack\HM-10                    /
//                          Firmware\Projects\ble\HostTestApp\CC2540\..\..\.. /
//                          \..\Components\hal\include\" -I                   /
//                          "c:\Users\Administrator\Documents\Dropbox\Fish    /
//                          Brain\HM-10 Hack\HM-10 Firmware\Projects\ble\Host /
//                          TestApp\CC2540\..\..\..\..\Components\hal\target\ /
//                          CC2540EB\" -I "c:\Users\Administrator\Documents\D /
//                          ropbox\Fish Brain\HM-10 Hack\HM-10                /
//                          Firmware\Projects\ble\HostTestApp\CC2540\..\..\.. /
//                          \..\Components\osal\include\" -I                  /
//                          "c:\Users\Administrator\Documents\Dropbox\Fish    /
//                          Brain\HM-10 Hack\HM-10 Firmware\Projects\ble\Host /
//                          TestApp\CC2540\..\..\..\..\Components\services\sa /
//                          ddr\" -I "c:\Users\Administrator\Documents\Dropbo /
//                          x\Fish Brain\HM-10 Hack\HM-10                     /
//                          Firmware\Projects\ble\HostTestApp\CC2540\..\..\.. /
//                          \..\Components\ble\include\" -I                   /
//                          "c:\Users\Administrator\Documents\Dropbox\Fish    /
//                          Brain\HM-10 Hack\HM-10 Firmware\Projects\ble\Host /
//                          TestApp\CC2540\..\..\..\..\Components\ble\control /
//                          ler\phy\" -I "c:\Users\Administrator\Documents\Dr /
//                          opbox\Fish Brain\HM-10 Hack\HM-10                 /
//                          Firmware\Projects\ble\HostTestApp\CC2540\..\..\.. /
//                          \..\Components\ble\controller\include\" -I        /
//                          "c:\Users\Administrator\Documents\Dropbox\Fish    /
//                          Brain\HM-10 Hack\HM-10 Firmware\Projects\ble\Host /
//                          TestApp\CC2540\..\..\..\..\Components\ble\hci\"   /
//                          -I "c:\Users\Administrator\Documents\Dropbox\Fish /
//                           Brain\HM-10 Hack\HM-10                           /
//                          Firmware\Projects\ble\HostTestApp\CC2540\..\..\.. /
//                          \..\Components\ble\host\" -I                      /
//                          "c:\Users\Administrator\Documents\Dropbox\Fish    /
//                          Brain\HM-10 Hack\HM-10 Firmware\Projects\ble\Host /
//                          TestApp\CC2540\..\..\common\cc2540\" -I           /
//                          "c:\Users\Administrator\Documents\Dropbox\Fish    /
//                          Brain\HM-10 Hack\HM-10 Firmware\Projects\ble\Host /
//                          TestApp\CC2540\..\..\common\npi\npi_np\" -I       /
//                          "c:\Users\Administrator\Documents\Dropbox\Fish    /
//                          Brain\HM-10 Hack\HM-10 Firmware\Projects\ble\Host /
//                          TestApp\CC2540\..\..\Include\" -I                 /
//                          "c:\Users\Administrator\Documents\Dropbox\Fish    /
//                          Brain\HM-10 Hack\HM-10 Firmware\Projects\ble\Host /
//                          TestApp\CC2540\..\..\Profiles\Roles\" -I          /
//                          "c:\Users\Administrator\Documents\Dropbox\Fish    /
//                          Brain\HM-10 Hack\HM-10 Firmware\Projects\ble\Host /
//                          TestApp\CC2540\..\source\" -Ohz                   /
//    List file          =  c:\Users\Administrator\Documents\Dropbox\Fish     /
//                          Brain\HM-10 Hack\HM-10 Firmware\Projects\ble\Host /
//                          TestApp\CC2540\CC2540SPI\List\gapbondmgr.s51      /
//                                                                            /
//                                                                            /
///////////////////////////////////////////////////////////////////////////////

        NAME gapbondmgr

        RTMODEL "__SystemLibrary", "CLib"
        RTMODEL "__calling_convention", "xdata_reentrant"
        RTMODEL "__code_model", "banked"
        RTMODEL "__core", "plain"
        RTMODEL "__data_model", "large"
        RTMODEL "__dptr_size", "16"
        RTMODEL "__extended_stack", "disabled"
        RTMODEL "__location_for_constants", "data"
        RTMODEL "__number_of_dptrs", "1"
        RTMODEL "__rt_version", "1"

        RSEG DOVERLAY:DATA:NOROOT(0)
        RSEG IOVERLAY:IDATA:NOROOT(0)
        RSEG ISTACK:IDATA:NOROOT(0)
        RSEG PSTACK:XDATA:NOROOT(0)
        RSEG XSTACK:XDATA:NOROOT(0)

        EXTERN ?V0
        EXTERN ?V1
        EXTERN ?V2
        EXTERN ?V3
        EXTERN ?V4
        EXTERN ?V5
        EXTERN ?V6
        EXTERN ?V7
        EXTERN ?ALLOC_XSTACK8
        EXTERN ?BANKED_ENTER_XDATA
        EXTERN ?BANKED_LEAVE_XDATA
        EXTERN ?BDISPATCH
        EXTERN ?BRET
        EXTERN ?CALL_IND
        EXTERN ?DEALLOC_XSTACK8
        EXTERN ?L_MOV_TO_X
        EXTERN ?L_MOV_X
        EXTERN ?MOVE_LONG8_XDATA_XDATA
        EXTERN ?PUSH_XSTACK8_X_TWO
        EXTERN ?PUSH_XSTACK_I_ONE
        EXTERN ?PUSH_XSTACK_I_TWO
        EXTERN ?S_DIV_MOD
        EXTERN ?S_SHL
        EXTERN ?UL_DIV_MOD
        EXTERN ?UL_GE_X
        EXTERN ?US_SWITCH_DENSE
        EXTERN ?XLOAD_R0123
        EXTERN ?XLOAD_R2345
        EXTERN ?XSP
        EXTERN ?XSTACK_DISP0_8
        EXTERN ?XSTACK_DISP100_8
        EXTERN ?XSTACK_DISP101_8
        EXTERN ?XSTACK_DISP102_8
        EXTERN ?XSTORE_R0123
        EXTERN __INIT_XDATA_I
        EXTERN __INIT_XDATA_Z

        PUBLIC ??GAPBondMgr_CheckNVLen?relay
        FUNCTION ??GAPBondMgr_CheckNVLen?relay,0203H
        PUBLIC ??GAPBondMgr_GetParameter?relay
        FUNCTION ??GAPBondMgr_GetParameter?relay,0203H
        PUBLIC ??GAPBondMgr_Init?relay
        FUNCTION ??GAPBondMgr_Init?relay,0203H
        PUBLIC ??GAPBondMgr_LinkEst?relay
        FUNCTION ??GAPBondMgr_LinkEst?relay,0203H
        PUBLIC ??GAPBondMgr_PasscodeRsp?relay
        FUNCTION ??GAPBondMgr_PasscodeRsp?relay,0203H
        PUBLIC ??GAPBondMgr_ProcessEvent?relay
        FUNCTION ??GAPBondMgr_ProcessEvent?relay,0203H
        PUBLIC ??GAPBondMgr_ProcessGAPMsg?relay
        FUNCTION ??GAPBondMgr_ProcessGAPMsg?relay,0203H
        PUBLIC ??GAPBondMgr_Register?relay
        FUNCTION ??GAPBondMgr_Register?relay,0203H
        PUBLIC ??GAPBondMgr_ResolveAddr?relay
        FUNCTION ??GAPBondMgr_ResolveAddr?relay,0203H
        PUBLIC ??GAPBondMgr_ServiceChangeInd?relay
        FUNCTION ??GAPBondMgr_ServiceChangeInd?relay,0203H
        PUBLIC ??GAPBondMgr_SetParameter?relay
        FUNCTION ??GAPBondMgr_SetParameter?relay,0203H
        PUBLIC ??GAPBondMgr_UpdateCharCfg?relay
        FUNCTION ??GAPBondMgr_UpdateCharCfg?relay,0203H
        FUNCTION ??gapBondFreeAuthEvt?relay,0203H
        FUNCTION ??gapBondMgrAddBond?relay,0203H
        FUNCTION ??gapBondMgrAuthenticate?relay,0203H
        FUNCTION ??gapBondMgrBondReq?relay,0203H
        FUNCTION ??gapBondMgrBondTotal?relay,0203H
        FUNCTION ??gapBondMgrChangeState?relay,0203H
        FUNCTION ??gapBondMgrEraseAllBondings?relay,0203H
        FUNCTION ??gapBondMgrEraseBonding?relay,0203H
        FUNCTION ??gapBondMgrFindAddr?relay,0203H
        FUNCTION ??gapBondMgrFindCharCfgItem?relay,0203H
        FUNCTION ??gapBondMgrGetPublicAddr?relay,0203H
        FUNCTION ??gapBondMgrGetStateFlags?relay,0203H
        FUNCTION ??gapBondMgrInvertCharCfgItem?relay,0203H
        FUNCTION ??gapBondMgrReadBonds?relay,0203H
        FUNCTION ??gapBondMgrSendServiceChange?relay,0203H
        FUNCTION ??gapBondMgrUpdateCharCfg?relay,0203H
        FUNCTION ??gapBondMgr_SyncCharCfg?relay,0203H
        FUNCTION ??gapBondMgr_SyncWhiteList?relay,0203H
        FUNCTION ??gapBondSetupPrivFlag?relay,0203H
        PUBLIC GAPBondMgr_CheckNVLen
        FUNCTION GAPBondMgr_CheckNVLen,080203H
        ARGFRAME XSTACK, 0, STACK
        LOCFRAME XSTACK, 10, STACK
        PUBLIC GAPBondMgr_GetParameter
        FUNCTION GAPBondMgr_GetParameter,0a1203H
        ARGFRAME XSTACK, 0, STACK
        LOCFRAME ISTACK, 1, STACK
        LOCFRAME XSTACK, 14, STACK
        PUBLIC GAPBondMgr_Init
        FUNCTION GAPBondMgr_Init,021203H
        ARGFRAME XSTACK, 0, STACK
        LOCFRAME XSTACK, 9, STACK
        PUBLIC GAPBondMgr_LinkEst
        FUNCTION GAPBondMgr_LinkEst,0a1203H
        ARGFRAME XSTACK, 1, STACK
        LOCFRAME XSTACK, 55, STACK
        PUBLIC GAPBondMgr_PasscodeRsp
        FUNCTION GAPBondMgr_PasscodeRsp,0a1203H
        ARGFRAME XSTACK, 4, STACK
        LOCFRAME ISTACK, 1, STACK
        LOCFRAME XSTACK, 19, STACK
        PUBLIC GAPBondMgr_ProcessEvent
        FUNCTION GAPBondMgr_ProcessEvent,0a1203H
        ARGFRAME XSTACK, 0, STACK
        LOCFRAME XSTACK, 14, STACK
        PUBLIC GAPBondMgr_ProcessGAPMsg
        FUNCTION GAPBondMgr_ProcessGAPMsg,0a1203H
        ARGFRAME XSTACK, 12, STACK
        ARGFRAME IOVERLAY, 0, STATIC
        ARGFRAME DOVERLAY, 0, STATIC
        LOCFRAME XSTACK, 38, STACK
        PUBLIC GAPBondMgr_Register
        FUNCTION GAPBondMgr_Register,021203H
        ARGFRAME XSTACK, 0, STACK
        LOCFRAME ISTACK, 2, STACK
        PUBLIC GAPBondMgr_ResolveAddr
        FUNCTION GAPBondMgr_ResolveAddr,0a1203H
        ARGFRAME XSTACK, 53, STACK
        ARGFRAME IOVERLAY, 0, STATIC
        ARGFRAME DOVERLAY, 0, STATIC
        LOCFRAME XSTACK, 33, STACK
        PUBLIC GAPBondMgr_ServiceChangeInd
        FUNCTION GAPBondMgr_ServiceChangeInd,0a1203H
        ARGFRAME XSTACK, 12, STACK
        ARGFRAME IOVERLAY, 0, STATIC
        ARGFRAME DOVERLAY, 0, STATIC
        LOCFRAME XSTACK, 12, STACK
        PUBLIC GAPBondMgr_SetParameter
        FUNCTION GAPBondMgr_SetParameter,0a1203H
        ARGFRAME XSTACK, 36, STACK
        ARGFRAME IOVERLAY, 0, STATIC
        ARGFRAME DOVERLAY, 0, STATIC
        LOCFRAME XSTACK, 24, STACK
        PUBLIC GAPBondMgr_UpdateCharCfg
        FUNCTION GAPBondMgr_UpdateCharCfg,0a1203H
        ARGFRAME XSTACK, 15, STACK
        ARGFRAME IOVERLAY, 0, STATIC
        ARGFRAME DOVERLAY, 0, STATIC
        LOCFRAME XSTACK, 14, STACK
        PUBWEAK __Constant_f4240
        FUNCTION gapBondFreeAuthEvt,021203H
        ARGFRAME XSTACK, 66, STACK
        ARGFRAME IOVERLAY, 0, STATIC
        ARGFRAME DOVERLAY, 0, STATIC
        LOCFRAME ISTACK, 2, STACK
        FUNCTION gapBondMgrAddBond,0a1203H
        ARGFRAME XSTACK, 36, STACK
        ARGFRAME IOVERLAY, 0, STATIC
        ARGFRAME DOVERLAY, 0, STATIC
        LOCFRAME XSTACK, 26, STACK
        FUNCTION gapBondMgrAuthenticate,0a1203H
        ARGFRAME XSTACK, 53, STACK
        ARGFRAME IOVERLAY, 0, STATIC
        ARGFRAME DOVERLAY, 0, STATIC
        LOCFRAME ISTACK, 1, STACK
        LOCFRAME XSTACK, 38, STACK
        FUNCTION gapBondMgrBondReq,0a1203H
        ARGFRAME XSTACK, 54, STACK
        ARGFRAME IOVERLAY, 0, STATIC
        ARGFRAME DOVERLAY, 0, STATIC
        LOCFRAME XSTACK, 40, STACK
        FUNCTION gapBondMgrBondTotal,021203H
        ARGFRAME XSTACK, 12, STACK
        ARGFRAME IOVERLAY, 0, STATIC
        ARGFRAME DOVERLAY, 0, STATIC
        LOCFRAME XSTACK, 9, STACK
        FUNCTION gapBondMgrChangeState,0a1203H
        ARGFRAME XSTACK, 12, STACK
        ARGFRAME IOVERLAY, 0, STATIC
        ARGFRAME DOVERLAY, 0, STATIC
        LOCFRAME XSTACK, 26, STACK
        FUNCTION gapBondMgrEraseAllBondings,021203H
        ARGFRAME XSTACK, 36, STACK
        ARGFRAME IOVERLAY, 0, STATIC
        ARGFRAME DOVERLAY, 0, STATIC
        LOCFRAME XSTACK, 9, STACK
        FUNCTION gapBondMgrEraseBonding,0a1203H
        ARGFRAME XSTACK, 36, STACK
        ARGFRAME IOVERLAY, 0, STATIC
        ARGFRAME DOVERLAY, 0, STATIC
        LOCFRAME XSTACK, 66, STACK
        FUNCTION gapBondMgrFindAddr,0a1203H
        ARGFRAME XSTACK, 31, STACK
        ARGFRAME IOVERLAY, 0, STATIC
        ARGFRAME DOVERLAY, 0, STATIC
        LOCFRAME XSTACK, 14, STACK
        FUNCTION gapBondMgrFindCharCfgItem,0203H
        ARGFRAME XSTACK, 40, STACK
        ARGFRAME IOVERLAY, 0, STATIC
        ARGFRAME DOVERLAY, 0, STATIC
        LOCFRAME XSTACK, 9, STACK
        FUNCTION gapBondMgrGetPublicAddr,0a1203H
        ARGFRAME XSTACK, 31, STACK
        ARGFRAME IOVERLAY, 0, STATIC
        ARGFRAME DOVERLAY, 0, STATIC
        LOCFRAME XSTACK, 28, STACK
        FUNCTION gapBondMgrGetStateFlags,021203H
        ARGFRAME XSTACK, 53, STACK
        ARGFRAME IOVERLAY, 0, STATIC
        ARGFRAME DOVERLAY, 0, STATIC
        LOCFRAME XSTACK, 23, STACK
        FUNCTION gapBondMgrInvertCharCfgItem,0203H
        ARGFRAME XSTACK, 53, STACK
        ARGFRAME IOVERLAY, 0, STATIC
        ARGFRAME DOVERLAY, 0, STATIC
        LOCFRAME ISTACK, 1, STACK
        LOCFRAME XSTACK, 9, STACK
        FUNCTION gapBondMgrReadBonds,0a1203H
        ARGFRAME XSTACK, 36, STACK
        ARGFRAME IOVERLAY, 0, STATIC
        ARGFRAME DOVERLAY, 0, STATIC
        LOCFRAME XSTACK, 9, STACK
        FUNCTION gapBondMgrSendServiceChange,021603H
        ARGFRAME XSTACK, 12, STACK
        ARGFRAME IOVERLAY, 0, STATIC
        ARGFRAME DOVERLAY, 0, STATIC
        LOCFRAME ISTACK, 2, STACK
        FUNCTION gapBondMgrUpdateCharCfg,0a1203H
        ARGFRAME XSTACK, 14, STACK
        ARGFRAME IOVERLAY, 0, STATIC
        ARGFRAME DOVERLAY, 0, STATIC
        LOCFRAME ISTACK, 1, STACK
        LOCFRAME XSTACK, 40, STACK
        FUNCTION gapBondMgr_SyncCharCfg,0a1203H
        ARGFRAME XSTACK, 12, STACK
        ARGFRAME IOVERLAY, 0, STATIC
        ARGFRAME DOVERLAY, 0, STATIC
        LOCFRAME XSTACK, 21, STACK
        FUNCTION gapBondMgr_SyncWhiteList,0a1203H
        ARGFRAME XSTACK, 24, STACK
        ARGFRAME IOVERLAY, 0, STATIC
        ARGFRAME DOVERLAY, 0, STATIC
        LOCFRAME XSTACK, 9, STACK
        FUNCTION gapBondSetupPrivFlag,021203H
        ARGFRAME XSTACK, 24, STACK
        ARGFRAME IOVERLAY, 0, STATIC
        ARGFRAME DOVERLAY, 0, STATIC
        LOCFRAME ISTACK, 2, STACK
        LOCFRAME XSTACK, 1, STACK
        
          CFI Names cfiNames0
          CFI StackFrame CFA_SP SP IDATA
          CFI StackFrame CFA_PSP16 PSP16 XDATA
          CFI StackFrame CFA_XSP16 XSP16 XDATA
          CFI StaticOverlayFrame CFA_IOVERLAY IOVERLAY
          CFI StaticOverlayFrame CFA_DOVERLAY DOVERLAY
          CFI Resource `PSW.CY`:1, `B.BR0`:1, `B.BR1`:1, `B.BR2`:1, `B.BR3`:1
          CFI Resource `B.BR4`:1, `B.BR5`:1, `B.BR6`:1, `B.BR7`:1, `VB.BR8`:1
          CFI Resource `VB.BR9`:1, `VB.BR10`:1, `VB.BR11`:1, `VB.BR12`:1
          CFI Resource `VB.BR13`:1, `VB.BR14`:1, `VB.BR15`:1, VB:8, B:8, A:8
          CFI Resource PSW:8, DPL0:8, DPH0:8, R0:8, R1:8, R2:8, R3:8, R4:8, R5:8
          CFI Resource R6:8, R7:8, V0:8, V1:8, V2:8, V3:8, V4:8, V5:8, V6:8, V7:8
          CFI Resource SP:8, PSPH:8, PSPL:8, PSP16:16, XSPH:8, XSPL:8, XSP16:16
          CFI VirtualResource ?RET:24
          CFI Resource ?BRET_EXT:8
          CFI VirtualResource ?RET_HIGH:8, ?RET_LOW:8
          CFI ResourceParts PSP16 PSPH, PSPL
          CFI ResourceParts XSP16 XSPH, XSPL
          CFI ResourceParts ?RET ?BRET_EXT, ?RET_HIGH, ?RET_LOW
          CFI EndNames cfiNames0
        
          CFI Common cfiCommon0 Using cfiNames0
          CFI CodeAlign 1
          CFI DataAlign -1
          CFI ReturnAddress ?RET CODE
          CFI CFA_DOVERLAY Used
          CFI CFA_IOVERLAY Used
          CFI CFA_SP SP+-3
          CFI CFA_PSP16 PSP16+0
          CFI CFA_XSP16 XSP16+0
          CFI `PSW.CY` SameValue
          CFI `B.BR0` SameValue
          CFI `B.BR1` SameValue
          CFI `B.BR2` SameValue
          CFI `B.BR3` SameValue
          CFI `B.BR4` SameValue
          CFI `B.BR5` SameValue
          CFI `B.BR6` SameValue
          CFI `B.BR7` SameValue
          CFI `VB.BR8` SameValue
          CFI `VB.BR9` SameValue
          CFI `VB.BR10` SameValue
          CFI `VB.BR11` SameValue
          CFI `VB.BR12` SameValue
          CFI `VB.BR13` SameValue
          CFI `VB.BR14` SameValue
          CFI `VB.BR15` SameValue
          CFI VB SameValue
          CFI B Undefined
          CFI A Undefined
          CFI PSW SameValue
          CFI DPL0 SameValue
          CFI DPH0 SameValue
          CFI R0 Undefined
          CFI R1 Undefined
          CFI R2 Undefined
          CFI R3 Undefined
          CFI R4 Undefined
          CFI R5 Undefined
          CFI R6 SameValue
          CFI R7 SameValue
          CFI V0 SameValue
          CFI V1 SameValue
          CFI V2 SameValue
          CFI V3 SameValue
          CFI V4 SameValue
          CFI V5 SameValue
          CFI V6 SameValue
          CFI V7 SameValue
          CFI PSPH Undefined
          CFI PSPL Undefined
          CFI XSPH Undefined
          CFI XSPL Undefined
          CFI ?RET Concat
          CFI ?BRET_EXT Frame(CFA_SP, 3)
          CFI ?RET_HIGH Frame(CFA_SP, 2)
          CFI ?RET_LOW Frame(CFA_SP, 1)
          CFI EndCommon cfiCommon0
        
        
          CFI Common cfiCommon1 Using cfiNames0
          CFI CodeAlign 1
          CFI DataAlign -1
          CFI ReturnAddress ?RET CODE
          CFI CFA_DOVERLAY Used
          CFI CFA_IOVERLAY Used
          CFI CFA_SP SP+-2
          CFI CFA_PSP16 PSP16+0
          CFI CFA_XSP16 XSP16+0
          CFI `PSW.CY` SameValue
          CFI `B.BR0` SameValue
          CFI `B.BR1` SameValue
          CFI `B.BR2` SameValue
          CFI `B.BR3` SameValue
          CFI `B.BR4` SameValue
          CFI `B.BR5` SameValue
          CFI `B.BR6` SameValue
          CFI `B.BR7` SameValue
          CFI `VB.BR8` SameValue
          CFI `VB.BR9` SameValue
          CFI `VB.BR10` SameValue
          CFI `VB.BR11` SameValue
          CFI `VB.BR12` SameValue
          CFI `VB.BR13` SameValue
          CFI `VB.BR14` SameValue
          CFI `VB.BR15` SameValue
          CFI VB SameValue
          CFI B SameValue
          CFI A SameValue
          CFI PSW SameValue
          CFI DPL0 SameValue
          CFI DPH0 SameValue
          CFI R0 SameValue
          CFI R1 SameValue
          CFI R2 SameValue
          CFI R3 SameValue
          CFI R4 SameValue
          CFI R5 SameValue
          CFI R6 SameValue
          CFI R7 SameValue
          CFI V0 SameValue
          CFI V1 SameValue
          CFI V2 SameValue
          CFI V3 SameValue
          CFI V4 SameValue
          CFI V5 SameValue
          CFI V6 SameValue
          CFI V7 SameValue
          CFI PSPH Undefined
          CFI PSPL Undefined
          CFI XSPH Undefined
          CFI XSPL Undefined
          CFI ?RET Concat
          CFI ?BRET_EXT SameValue
          CFI ?RET_HIGH Frame(CFA_SP, 2)
          CFI ?RET_LOW Frame(CFA_SP, 1)
          CFI EndCommon cfiCommon1
        
GAP_Authenticate    SYMBOL "GAP_Authenticate"
??GAP_Authenticate?relay SYMBOL "?relay", GAP_Authenticate
GAP_Bond            SYMBOL "GAP_Bond"
??GAP_Bond?relay    SYMBOL "?relay", GAP_Bond
GAP_GetParamValue   SYMBOL "GAP_GetParamValue"
??GAP_GetParamValue?relay SYMBOL "?relay", GAP_GetParamValue
GAP_NumActiveConnections SYMBOL "GAP_NumActiveConnections"
??GAP_NumActiveConnections?relay SYMBOL "?relay", GAP_NumActiveConnections
GAP_PasscodeUpdate  SYMBOL "GAP_PasscodeUpdate"
??GAP_PasscodeUpdate?relay SYMBOL "?relay", GAP_PasscodeUpdate
GAP_ResolvePrivateAddr SYMBOL "GAP_ResolvePrivateAddr"
??GAP_ResolvePrivateAddr?relay SYMBOL "?relay", GAP_ResolvePrivateAddr
GAP_SendSlaveSecurityRequest SYMBOL "GAP_SendSlaveSecurityRequest"
??GAP_SendSlaveSecurityRequest?relay SYMBOL "?relay", GAP_SendSlaveSecurityRequest
GAP_SetParamValue   SYMBOL "GAP_SetParamValue"
??GAP_SetParamValue?relay SYMBOL "?relay", GAP_SetParamValue
GAP_Signable        SYMBOL "GAP_Signable"
??GAP_Signable?relay SYMBOL "?relay", GAP_Signable
GAP_TerminateAuth   SYMBOL "GAP_TerminateAuth"
??GAP_TerminateAuth?relay SYMBOL "?relay", GAP_TerminateAuth
GAP_TerminateLinkReq SYMBOL "GAP_TerminateLinkReq"
??GAP_TerminateLinkReq?relay SYMBOL "?relay", GAP_TerminateLinkReq
GATTServApp_ReadAttr SYMBOL "GATTServApp_ReadAttr"
??GATTServApp_ReadAttr?relay SYMBOL "?relay", GATTServApp_ReadAttr
GATTServApp_RegisterForMsg SYMBOL "GATTServApp_RegisterForMsg"
??GATTServApp_RegisterForMsg?relay SYMBOL "?relay", GATTServApp_RegisterForMsg
GATTServApp_SendServiceChangedInd SYMBOL "GATTServApp_SendServiceChangedInd"
??GATTServApp_SendServiceChangedInd?relay SYMBOL "?relay", GATTServApp_SendServiceChangedInd
GATTServApp_UpdateCharCfg SYMBOL "GATTServApp_UpdateCharCfg"
??GATTServApp_UpdateCharCfg?relay SYMBOL "?relay", GATTServApp_UpdateCharCfg
GATT_FindHandleUUID SYMBOL "GATT_FindHandleUUID"
??GATT_FindHandleUUID?relay SYMBOL "?relay", GATT_FindHandleUUID
GATT_FindNextAttr   SYMBOL "GATT_FindNextAttr"
??GATT_FindNextAttr?relay SYMBOL "?relay", GATT_FindNextAttr
GGS_SetParameter    SYMBOL "GGS_SetParameter"
??GGS_SetParameter?relay SYMBOL "?relay", GGS_SetParameter
HCI_LE_AddWhiteListCmd SYMBOL "HCI_LE_AddWhiteListCmd"
??HCI_LE_AddWhiteListCmd?relay SYMBOL "?relay", HCI_LE_AddWhiteListCmd
HCI_LE_ClearWhiteListCmd SYMBOL "HCI_LE_ClearWhiteListCmd"
??HCI_LE_ClearWhiteListCmd?relay SYMBOL "?relay", HCI_LE_ClearWhiteListCmd
linkDB_Find         SYMBOL "linkDB_Find"
??linkDB_Find?relay SYMBOL "?relay", linkDB_Find
linkDB_PerformFunc  SYMBOL "linkDB_PerformFunc"
??linkDB_PerformFunc?relay SYMBOL "?relay", linkDB_PerformFunc
osal_clear_event    SYMBOL "osal_clear_event"
??osal_clear_event?relay SYMBOL "?relay", osal_clear_event
osal_isbufset       SYMBOL "osal_isbufset"
??osal_isbufset?relay SYMBOL "?relay", osal_isbufset
osal_memcmp         SYMBOL "osal_memcmp"
??osal_memcmp?relay SYMBOL "?relay", osal_memcmp
osal_memcpy         SYMBOL "osal_memcpy"
??osal_memcpy?relay SYMBOL "?relay", osal_memcpy
osal_memset         SYMBOL "osal_memset"
??osal_memset?relay SYMBOL "?relay", osal_memset
osal_msg_deallocate SYMBOL "osal_msg_deallocate"
??osal_msg_deallocate?relay SYMBOL "?relay", osal_msg_deallocate
osal_msg_receive    SYMBOL "osal_msg_receive"
??osal_msg_receive?relay SYMBOL "?relay", osal_msg_receive
osal_revmemcpy      SYMBOL "osal_revmemcpy"
??osal_revmemcpy?relay SYMBOL "?relay", osal_revmemcpy
osal_set_event      SYMBOL "osal_set_event"
??osal_set_event?relay SYMBOL "?relay", osal_set_event
osal_snv_compact    SYMBOL "osal_snv_compact"
??osal_snv_compact?relay SYMBOL "?relay", osal_snv_compact
osal_snv_read       SYMBOL "osal_snv_read"
??osal_snv_read?relay SYMBOL "?relay", osal_snv_read
osal_snv_write      SYMBOL "osal_snv_write"
??osal_snv_write?relay SYMBOL "?relay", osal_snv_write
GAPBondMgr_CheckNVLen SYMBOL "GAPBondMgr_CheckNVLen"
??GAPBondMgr_CheckNVLen?relay SYMBOL "?relay", GAPBondMgr_CheckNVLen
GAPBondMgr_GetParameter SYMBOL "GAPBondMgr_GetParameter"
??GAPBondMgr_GetParameter?relay SYMBOL "?relay", GAPBondMgr_GetParameter
GAPBondMgr_Init     SYMBOL "GAPBondMgr_Init"
??GAPBondMgr_Init?relay SYMBOL "?relay", GAPBondMgr_Init
GAPBondMgr_LinkEst  SYMBOL "GAPBondMgr_LinkEst"
??GAPBondMgr_LinkEst?relay SYMBOL "?relay", GAPBondMgr_LinkEst
GAPBondMgr_PasscodeRsp SYMBOL "GAPBondMgr_PasscodeRsp"
??GAPBondMgr_PasscodeRsp?relay SYMBOL "?relay", GAPBondMgr_PasscodeRsp
GAPBondMgr_ProcessEvent SYMBOL "GAPBondMgr_ProcessEvent"
??GAPBondMgr_ProcessEvent?relay SYMBOL "?relay", GAPBondMgr_ProcessEvent
GAPBondMgr_ProcessGAPMsg SYMBOL "GAPBondMgr_ProcessGAPMsg"
??GAPBondMgr_ProcessGAPMsg?relay SYMBOL "?relay", GAPBondMgr_ProcessGAPMsg
GAPBondMgr_Register SYMBOL "GAPBondMgr_Register"
??GAPBondMgr_Register?relay SYMBOL "?relay", GAPBondMgr_Register
GAPBondMgr_ResolveAddr SYMBOL "GAPBondMgr_ResolveAddr"
??GAPBondMgr_ResolveAddr?relay SYMBOL "?relay", GAPBondMgr_ResolveAddr
GAPBondMgr_ServiceChangeInd SYMBOL "GAPBondMgr_ServiceChangeInd"
??GAPBondMgr_ServiceChangeInd?relay SYMBOL "?relay", GAPBondMgr_ServiceChangeInd
GAPBondMgr_SetParameter SYMBOL "GAPBondMgr_SetParameter"
??GAPBondMgr_SetParameter?relay SYMBOL "?relay", GAPBondMgr_SetParameter
GAPBondMgr_UpdateCharCfg SYMBOL "GAPBondMgr_UpdateCharCfg"
??GAPBondMgr_UpdateCharCfg?relay SYMBOL "?relay", GAPBondMgr_UpdateCharCfg

        EXTERN ??GAP_Authenticate?relay
        FUNCTION ??GAP_Authenticate?relay,00H
        EXTERN ??GAP_Bond?relay
        FUNCTION ??GAP_Bond?relay,00H
        EXTERN ??GAP_GetParamValue?relay
        FUNCTION ??GAP_GetParamValue?relay,00H
        EXTERN ??GAP_NumActiveConnections?relay
        FUNCTION ??GAP_NumActiveConnections?relay,00H
        EXTERN ??GAP_PasscodeUpdate?relay
        FUNCTION ??GAP_PasscodeUpdate?relay,00H
        EXTERN ??GAP_ResolvePrivateAddr?relay
        FUNCTION ??GAP_ResolvePrivateAddr?relay,00H
        EXTERN ??GAP_SendSlaveSecurityRequest?relay
        FUNCTION ??GAP_SendSlaveSecurityRequest?relay,00H
        EXTERN ??GAP_SetParamValue?relay
        FUNCTION ??GAP_SetParamValue?relay,00H
        EXTERN ??GAP_Signable?relay
        FUNCTION ??GAP_Signable?relay,00H
        EXTERN ??GAP_TerminateAuth?relay
        FUNCTION ??GAP_TerminateAuth?relay,00H
        EXTERN ??GAP_TerminateLinkReq?relay
        FUNCTION ??GAP_TerminateLinkReq?relay,00H
        EXTERN ??GATTServApp_ReadAttr?relay
        FUNCTION ??GATTServApp_ReadAttr?relay,00H
        EXTERN ??GATTServApp_RegisterForMsg?relay
        FUNCTION ??GATTServApp_RegisterForMsg?relay,00H
        EXTERN ??GATTServApp_SendServiceChangedInd?relay
        FUNCTION ??GATTServApp_SendServiceChangedInd?relay,00H
        EXTERN ??GATTServApp_UpdateCharCfg?relay
        FUNCTION ??GATTServApp_UpdateCharCfg?relay,00H
        EXTERN ??GATT_FindHandleUUID?relay
        FUNCTION ??GATT_FindHandleUUID?relay,00H
        EXTERN ??GATT_FindNextAttr?relay
        FUNCTION ??GATT_FindNextAttr?relay,00H
        EXTERN ??GGS_SetParameter?relay
        FUNCTION ??GGS_SetParameter?relay,00H
        EXTERN ??HCI_LE_AddWhiteListCmd?relay
        FUNCTION ??HCI_LE_AddWhiteListCmd?relay,00H
        EXTERN ??HCI_LE_ClearWhiteListCmd?relay
        FUNCTION ??HCI_LE_ClearWhiteListCmd?relay,00H
        EXTERN ??linkDB_Find?relay
        FUNCTION ??linkDB_Find?relay,00H
        EXTERN ??linkDB_PerformFunc?relay
        FUNCTION ??linkDB_PerformFunc?relay,00H
        EXTERN ??osal_clear_event?relay
        FUNCTION ??osal_clear_event?relay,00H
        EXTERN ??osal_isbufset?relay
        FUNCTION ??osal_isbufset?relay,00H
        EXTERN ??osal_memcmp?relay
        FUNCTION ??osal_memcmp?relay,00H
        EXTERN ??osal_memcpy?relay
        FUNCTION ??osal_memcpy?relay,00H
        EXTERN ??osal_memset?relay
        FUNCTION ??osal_memset?relay,00H
        EXTERN ??osal_msg_deallocate?relay
        FUNCTION ??osal_msg_deallocate?relay,00H
        EXTERN ??osal_msg_receive?relay
        FUNCTION ??osal_msg_receive?relay,00H
        EXTERN ??osal_revmemcpy?relay
        FUNCTION ??osal_revmemcpy?relay,00H
        EXTERN ??osal_set_event?relay
        FUNCTION ??osal_set_event?relay,00H
        EXTERN ??osal_snv_compact?relay
        FUNCTION ??osal_snv_compact?relay,00H
        EXTERN ??osal_snv_read?relay
        FUNCTION ??osal_snv_read?relay,00H
        EXTERN ??osal_snv_write?relay
        FUNCTION ??osal_snv_write?relay,00H
        EXTERN GAP_Authenticate
        FUNCTION GAP_Authenticate,0202H
        ARGFRAME ISTACK, 0, STACK
        ARGFRAME PSTACK, 0, STACK
        ARGFRAME XSTACK, 36, STACK
        ARGFRAME IOVERLAY, 0, STATIC
        ARGFRAME DOVERLAY, 0, STATIC
        EXTERN GAP_Bond
        FUNCTION GAP_Bond,0202H
        ARGFRAME ISTACK, 0, STACK
        ARGFRAME PSTACK, 0, STACK
        ARGFRAME XSTACK, 40, STACK
        ARGFRAME IOVERLAY, 0, STATIC
        ARGFRAME DOVERLAY, 0, STATIC
        EXTERN GAP_GetParamValue
        FUNCTION GAP_GetParamValue,0202H
        ARGFRAME ISTACK, 0, STACK
        ARGFRAME PSTACK, 0, STACK
        ARGFRAME XSTACK, 12, STACK
        ARGFRAME IOVERLAY, 0, STATIC
        ARGFRAME DOVERLAY, 0, STATIC
        EXTERN GAP_NumActiveConnections
        FUNCTION GAP_NumActiveConnections,0202H
        ARGFRAME ISTACK, 0, STACK
        ARGFRAME PSTACK, 0, STACK
        ARGFRAME XSTACK, 36, STACK
        ARGFRAME IOVERLAY, 0, STATIC
        ARGFRAME DOVERLAY, 0, STATIC
        EXTERN GAP_PasscodeUpdate
        FUNCTION GAP_PasscodeUpdate,0202H
        ARGFRAME ISTACK, 0, STACK
        ARGFRAME PSTACK, 0, STACK
        ARGFRAME XSTACK, 38, STACK
        ARGFRAME IOVERLAY, 0, STATIC
        ARGFRAME DOVERLAY, 0, STATIC
        EXTERN GAP_ResolvePrivateAddr
        FUNCTION GAP_ResolvePrivateAddr,0202H
        ARGFRAME ISTACK, 0, STACK
        ARGFRAME PSTACK, 0, STACK
        ARGFRAME XSTACK, 31, STACK
        ARGFRAME IOVERLAY, 0, STATIC
        ARGFRAME DOVERLAY, 0, STATIC
        EXTERN GAP_SendSlaveSecurityRequest
        FUNCTION GAP_SendSlaveSecurityRequest,0202H
        ARGFRAME ISTACK, 0, STACK
        ARGFRAME PSTACK, 0, STACK
        ARGFRAME XSTACK, 53, STACK
        ARGFRAME IOVERLAY, 0, STATIC
        ARGFRAME DOVERLAY, 0, STATIC
        EXTERN GAP_SetParamValue
        FUNCTION GAP_SetParamValue,0202H
        ARGFRAME ISTACK, 2, STACK
        ARGFRAME PSTACK, 0, STACK
        ARGFRAME XSTACK, 22, STACK
        ARGFRAME IOVERLAY, 0, STATIC
        ARGFRAME DOVERLAY, 0, STATIC
        EXTERN GAP_Signable
        FUNCTION GAP_Signable,0202H
        ARGFRAME ISTACK, 0, STACK
        ARGFRAME PSTACK, 0, STACK
        ARGFRAME XSTACK, 53, STACK
        ARGFRAME IOVERLAY, 0, STATIC
        ARGFRAME DOVERLAY, 0, STATIC
        EXTERN GAP_TerminateAuth
        FUNCTION GAP_TerminateAuth,0202H
        ARGFRAME ISTACK, 0, STACK
        ARGFRAME PSTACK, 0, STACK
        ARGFRAME XSTACK, 36, STACK
        ARGFRAME IOVERLAY, 0, STATIC
        ARGFRAME DOVERLAY, 0, STATIC
        EXTERN GAP_TerminateLinkReq
        FUNCTION GAP_TerminateLinkReq,0202H
        ARGFRAME ISTACK, 0, STACK
        ARGFRAME PSTACK, 0, STACK
        ARGFRAME XSTACK, 36, STACK
        ARGFRAME IOVERLAY, 0, STATIC
        ARGFRAME DOVERLAY, 0, STATIC
        EXTERN GATTServApp_ReadAttr
        FUNCTION GATTServApp_ReadAttr,0202H
        ARGFRAME ISTACK, 0, STACK
        ARGFRAME PSTACK, 0, STACK
        ARGFRAME XSTACK, 21, STACK
        ARGFRAME IOVERLAY, 0, STATIC
        ARGFRAME DOVERLAY, 0, STATIC
        EXTERN GATTServApp_RegisterForMsg
        FUNCTION GATTServApp_RegisterForMsg,0202H
        ARGFRAME ISTACK, 2, STACK
        ARGFRAME PSTACK, 0, STACK
        ARGFRAME XSTACK, 0, STACK
        ARGFRAME IOVERLAY, 0, STATIC
        ARGFRAME DOVERLAY, 0, STATIC
        EXTERN GATTServApp_SendServiceChangedInd
        FUNCTION GATTServApp_SendServiceChangedInd,0202H
        ARGFRAME ISTACK, 2, STACK
        ARGFRAME PSTACK, 0, STACK
        ARGFRAME XSTACK, 53, STACK
        ARGFRAME IOVERLAY, 0, STATIC
        ARGFRAME DOVERLAY, 0, STATIC
        EXTERN GATTServApp_UpdateCharCfg
        FUNCTION GATTServApp_UpdateCharCfg,0202H
        ARGFRAME ISTACK, 0, STACK
        ARGFRAME PSTACK, 0, STACK
        ARGFRAME XSTACK, 55, STACK
        ARGFRAME IOVERLAY, 0, STATIC
        ARGFRAME DOVERLAY, 0, STATIC
        EXTERN GATT_FindHandleUUID
        FUNCTION GATT_FindHandleUUID,0202H
        ARGFRAME ISTACK, 0, STACK
        ARGFRAME PSTACK, 0, STACK
        ARGFRAME XSTACK, 19, STACK
        ARGFRAME IOVERLAY, 0, STATIC
        ARGFRAME DOVERLAY, 0, STATIC
        EXTERN GATT_FindNextAttr
        FUNCTION GATT_FindNextAttr,0202H
        ARGFRAME ISTACK, 0, STACK
        ARGFRAME PSTACK, 0, STACK
        ARGFRAME XSTACK, 17, STACK
        ARGFRAME IOVERLAY, 0, STATIC
        ARGFRAME DOVERLAY, 0, STATIC
        EXTERN GGS_SetParameter
        FUNCTION GGS_SetParameter,0202H
        ARGFRAME ISTACK, 2, STACK
        ARGFRAME PSTACK, 0, STACK
        ARGFRAME XSTACK, 1, STACK
        ARGFRAME IOVERLAY, 0, STATIC
        ARGFRAME DOVERLAY, 0, STATIC
        EXTERN HCI_LE_AddWhiteListCmd
        FUNCTION HCI_LE_AddWhiteListCmd,0202H
        ARGFRAME ISTACK, 0, STACK
        ARGFRAME PSTACK, 0, STACK
        ARGFRAME XSTACK, 9, STACK
        ARGFRAME IOVERLAY, 0, STATIC
        ARGFRAME DOVERLAY, 0, STATIC
        EXTERN HCI_LE_ClearWhiteListCmd
        FUNCTION HCI_LE_ClearWhiteListCmd,0202H
        ARGFRAME ISTACK, 0, STACK
        ARGFRAME PSTACK, 0, STACK
        ARGFRAME XSTACK, 9, STACK
        ARGFRAME IOVERLAY, 0, STATIC
        ARGFRAME DOVERLAY, 0, STATIC
        EXTERN clientCharCfgUUID
        EXTERN linkDB_Find
        FUNCTION linkDB_Find,0202H
        ARGFRAME ISTACK, 0, STACK
        ARGFRAME PSTACK, 0, STACK
        ARGFRAME XSTACK, 36, STACK
        ARGFRAME IOVERLAY, 0, STATIC
        ARGFRAME DOVERLAY, 0, STATIC
        EXTERN linkDB_PerformFunc
        FUNCTION linkDB_PerformFunc,0202H
        ARGFRAME ISTACK, 0, STACK
        ARGFRAME PSTACK, 0, STACK
        ARGFRAME XSTACK, 12, STACK
        ARGFRAME IOVERLAY, 0, STATIC
        ARGFRAME DOVERLAY, 0, STATIC
        EXTERN osal_clear_event
        FUNCTION osal_clear_event,0202H
        ARGFRAME ISTACK, 0, STACK
        ARGFRAME PSTACK, 0, STACK
        ARGFRAME XSTACK, 66, STACK
        ARGFRAME IOVERLAY, 0, STATIC
        ARGFRAME DOVERLAY, 0, STATIC
        EXTERN osal_isbufset
        FUNCTION osal_isbufset,0202H
        ARGFRAME ISTACK, 0, STACK
        ARGFRAME PSTACK, 0, STACK
        ARGFRAME XSTACK, 66, STACK
        ARGFRAME IOVERLAY, 0, STATIC
        ARGFRAME DOVERLAY, 0, STATIC
        EXTERN osal_memcmp
        FUNCTION osal_memcmp,0202H
        ARGFRAME ISTACK, 0, STACK
        ARGFRAME PSTACK, 0, STACK
        ARGFRAME XSTACK, 33, STACK
        ARGFRAME IOVERLAY, 0, STATIC
        ARGFRAME DOVERLAY, 0, STATIC
        EXTERN osal_memcpy
        FUNCTION osal_memcpy,0202H
        ARGFRAME ISTACK, 0, STACK
        ARGFRAME PSTACK, 0, STACK
        ARGFRAME XSTACK, 38, STACK
        ARGFRAME IOVERLAY, 0, STATIC
        ARGFRAME DOVERLAY, 0, STATIC
        EXTERN osal_memset
        FUNCTION osal_memset,0202H
        ARGFRAME ISTACK, 0, STACK
        ARGFRAME PSTACK, 0, STACK
        ARGFRAME XSTACK, 66, STACK
        ARGFRAME IOVERLAY, 0, STATIC
        ARGFRAME DOVERLAY, 0, STATIC
        EXTERN osal_msg_deallocate
        FUNCTION osal_msg_deallocate,0202H
        ARGFRAME ISTACK, 2, STACK
        ARGFRAME PSTACK, 0, STACK
        ARGFRAME XSTACK, 12, STACK
        ARGFRAME IOVERLAY, 0, STATIC
        ARGFRAME DOVERLAY, 0, STATIC
        EXTERN osal_msg_receive
        FUNCTION osal_msg_receive,0202H
        ARGFRAME ISTACK, 0, STACK
        ARGFRAME PSTACK, 0, STACK
        ARGFRAME XSTACK, 12, STACK
        ARGFRAME IOVERLAY, 0, STATIC
        ARGFRAME DOVERLAY, 0, STATIC
        EXTERN osal_revmemcpy
        FUNCTION osal_revmemcpy,0202H
        ARGFRAME ISTACK, 0, STACK
        ARGFRAME PSTACK, 0, STACK
        ARGFRAME XSTACK, 24, STACK
        ARGFRAME IOVERLAY, 0, STATIC
        ARGFRAME DOVERLAY, 0, STATIC
        EXTERN osal_set_event
        FUNCTION osal_set_event,0202H
        ARGFRAME ISTACK, 0, STACK
        ARGFRAME PSTACK, 0, STACK
        ARGFRAME XSTACK, 36, STACK
        ARGFRAME IOVERLAY, 0, STATIC
        ARGFRAME DOVERLAY, 0, STATIC
        EXTERN osal_snv_compact
        FUNCTION osal_snv_compact,0202H
        ARGFRAME ISTACK, 0, STACK
        ARGFRAME PSTACK, 0, STACK
        ARGFRAME XSTACK, 36, STACK
        ARGFRAME IOVERLAY, 0, STATIC
        ARGFRAME DOVERLAY, 0, STATIC
        EXTERN osal_snv_read
        FUNCTION osal_snv_read,0202H
        ARGFRAME ISTACK, 0, STACK
        ARGFRAME PSTACK, 0, STACK
        ARGFRAME XSTACK, 66, STACK
        ARGFRAME IOVERLAY, 0, STATIC
        ARGFRAME DOVERLAY, 0, STATIC
        EXTERN osal_snv_write
        FUNCTION osal_snv_write,0202H
        ARGFRAME ISTACK, 0, STACK
        ARGFRAME PSTACK, 0, STACK
        ARGFRAME XSTACK, 66, STACK
        ARGFRAME IOVERLAY, 0, STATIC
        ARGFRAME DOVERLAY, 0, STATIC

// c:\Users\Administrator\Documents\Dropbox\Fish Brain\HM-10 Hack\HM-10 Firmware\Projects\ble\Profiles\Roles\gapbondmgr.c
//    1 /**************************************************************************************************
//    2   Filename:       gapbondmgr.c
//    3   Revised:        $Date: 2011-02-24 15:46:53 -0800 (Thu, 24 Feb 2011) $
//    4   Revision:       $Revision: 10 $
//    5 
//    6   Description:    GAP peripheral profile manages bonded connections
//    7 
//    8 
//    9   Copyright 2011-2013 Texas Instruments Incorporated. All rights reserved.
//   10 
//   11   IMPORTANT: Your use of this Software is limited to those specific rights
//   12   granted under the terms of a software license agreement between the user
//   13   who downloaded the software, his/her employer (which must be your employer)
//   14   and Texas Instruments Incorporated (the "License").  You may not use this
//   15   Software unless you agree to abide by the terms of the License. The License
//   16   limits your use, and you acknowledge, that the Software may not be modified,
//   17   copied or distributed unless embedded on a Texas Instruments microcontroller
//   18   or used solely and exclusively in conjunction with a Texas Instruments radio
//   19   frequency transceiver, which is integrated into your product.  Other than for
//   20   the foregoing purpose, you may not use, reproduce, copy, prepare derivative
//   21   works of, modify, distribute, perform, display or sell this Software and/or
//   22   its documentation for any purpose.
//   23 
//   24   YOU FURTHER ACKNOWLEDGE AND AGREE THAT THE SOFTWARE AND DOCUMENTATION ARE
//   25   PROVIDED “AS IS” WITHOUT WARRANTY OF ANY KIND, EITHER EXPRESS OR IMPLIED,
//   26   INCLUDING WITHOUT LIMITATION, ANY WARRANTY OF MERCHANTABILITY, TITLE,
//   27   NON-INFRINGEMENT AND FITNESS FOR A PARTICULAR PURPOSE. IN NO EVENT SHALL
//   28   TEXAS INSTRUMENTS OR ITS LICENSORS BE LIABLE OR OBLIGATED UNDER CONTRACT,
//   29   NEGLIGENCE, STRICT LIABILITY, CONTRIBUTION, BREACH OF WARRANTY, OR OTHER
//   30   LEGAL EQUITABLE THEORY ANY DIRECT OR INDIRECT DAMAGES OR EXPENSES
//   31   INCLUDING BUT NOT LIMITED TO ANY INCIDENTAL, SPECIAL, INDIRECT, PUNITIVE
//   32   OR CONSEQUENTIAL DAMAGES, LOST PROFITS OR LOST DATA, COST OF PROCUREMENT
//   33   OF SUBSTITUTE GOODS, TECHNOLOGY, SERVICES, OR ANY CLAIMS BY THIRD PARTIES
//   34   (INCLUDING BUT NOT LIMITED TO ANY DEFENSE THEREOF), OR OTHER SIMILAR COSTS.
//   35 
//   36   Should you have any questions regarding your right to use this Software,
//   37   contact Texas Instruments Incorporated at www.TI.com.
//   38 **************************************************************************************************/
//   39 
//   40 #if ( HOST_CONFIG & ( CENTRAL_CFG | PERIPHERAL_CFG ) )
//   41 
//   42 /*********************************************************************
//   43  * INCLUDES
//   44  */
//   45 #include "bcomdef.h"
//   46 #include "OSAL.h"
//   47 #include "osal_snv.h"
//   48 #include "gap.h"
//   49 #include "linkdb.h"
//   50 #include "gatt.h"
//   51 #include "gatt_uuid.h"
//   52 #include "hci.h"
//   53 #include "gattservapp.h"
//   54 #include "gapgattserver.h"
//   55 #include "gapbondmgr.h"
//   56 
//   57 /*********************************************************************
//   58  * MACROS
//   59  */
//   60 
//   61 /*********************************************************************
//   62  * CONSTANTS
//   63  */
//   64 // Task event types
//   65 #define GAP_BOND_SYNC_CC_EVT                            0x0001 // Sync char config
//   66 #define GAP_BOND_SAVE_REC_EVT                           0x0002 // Save bond record in NV
//   67 
//   68 // Once NV usage reaches this percentage threshold, NV compaction gets triggered.
//   69 #define NV_COMPACT_THRESHOLD                            80
//   70 
//   71 // Bonded State Flags
//   72 #define GAP_BONDED_STATE_AUTHENTICATED                  0x0001
//   73 #define GAP_BONDED_STATE_SERVICE_CHANGED                0x0002
//   74 
//   75 /**
//   76  * GAP Bond Manager NV layout
//   77  *
//   78  * The NV definitions:
//   79  *     BLE_NVID_GAP_BOND_START - starting NV ID
//   80  *     GAP_BONDINGS_MAX - Maximum number of bonding allowed (10 is max for number of NV IDs allocated in bcomdef.h).
//   81  *
//   82  * A single bonding entry consists of 6 components (NV items):
//   83  *     Bond Record - defined as gapBondRec_t and uses GAP_BOND_REC_ID_OFFSET for an NV ID
//   84  *     local LTK Info - defined as gapBondLTK_t and uses GAP_BOND_LOCAL_LTK_OFFSET for an NV ID
//   85  *     device LTK Info - defined as gapBondLTK_t and uses GAP_BOND_DEV_LTK_OFFSET for an NV ID
//   86  *     device IRK - defined as "uint8 devIRK[KEYLEN]" and uses GAP_BOND_DEV_IRK_OFFSET for an NV ID
//   87  *     device CSRK - defined as "uint8 devCSRK[KEYLEN]" and uses GAP_BOND_DEV_CSRK_OFFSET for an NV ID
//   88  *     device Sign Counter - defined as a uint32 and uses GAP_BOND_DEV_SIGN_COUNTER_OFFSET for an NV ID
//   89  *
//   90  * When the device is initialized for the first time, all (GAP_BONDINGS_MAX) NV items are created and
//   91  * initialized to all 0xFF's. A bonding record of all 0xFF's indicates that the bonding record is empty
//   92  * and free to use.
//   93  *
//   94  * The calculation for each bonding records NV IDs:
//   95  *    mainRecordNvID = ((bondIdx * GAP_BOND_REC_IDS) + BLE_NVID_GAP_BOND_START)
//   96  *    localLTKNvID = (((bondIdx * GAP_BOND_REC_IDS) + GAP_BOND_LOCAL_LTK_OFFSET) + BLE_NVID_GAP_BOND_START)
//   97  *
//   98  */
//   99 #define GAP_BOND_REC_ID_OFFSET              0 //!< NV ID for the main bonding record
//  100 #define GAP_BOND_LOCAL_LTK_OFFSET           1 //!< NV ID for the bonding record's local LTK information
//  101 #define GAP_BOND_DEV_LTK_OFFSET             2 //!< NV ID for the bonding records' device LTK information
//  102 #define GAP_BOND_DEV_IRK_OFFSET             3 //!< NV ID for the bonding records' device IRK
//  103 #define GAP_BOND_DEV_CSRK_OFFSET            4 //!< NV ID for the bonding records' device CSRK
//  104 #define GAP_BOND_DEV_SIGN_COUNTER_OFFSET    5 //!< NV ID for the bonding records' device Sign Counter
//  105 
//  106 #define GAP_BOND_REC_IDS                    6
//  107 
//  108 // Macros to calculate the index/offset in to NV space
//  109 #define calcNvID(Idx, offset)               (((((Idx) * GAP_BOND_REC_IDS) + (offset))) + BLE_NVID_GAP_BOND_START)
//  110 #define mainRecordNvID(bondIdx)             (calcNvID((bondIdx), GAP_BOND_REC_ID_OFFSET))
//  111 #define localLTKNvID(bondIdx)               (calcNvID((bondIdx), GAP_BOND_LOCAL_LTK_OFFSET))
//  112 #define devLTKNvID(bondIdx)                 (calcNvID((bondIdx), GAP_BOND_DEV_LTK_OFFSET))
//  113 #define devIRKNvID(bondIdx)                 (calcNvID((bondIdx), GAP_BOND_DEV_IRK_OFFSET))
//  114 #define devCSRKNvID(bondIdx)                (calcNvID((bondIdx), GAP_BOND_DEV_CSRK_OFFSET))
//  115 #define devSignCounterNvID(bondIdx)         (calcNvID((bondIdx), GAP_BOND_DEV_SIGN_COUNTER_OFFSET))
//  116 
//  117 // Macros to calculate the GATT index/offset in to NV space
//  118 #define gattCfgNvID(Idx)                    ((Idx) + BLE_NVID_GATT_CFG_START)
//  119 
//  120 // Key Size Limits
//  121 #define MIN_ENC_KEYSIZE                     7  //!< Minimum number of bytes for the encryption key
//  122 #define MAX_ENC_KEYSIZE                     16 //!< Maximum number of bytes for the encryption key
//  123 
//  124 /*********************************************************************
//  125  * TYPEDEFS
//  126  */
//  127 
//  128 // Structure of NV data for the connected device's encryption information
//  129 typedef struct
//  130 {
//  131   uint8   LTK[KEYLEN];              // Long Term Key (LTK)
//  132   uint16  div;  //lint -e754        // LTK eDiv
//  133   uint8   rand[B_RANDOM_NUM_SIZE];  // LTK random number
//  134   uint8   keySize;                  // LTK key size
//  135 } gapBondLTK_t;
//  136 
//  137 // Structure of NV data for the connected device's address information
//  138 typedef struct
//  139 {
//  140   uint8   publicAddr[B_ADDR_LEN];     // Master's address
//  141   uint8   reconnectAddr[B_ADDR_LEN];  // Privacy Reconnection Address
//  142   uint16  stateFlags;                 // State flags: SM_AUTH_STATE_AUTHENTICATED & SM_AUTH_STATE_BONDING
//  143 } gapBondRec_t;
//  144 
//  145 // Structure of NV data for the connected device's characteristic configuration
//  146 typedef struct
//  147 {
//  148   uint16 attrHandle;  // attribute handle
//  149   uint8  value;       // attribute value for this device
//  150 } gapBondCharCfg_t;
//  151 
//  152 /*********************************************************************
//  153  * GLOBAL VARIABLES
//  154  */
//  155 
//  156 /*********************************************************************
//  157  * EXTERNAL VARIABLES
//  158  */
//  159 
//  160 /*********************************************************************
//  161  * EXTERNAL FUNCTIONS
//  162  */
//  163 
//  164 /*********************************************************************
//  165  * LOCAL VARIABLES
//  166  */

        RSEG XDATA_Z:XDATA:NOROOT(0)
        DATA8
//  167 static uint8 gapBondMgr_TaskID;   // Task ID for internal task/event processing
gapBondMgr_TaskID:
        DS 1
        REQUIRE __INIT_XDATA_Z
//  168 
//  169 // GAPBonding Parameters

        RSEG XDATA_I:XDATA:NOROOT(0)
//  170 static uint8 gapBond_PairingMode = GAPBOND_PAIRING_MODE_WAIT_FOR_REQ;
gapBond_PairingMode:
        DATA8
        DS 1
        REQUIRE `?<Initializer for gapBond_PairingMode>`
        REQUIRE __INIT_XDATA_I

        RSEG XDATA_I:XDATA:NOROOT(0)
//  171 static uint16 gapBond_InitiateWait = 1000;  // Default to 1 second
gapBond_InitiateWait:
        DATA16
        DS 2
        REQUIRE `?<Initializer for gapBond_InitiateWait>`
        REQUIRE __INIT_XDATA_I

        RSEG XDATA_Z:XDATA:NOROOT(0)
        DATA8
//  172 static uint8 gapBond_MITM = FALSE;
gapBond_MITM:
        DS 1
        REQUIRE __INIT_XDATA_Z

        RSEG XDATA_Z:XDATA:NOROOT(0)
        DATA8
//  173 static uint8 gapBond_IOCap = GAPBOND_IO_CAP_DISPLAY_ONLY;
gapBond_IOCap:
        DS 1
        REQUIRE __INIT_XDATA_Z

        RSEG XDATA_Z:XDATA:NOROOT(0)
        DATA8
//  174 static uint8 gapBond_OOBDataFlag = FALSE;
gapBond_OOBDataFlag:
        DS 1
        REQUIRE __INIT_XDATA_Z

        RSEG XDATA_Z:XDATA:NOROOT(0)
        DATA8
//  175 static uint8 gapBond_OOBData[KEYLEN] = {0,0,0,0,0,0,0,0,0,0,0,0,0,0,0,0};
gapBond_OOBData:
        DS 16
        REQUIRE __INIT_XDATA_Z

        RSEG XDATA_Z:XDATA:NOROOT(0)
        DATA8
//  176 static uint8 gapBond_Bonding = FALSE;
gapBond_Bonding:
        DS 1
        REQUIRE __INIT_XDATA_Z

        RSEG XDATA_Z:XDATA:NOROOT(0)
        DATA8
//  177 static uint8 gapBond_AutoFail = FALSE;
gapBond_AutoFail:
        DS 1
        REQUIRE __INIT_XDATA_Z

        RSEG XDATA_I:XDATA:NOROOT(0)
//  178 static uint8 gapBond_AutoFailReason = SMP_PAIRING_FAILED_NOT_SUPPORTED;
gapBond_AutoFailReason:
        DATA8
        DS 1
        REQUIRE `?<Initializer for gapBond_AutoFailReason>`
        REQUIRE __INIT_XDATA_I

        RSEG XDATA_I:XDATA:NOROOT(0)
//  179 static uint8 gapBond_KeyDistList =
gapBond_KeyDistList:
        DATA8
        DS 1
        REQUIRE `?<Initializer for gapBond_KeyDistList>`
        REQUIRE __INIT_XDATA_I
//  180 (
//  181   GAPBOND_KEYDIST_SENCKEY     // sEncKey enabled, to send the encryption key
//  182    | GAPBOND_KEYDIST_SIDKEY   // sIdKey enabled, to send the IRK, and BD_ADDR
//  183    | GAPBOND_KEYDIST_SSIGN    // sSign enabled, to send the CSRK
//  184    | GAPBOND_KEYDIST_MENCKEY  // mEncKey enabled, to get the master's encryption key
//  185    | GAPBOND_KEYDIST_MIDKEY   // mIdKey enabled, to get the master's IRK and BD_ADDR
//  186    | GAPBOND_KEYDIST_MSIGN    // mSign enabled, to get the master's CSRK
//  187 );

        RSEG XDATA_Z:XDATA:NOROOT(0)
        DATA32
//  188 static uint32 gapBond_Passcode = 0;
gapBond_Passcode:
        DS 4
        REQUIRE __INIT_XDATA_Z

        RSEG XDATA_I:XDATA:NOROOT(0)
//  189 static uint8  gapBond_KeySize = MAX_ENC_KEYSIZE;
gapBond_KeySize:
        DATA8
        DS 1
        REQUIRE `?<Initializer for gapBond_KeySize>`
        REQUIRE __INIT_XDATA_I
//  190 
//  191 #if ( HOST_CONFIG & CENTRAL_CFG )

        RSEG XDATA_I:XDATA:NOROOT(0)
//  192 static uint8  gapBond_BondFailOption = GAPBOND_FAIL_TERMINATE_LINK;
gapBond_BondFailOption:
        DATA8
        DS 1
        REQUIRE `?<Initializer for gapBond_BondFailOption>`
        REQUIRE __INIT_XDATA_I
//  193 #endif
//  194 

        RSEG XDATA_Z:XDATA:NOROOT(0)
        DATA16
//  195 static const gapBondCBs_t *pGapBondCB = NULL;
pGapBondCB:
        DS 2
        REQUIRE __INIT_XDATA_Z
//  196 
//  197 // Local RAM shadowed bond records

        RSEG XDATA_Z:XDATA:NOROOT(0)
        DATA8
//  198 static gapBondRec_t bonds[GAP_BONDINGS_MAX] = {0};
bonds:
        DS 140
        REQUIRE __INIT_XDATA_Z
//  199 

        RSEG XDATA_Z:XDATA:NOROOT(0)
        DATA8
//  200 static uint8 autoSyncWhiteList = FALSE;
autoSyncWhiteList:
        DS 1
        REQUIRE __INIT_XDATA_Z
//  201 

        RSEG XDATA_Z:XDATA:NOROOT(0)
        DATA8
//  202 static uint8 eraseAllBonds = FALSE;
eraseAllBonds:
        DS 1
        REQUIRE __INIT_XDATA_Z
//  203 

        RSEG XDATA_Z:XDATA:NOROOT(0)
        DATA8
//  204 static uint8 bondsToDelete[GAP_BONDINGS_MAX] = {FALSE};
bondsToDelete:
        DS 10
        REQUIRE __INIT_XDATA_Z
//  205 
//  206 // Globals used for saving bond record and CCC values in NV

        RSEG XDATA_I:XDATA:NOROOT(0)
//  207 static uint8 bondIdx = GAP_BONDINGS_MAX;
bondIdx:
        DATA8
        DS 1
        REQUIRE `?<Initializer for bondIdx>`
        REQUIRE __INIT_XDATA_I

        RSEG XDATA_Z:XDATA:NOROOT(0)
        DATA16
//  208 static gapAuthCompleteEvent_t *pAuthEvt = NULL;
pAuthEvt:
        DS 2
        REQUIRE __INIT_XDATA_Z
//  209 
//  210 /*********************************************************************
//  211  * LOCAL FUNCTIONS
//  212  */
//  213 static uint8 gapBondMgrChangeState( uint8 idx, uint16 state, uint8 set );
//  214 static uint8 gapBondMgrUpdateCharCfg( uint8 idx, uint16 attrHandle, uint16 value );
//  215 static gapBondCharCfg_t *gapBondMgrFindCharCfgItem( uint16 attrHandle,
//  216                                                     gapBondCharCfg_t *charCfgTbl );
//  217 static void gapBondMgrInvertCharCfgItem( gapBondCharCfg_t *charCfgTbl );
//  218 static uint8 gapBondMgrAddBond( gapBondRec_t *pBondRec, gapAuthCompleteEvent_t *pPkt );
//  219 static uint8 gapBondMgrGetStateFlags( uint8 idx );
//  220 static bStatus_t gapBondMgrGetPublicAddr( uint8 idx, uint8 *pAddr );
//  221 static uint8 gapBondMgrFindReconnectAddr( uint8 *pReconnectAddr );
//  222 static uint8 gapBondMgrFindAddr( uint8 *pDevAddr );
//  223 static uint8 gapBondMgrResolvePrivateAddr( uint8 *pAddr );
//  224 static void gapBondMgrReadBonds( void );
//  225 static uint8 gapBondMgrFindEmpty( void );
//  226 static uint8 gapBondMgrBondTotal( void );
//  227 static bStatus_t gapBondMgrEraseAllBondings( void );
//  228 static bStatus_t gapBondMgrEraseBonding( uint8 idx );
//  229 static uint8 gapBondMgr_ProcessOSALMsg( osal_event_hdr_t *pMsg );
//  230 static void gapBondMgrSendServiceChange( linkDBItem_t *pLinkItem );
//  231 static void gapBondMgr_ProcessGATTMsg( gattMsgEvent_t *pMsg );
//  232 static void gapBondMgr_ProcessGATTServMsg( gattEventHdr_t *pMsg );
//  233 static void gapBondSetupPrivFlag( void );
//  234 static void gapBondMgrBondReq( uint16 connHandle, uint8 idx, uint8 stateFlags,
//  235                                uint8 role, uint8 startEncryption );
//  236 static void gapBondMgrAuthenticate( uint16 connHandle, uint8 addrType,
//  237                                     gapPairingReq_t *pPairReq );
//  238 static void gapBondMgr_SyncWhiteList( void );
//  239 static uint8 gapBondMgr_SyncCharCfg( uint16 connHandle );
//  240 static void gapBondFreeAuthEvt( void );
//  241 
//  242 #if ( HOST_CONFIG & PERIPHERAL_CFG )
//  243 static void gapBondMgrSlaveSecurityReq( uint16 connHandle );
//  244 #endif
//  245 
//  246 /*********************************************************************
//  247  * NETWORK LAYER CALLBACKS
//  248  */
//  249 
//  250 /*********************************************************************
//  251  * PUBLIC FUNCTIONS
//  252  */
//  253 
//  254 /*********************************************************************
//  255  * @brief   Set a GAP Bond Manager parameter.
//  256  *
//  257  * Public function defined in gapbondmgr.h.
//  258  */

        RSEG BANKED_CODE:CODE:NOROOT(0)
//  259 bStatus_t GAPBondMgr_SetParameter( uint16 param, uint8 len, void *pValue )
GAPBondMgr_SetParameter:
          CFI Block cfiBlock0 Using cfiCommon0
          CFI Function GAPBondMgr_SetParameter
        CODE
//  260 {
        FUNCALL GAPBondMgr_SetParameter, osal_memcpy
        LOCFRAME ISTACK, 0, STACK
        LOCFRAME PSTACK, 0, STACK
        LOCFRAME XSTACK, 24, STACK
        LOCFRAME IOVERLAY, 0, STATIC
        LOCFRAME DOVERLAY, 0, STATIC
        ARGFRAME ISTACK, 0, STACK
        ARGFRAME PSTACK, 0, STACK
        ARGFRAME XSTACK, 24, STACK
        ARGFRAME IOVERLAY, 0, STATIC
        ARGFRAME DOVERLAY, 0, STATIC
        FUNCALL GAPBondMgr_SetParameter, GAP_NumActiveConnections
        LOCFRAME ISTACK, 0, STACK
        LOCFRAME PSTACK, 0, STACK
        LOCFRAME XSTACK, 22, STACK
        LOCFRAME IOVERLAY, 0, STATIC
        LOCFRAME DOVERLAY, 0, STATIC
        ARGFRAME ISTACK, 0, STACK
        ARGFRAME PSTACK, 0, STACK
        ARGFRAME XSTACK, 22, STACK
        ARGFRAME IOVERLAY, 0, STATIC
        ARGFRAME DOVERLAY, 0, STATIC
        FUNCALL GAPBondMgr_SetParameter, gapBondMgrEraseAllBondings
        LOCFRAME ISTACK, 0, STACK
        LOCFRAME PSTACK, 0, STACK
        LOCFRAME XSTACK, 22, STACK
        LOCFRAME IOVERLAY, 0, STATIC
        LOCFRAME DOVERLAY, 0, STATIC
        ARGFRAME ISTACK, 0, STACK
        ARGFRAME PSTACK, 0, STACK
        ARGFRAME XSTACK, 22, STACK
        ARGFRAME IOVERLAY, 0, STATIC
        ARGFRAME DOVERLAY, 0, STATIC
        FUNCALL GAPBondMgr_SetParameter, osal_snv_compact
        LOCFRAME ISTACK, 0, STACK
        LOCFRAME PSTACK, 0, STACK
        LOCFRAME XSTACK, 22, STACK
        LOCFRAME IOVERLAY, 0, STATIC
        LOCFRAME DOVERLAY, 0, STATIC
        ARGFRAME ISTACK, 0, STACK
        ARGFRAME PSTACK, 0, STACK
        ARGFRAME XSTACK, 22, STACK
        ARGFRAME IOVERLAY, 0, STATIC
        ARGFRAME DOVERLAY, 0, STATIC
        FUNCALL GAPBondMgr_SetParameter, gapBondMgrReadBonds
        LOCFRAME ISTACK, 0, STACK
        LOCFRAME PSTACK, 0, STACK
        LOCFRAME XSTACK, 22, STACK
        LOCFRAME IOVERLAY, 0, STATIC
        LOCFRAME DOVERLAY, 0, STATIC
        ARGFRAME ISTACK, 0, STACK
        ARGFRAME PSTACK, 0, STACK
        ARGFRAME XSTACK, 22, STACK
        ARGFRAME IOVERLAY, 0, STATIC
        ARGFRAME DOVERLAY, 0, STATIC
        FUNCALL GAPBondMgr_SetParameter, osal_revmemcpy
        LOCFRAME ISTACK, 0, STACK
        LOCFRAME PSTACK, 0, STACK
        LOCFRAME XSTACK, 24, STACK
        LOCFRAME IOVERLAY, 0, STATIC
        LOCFRAME DOVERLAY, 0, STATIC
        ARGFRAME ISTACK, 0, STACK
        ARGFRAME PSTACK, 0, STACK
        ARGFRAME XSTACK, 24, STACK
        ARGFRAME IOVERLAY, 0, STATIC
        ARGFRAME DOVERLAY, 0, STATIC
        FUNCALL GAPBondMgr_SetParameter, GAPBondMgr_ResolveAddr
        LOCFRAME ISTACK, 0, STACK
        LOCFRAME PSTACK, 0, STACK
        LOCFRAME XSTACK, 22, STACK
        LOCFRAME IOVERLAY, 0, STATIC
        LOCFRAME DOVERLAY, 0, STATIC
        ARGFRAME ISTACK, 0, STACK
        ARGFRAME PSTACK, 0, STACK
        ARGFRAME XSTACK, 22, STACK
        ARGFRAME IOVERLAY, 0, STATIC
        ARGFRAME DOVERLAY, 0, STATIC
        FUNCALL GAPBondMgr_SetParameter, GAP_NumActiveConnections
        LOCFRAME ISTACK, 0, STACK
        LOCFRAME PSTACK, 0, STACK
        LOCFRAME XSTACK, 22, STACK
        LOCFRAME IOVERLAY, 0, STATIC
        LOCFRAME DOVERLAY, 0, STATIC
        ARGFRAME ISTACK, 0, STACK
        ARGFRAME PSTACK, 0, STACK
        ARGFRAME XSTACK, 22, STACK
        ARGFRAME IOVERLAY, 0, STATIC
        ARGFRAME DOVERLAY, 0, STATIC
        FUNCALL GAPBondMgr_SetParameter, gapBondMgrEraseBonding
        LOCFRAME ISTACK, 0, STACK
        LOCFRAME PSTACK, 0, STACK
        LOCFRAME XSTACK, 22, STACK
        LOCFRAME IOVERLAY, 0, STATIC
        LOCFRAME DOVERLAY, 0, STATIC
        ARGFRAME ISTACK, 0, STACK
        ARGFRAME PSTACK, 0, STACK
        ARGFRAME XSTACK, 22, STACK
        ARGFRAME IOVERLAY, 0, STATIC
        ARGFRAME DOVERLAY, 0, STATIC
        FUNCALL GAPBondMgr_SetParameter, osal_snv_compact
        LOCFRAME ISTACK, 0, STACK
        LOCFRAME PSTACK, 0, STACK
        LOCFRAME XSTACK, 22, STACK
        LOCFRAME IOVERLAY, 0, STATIC
        LOCFRAME DOVERLAY, 0, STATIC
        ARGFRAME ISTACK, 0, STACK
        ARGFRAME PSTACK, 0, STACK
        ARGFRAME XSTACK, 22, STACK
        ARGFRAME IOVERLAY, 0, STATIC
        ARGFRAME DOVERLAY, 0, STATIC
        FUNCALL GAPBondMgr_SetParameter, gapBondMgrReadBonds
        LOCFRAME ISTACK, 0, STACK
        LOCFRAME PSTACK, 0, STACK
        LOCFRAME XSTACK, 22, STACK
        LOCFRAME IOVERLAY, 0, STATIC
        LOCFRAME DOVERLAY, 0, STATIC
        ARGFRAME ISTACK, 0, STACK
        ARGFRAME PSTACK, 0, STACK
        ARGFRAME XSTACK, 22, STACK
        ARGFRAME IOVERLAY, 0, STATIC
        ARGFRAME DOVERLAY, 0, STATIC
        FUNCALL GAPBondMgr_SetParameter, gapBondMgrReadBonds
        LOCFRAME ISTACK, 0, STACK
        LOCFRAME PSTACK, 0, STACK
        LOCFRAME XSTACK, 22, STACK
        LOCFRAME IOVERLAY, 0, STATIC
        LOCFRAME DOVERLAY, 0, STATIC
        ARGFRAME ISTACK, 0, STACK
        ARGFRAME PSTACK, 0, STACK
        ARGFRAME XSTACK, 22, STACK
        ARGFRAME IOVERLAY, 0, STATIC
        ARGFRAME DOVERLAY, 0, STATIC
        FUNCALL GAPBondMgr_SetParameter, GAP_SetParamValue
        LOCFRAME ISTACK, 0, STACK
        LOCFRAME PSTACK, 0, STACK
        LOCFRAME XSTACK, 22, STACK
        LOCFRAME IOVERLAY, 0, STATIC
        LOCFRAME DOVERLAY, 0, STATIC
        ARGFRAME ISTACK, 0, STACK
        ARGFRAME PSTACK, 0, STACK
        ARGFRAME XSTACK, 22, STACK
        ARGFRAME IOVERLAY, 0, STATIC
        ARGFRAME DOVERLAY, 0, STATIC
        REQUIRE ?V0
        REQUIRE ?V1
        REQUIRE ?V2
        REQUIRE ?V3
        REQUIRE ?V4
        REQUIRE ?V5
        REQUIRE ?V6
        REQUIRE ?V7
        MOV     A,#-0x10
        LCALL   ?BANKED_ENTER_XDATA
          CFI DPH0 load(1, XDATA, add(CFA_XSP16, literal(-1)))
          CFI DPL0 load(1, XDATA, add(CFA_XSP16, literal(-2)))
          CFI ?BRET_EXT load(1, XDATA, add(CFA_XSP16, literal(-3)))
          CFI ?RET_HIGH load(1, XDATA, add(CFA_XSP16, literal(-4)))
          CFI ?RET_LOW load(1, XDATA, add(CFA_XSP16, literal(-5)))
          CFI R7 load(1, XDATA, add(CFA_XSP16, literal(-6)))
          CFI V7 load(1, XDATA, add(CFA_XSP16, literal(-7)))
          CFI V6 load(1, XDATA, add(CFA_XSP16, literal(-8)))
          CFI V5 load(1, XDATA, add(CFA_XSP16, literal(-9)))
          CFI V4 load(1, XDATA, add(CFA_XSP16, literal(-10)))
          CFI V3 load(1, XDATA, add(CFA_XSP16, literal(-11)))
          CFI V2 load(1, XDATA, add(CFA_XSP16, literal(-12)))
          CFI V1 load(1, XDATA, add(CFA_XSP16, literal(-13)))
          CFI V0 load(1, XDATA, add(CFA_XSP16, literal(-14)))
          CFI VB load(1, XDATA, add(CFA_XSP16, literal(-15)))
          CFI R6 load(1, XDATA, add(CFA_XSP16, literal(-16)))
          CFI CFA_SP SP+0
          CFI CFA_XSP16 add(XSP16, 16)
        ; Saved register size: 16
        ; Auto size: 6
        MOV     A,#-0x6
        LCALL   ?ALLOC_XSTACK8
          CFI CFA_XSP16 add(XSP16, 22)
        MOV     ?V0,R1
        MOV     A,R4
        MOV     R6,A
        MOV     A,R5
        MOV     R7,A
//  261   bStatus_t ret = SUCCESS;  // return value
        MOV     ?V1,#0x0
//  262 
//  263   switch ( param )
        MOV     ?V2,R2
        MOV     ?V3,R3
        MOV     R0,#?V2
        LCALL   ?US_SWITCH_DENSE
`?<Jumptable for GAPBondMgr_SetParameter>_0`:
        DATA
        DATA16
        DATA
        DATA16
        DW        1024
        DATA
        DATA8
        DATA
        DATA8
        DB        16
        DATA
        DATA16
        DATA
        DATA16
        DW        ??GAPBondMgr_SetParameter_0
        DATA
        DATA16
        DATA
        DATA16
        DW        ??GAPBondMgr_SetParameter_1
        DATA
        DATA16
        DATA
        DATA16
        DW        ??GAPBondMgr_SetParameter_2
        DATA
        DATA16
        DATA
        DATA16
        DW        ??GAPBondMgr_SetParameter_3
        DATA
        DATA16
        DATA
        DATA16
        DW        ??GAPBondMgr_SetParameter_4
        DATA
        DATA16
        DATA
        DATA16
        DW        ??GAPBondMgr_SetParameter_5
        DATA
        DATA16
        DATA
        DATA16
        DW        ??GAPBondMgr_SetParameter_6
        DATA
        DATA16
        DATA
        DATA16
        DW        ??GAPBondMgr_SetParameter_7
        DATA
        DATA16
        DATA
        DATA16
        DW        ??GAPBondMgr_SetParameter_8
        DATA
        DATA16
        DATA
        DATA16
        DW        ??GAPBondMgr_SetParameter_9
        DATA
        DATA16
        DATA
        DATA16
        DW        ??GAPBondMgr_SetParameter_10
        DATA
        DATA16
        DATA
        DATA16
        DW        ??GAPBondMgr_SetParameter_11
        DATA
        DATA16
        DATA
        DATA16
        DW        ??GAPBondMgr_SetParameter_12
        DATA
        DATA16
        DATA
        DATA16
        DW        ??GAPBondMgr_SetParameter_13
        DATA
        DATA16
        DATA
        DATA16
        DW        ??GAPBondMgr_SetParameter_14
        DATA
        DATA16
        DATA
        DATA16
        DW        ??GAPBondMgr_SetParameter_0
        DATA
        DATA16
        DATA
        DATA16
        DW        ??GAPBondMgr_SetParameter_15
        DATA
        DATA16
        DATA
        DATA16
        DW        ??GAPBondMgr_SetParameter_16
        CODE
//  264   {
//  265     case GAPBOND_PAIRING_MODE:
//  266       if ( (len == sizeof ( uint8 )) && (*((uint8*)pValue) <= GAPBOND_PAIRING_MODE_INITIATE) )
??GAPBondMgr_SetParameter_1:
        MOV     A,#0x1
        XRL     A,?V0
        JZ      $+5
        LJMP    ??GAPBondMgr_SetParameter_17 & 0xFFFF
        MOV     DPL,R6
        MOV     DPH,R7
        MOVX    A,@DPTR
        MOV     R0,A
        CLR     C
        SUBB    A,#0x3
        JC      $+5
        LJMP    ??GAPBondMgr_SetParameter_17 & 0xFFFF
//  267       {
//  268         gapBond_PairingMode = *((uint8*)pValue);
        MOV     A,R0
        MOV     DPTR,#gapBond_PairingMode
        LJMP    ??GAPBondMgr_SetParameter_18 & 0xFFFF
//  269       }
//  270       else
//  271       {
//  272         ret = bleInvalidRange;
//  273       }
//  274       break;
//  275 
//  276     case GAPBOND_INITIATE_WAIT:
//  277       if ( len == sizeof ( uint16 ) )
??GAPBondMgr_SetParameter_2:
        MOV     A,#0x2
        XRL     A,?V0
        JZ      $+5
        LJMP    ??GAPBondMgr_SetParameter_17 & 0xFFFF
//  278       {
//  279         gapBond_InitiateWait = *((uint16*)pValue);
        MOV     DPL,R6
        MOV     DPH,R7
        LCALL   ??Subroutine26_0 & 0xFFFF
//  280       }
??CrossCallReturnLabel_77:
        MOV     DPTR,#gapBond_InitiateWait
        MOV     A,R0
        MOVX    @DPTR,A
        INC     DPTR
        MOV     A,R1
        LJMP    ??GAPBondMgr_SetParameter_18 & 0xFFFF
//  281       else
//  282       {
//  283         ret = bleInvalidRange;
//  284       }
//  285       break;
//  286 
//  287     case GAPBOND_MITM_PROTECTION:
//  288       if ( (len == sizeof ( uint8 )) && (*((uint8*)pValue) <= TRUE) )
??GAPBondMgr_SetParameter_3:
        MOV     A,#0x1
        XRL     A,?V0
        JZ      $+5
        LJMP    ??GAPBondMgr_SetParameter_17 & 0xFFFF
        LCALL   ?Subroutine14 & 0xFFFF
??CrossCallReturnLabel_12:
        JC      $+5
        LJMP    ??GAPBondMgr_SetParameter_17 & 0xFFFF
//  289       {
//  290         gapBond_MITM = *((uint8*)pValue);
        MOV     A,R0
        MOV     DPTR,#gapBond_MITM
        LJMP    ??GAPBondMgr_SetParameter_18 & 0xFFFF
//  291       }
//  292       else
//  293       {
//  294         ret = bleInvalidRange;
//  295       }
//  296       break;
//  297 
//  298     case GAPBOND_IO_CAPABILITIES:
//  299       if ( (len == sizeof ( uint8 )) && (*((uint8*)pValue) <= GAPBOND_IO_CAP_KEYBOARD_DISPLAY) )
??GAPBondMgr_SetParameter_4:
        MOV     A,#0x1
        XRL     A,?V0
        JZ      $+5
        LJMP    ??GAPBondMgr_SetParameter_17 & 0xFFFF
        MOV     DPL,R6
        MOV     DPH,R7
        MOVX    A,@DPTR
        MOV     R0,A
        CLR     C
        SUBB    A,#0x5
        JC      $+5
        LJMP    ??GAPBondMgr_SetParameter_17 & 0xFFFF
//  300       {
//  301         gapBond_IOCap = *((uint8*)pValue);
        MOV     A,R0
        MOV     DPTR,#gapBond_IOCap
        LJMP    ??GAPBondMgr_SetParameter_18 & 0xFFFF
//  302       }
//  303       else
//  304       {
//  305         ret = bleInvalidRange;
//  306       }
//  307       break;
//  308 
//  309     case GAPBOND_OOB_ENABLED:
//  310       if ( (len == sizeof ( uint8 )) && (*((uint8*)pValue) <= TRUE) )
??GAPBondMgr_SetParameter_5:
        MOV     A,#0x1
        XRL     A,?V0
        JZ      $+5
        LJMP    ??GAPBondMgr_SetParameter_17 & 0xFFFF
        LCALL   ?Subroutine14 & 0xFFFF
??CrossCallReturnLabel_13:
        JC      $+5
        LJMP    ??GAPBondMgr_SetParameter_17 & 0xFFFF
//  311       {
//  312         gapBond_OOBDataFlag = *((uint8*)pValue);
        MOV     A,R0
        MOV     DPTR,#gapBond_OOBDataFlag
        LJMP    ??GAPBondMgr_SetParameter_18 & 0xFFFF
//  313       }
//  314       else
//  315       {
//  316         ret = bleInvalidRange;
//  317       }
//  318       break;
//  319 
//  320     case GAPBOND_OOB_DATA:
//  321       if ( len == KEYLEN )
??GAPBondMgr_SetParameter_6:
        MOV     A,#0x10
        XRL     A,?V0
        JZ      $+5
        LJMP    ??GAPBondMgr_SetParameter_17 & 0xFFFF
//  322       {
//  323         VOID osal_memcpy( gapBond_OOBData, pValue, KEYLEN ) ;
        ; Setup parameters for call to function osal_memcpy
        MOV     ?V2,#0x10
        MOV     ?V3,#0x0
        MOV     R0,#?V2
        LCALL   ?PUSH_XSTACK_I_TWO
          CFI CFA_XSP16 add(XSP16, 24)
        MOV     R2,#gapBond_OOBData & 0xff
        MOV     R3,#(gapBond_OOBData >> 8) & 0xff
        LCALL   ??osal_memcpy?relay  ; Banked call to: osal_memcpy
        MOV     A,#0x2
        LCALL   ?DEALLOC_XSTACK8
          CFI CFA_XSP16 add(XSP16, 22)
        LJMP    ??GAPBondMgr_SetParameter_19 & 0xFFFF
//  324       }
//  325       else
//  326       {
//  327         ret = bleInvalidRange;
//  328       }
//  329       break;
//  330 
//  331     case GAPBOND_BONDING_ENABLED:
//  332       if ( (len == sizeof ( uint8 )) && (*((uint8*)pValue) <= TRUE) )
??GAPBondMgr_SetParameter_7:
        MOV     A,#0x1
        XRL     A,?V0
        JZ      $+5
        LJMP    ??GAPBondMgr_SetParameter_17 & 0xFFFF
        LCALL   ?Subroutine14 & 0xFFFF
??CrossCallReturnLabel_14:
        JC      $+5
        LJMP    ??GAPBondMgr_SetParameter_17 & 0xFFFF
//  333       {
//  334         gapBond_Bonding = *((uint8*)pValue);
        MOV     A,R0
        MOV     DPTR,#gapBond_Bonding
        LJMP    ??GAPBondMgr_SetParameter_18 & 0xFFFF
//  335       }
//  336       else
//  337       {
//  338         ret = bleInvalidRange;
//  339       }
//  340       break;
//  341 
//  342     case GAPBOND_KEY_DIST_LIST:
//  343       if ( len == sizeof ( uint8 ) )
??GAPBondMgr_SetParameter_8:
        MOV     A,#0x1
        XRL     A,?V0
        JZ      $+5
        LJMP    ??GAPBondMgr_SetParameter_17 & 0xFFFF
//  344       {
//  345         gapBond_KeyDistList = *((uint8*)pValue);
        MOV     DPL,R6
        MOV     DPH,R7
        MOVX    A,@DPTR
        MOV     DPTR,#gapBond_KeyDistList
        LJMP    ??GAPBondMgr_SetParameter_18 & 0xFFFF
//  346       }
//  347       else
//  348       {
//  349         ret = bleInvalidRange;
//  350       }
//  351       break;
//  352 
//  353     case GAPBOND_DEFAULT_PASSCODE:
//  354       if ( (len == sizeof ( uint32 ))
//  355           && (*((uint32*)pValue) <= GAP_PASSCODE_MAX) )
??GAPBondMgr_SetParameter_9:
        MOV     A,#0x4
        XRL     A,?V0
        JZ      $+5
        LJMP    ??GAPBondMgr_SetParameter_17 & 0xFFFF
        MOV     DPL,R6
        MOV     DPH,R7
        MOV     R0,#?V4
        LCALL   ?L_MOV_X
        MOV     DPTR,#__Constant_f4240
        MOV     R0,#?V4
        LCALL   ?UL_GE_X
        JNC     $+5
        LJMP    ??GAPBondMgr_SetParameter_17 & 0xFFFF
//  356       {
//  357         gapBond_Passcode = *((uint32*)pValue);
        MOV     DPTR,#gapBond_Passcode
        MOV     R0,#?V4
        LCALL   ?L_MOV_TO_X
        LJMP    ??GAPBondMgr_SetParameter_19 & 0xFFFF
//  358       }
//  359       else
//  360       {
//  361         ret = bleInvalidRange;
//  362       }
//  363       break;
//  364 
//  365     case GAPBOND_ERASE_ALLBONDS:
//  366       if ( len == 0 )
??GAPBondMgr_SetParameter_10:
        MOV     A,R1
        JZ      $+5
        LJMP    ??GAPBondMgr_SetParameter_17 & 0xFFFF
//  367       {
//  368         // Make sure there's no active connection
//  369         if ( GAP_NumActiveConnections() == 0 )
        ; Setup parameters for call to function GAP_NumActiveConnections
        LCALL   ??GAP_NumActiveConnections?relay; Banked call to: GAP_NumActiveConnections
        MOV     A,R1
        JNZ     ??GAPBondMgr_SetParameter_20
//  370         {
//  371           // Erase all bonding records
//  372           VOID gapBondMgrEraseAllBondings();
        ; Setup parameters for call to function gapBondMgrEraseAllBondings
        LCALL   ??gapBondMgrEraseAllBondings?relay; Banked call to: gapBondMgrEraseAllBondings
//  373 
//  374           // See if NV needs a compaction
//  375           VOID osal_snv_compact( NV_COMPACT_THRESHOLD );
        ; Setup parameters for call to function osal_snv_compact
        SJMP    ??GAPBondMgr_SetParameter_21
//  376 
//  377           // Make sure Bond RAM Shadow is up-to-date
//  378           gapBondMgrReadBonds();
//  379         }
//  380         else
//  381         {
//  382           eraseAllBonds = TRUE;
??GAPBondMgr_SetParameter_20:
        MOV     DPTR,#eraseAllBonds
        SJMP    ??GAPBondMgr_SetParameter_22
//  383         }
//  384       }
//  385       else
//  386       {
//  387         ret = bleInvalidRange;
//  388       }
//  389       break;
//  390 
//  391     case GAPBOND_ERASE_SINGLEBOND:
//  392       if ( len == (1 + B_ADDR_LEN) )
??GAPBondMgr_SetParameter_16:
        MOV     A,#0x7
        XRL     A,?V0
        JZ      $+5
        LJMP    ??GAPBondMgr_SetParameter_17 & 0xFFFF
//  393       {
//  394         uint8 idx;
//  395         uint8 devAddr[B_ADDR_LEN];
//  396 
//  397         // Reverse bytes
//  398         VOID osal_revmemcpy( devAddr, (uint8 *)pValue+1, B_ADDR_LEN );
        ; Setup parameters for call to function osal_revmemcpy
        MOV     ?V2,#0x6
        MOV     ?V3,#0x0
        MOV     R0,#?V2
        LCALL   ?PUSH_XSTACK_I_TWO
          CFI CFA_XSP16 add(XSP16, 24)
        MOV     DPL,R6
        MOV     DPH,R7
        INC     DPTR
        MOV     R4,DPL
        MOV     R5,DPH
        MOV     A,#0x2
        LCALL   ?XSTACK_DISP101_8
        LCALL   ??osal_revmemcpy?relay; Banked call to: osal_revmemcpy
        MOV     A,#0x2
        LCALL   ?DEALLOC_XSTACK8
          CFI CFA_XSP16 add(XSP16, 22)
//  399         
//  400         // Resolve address and find index
//  401         idx = GAPBondMgr_ResolveAddr( *((uint8 *)pValue), devAddr, NULL );
        ; Setup parameters for call to function GAPBondMgr_ResolveAddr
        MOV     R4,#0x0
        MOV     R5,#0x0
        MOV     R2,?XSP + 0
        MOV     R3,?XSP + 1
        MOV     DPL,R6
        MOV     DPH,R7
        MOVX    A,@DPTR
        MOV     R1,A
        LCALL   ??GAPBondMgr_ResolveAddr?relay; Banked call to: GAPBondMgr_ResolveAddr
        MOV     A,R1
        MOV     ?V2,A
//  402         if ( idx < GAP_BONDINGS_MAX )
        CLR     C
        SUBB    A,#0xa
        JC      $+5
        LJMP    ??GAPBondMgr_SetParameter_23 & 0xFFFF
//  403         {
//  404           // Make sure there's no active connection
//  405           if ( GAP_NumActiveConnections() == 0 )
        ; Setup parameters for call to function GAP_NumActiveConnections
        LCALL   ??GAP_NumActiveConnections?relay; Banked call to: GAP_NumActiveConnections
        MOV     A,R1
        JNZ     ??GAPBondMgr_SetParameter_24
//  406           {
//  407             // Erase bond
//  408             VOID gapBondMgrEraseBonding( idx );
        ; Setup parameters for call to function gapBondMgrEraseBonding
        MOV     R1,?V2
        LCALL   ??gapBondMgrEraseBonding?relay; Banked call to: gapBondMgrEraseBonding
//  409             
//  410             // See if NV needs a compaction
//  411             VOID osal_snv_compact( NV_COMPACT_THRESHOLD );
        ; Setup parameters for call to function osal_snv_compact
??GAPBondMgr_SetParameter_21:
        MOV     R1,#0x50
        LCALL   ??osal_snv_compact?relay; Banked call to: osal_snv_compact
//  412             
//  413             // Make sure Bond RAM Shadow is up-to-date
//  414             gapBondMgrReadBonds();
        ; Setup parameters for call to function gapBondMgrReadBonds
        SJMP    ??GAPBondMgr_SetParameter_25
//  415           }
//  416           else
//  417           {
//  418             // Mark entry to be deleted when disconnected
//  419             bondsToDelete[idx] = TRUE;
??GAPBondMgr_SetParameter_24:
        MOV     A,#bondsToDelete & 0xff
        ADD     A,?V2
        MOV     DPL,A
        CLR     A
        ADDC    A,#(bondsToDelete >> 8) & 0xff
        MOV     DPH,A
??GAPBondMgr_SetParameter_22:
        MOV     A,#0x1
        SJMP    ??GAPBondMgr_SetParameter_18
//  420           }
//  421         }
//  422         else
//  423         {
//  424           ret = INVALIDPARAMETER;
//  425         }
//  426       }
//  427       else
//  428       {
//  429         // Parameter is not the correct length
//  430         ret = bleInvalidRange;
//  431       }
//  432       break;
//  433       
//  434     case GAPBOND_AUTO_FAIL_PAIRING:
//  435       if ( (len == sizeof ( uint8 )) && (*((uint8*)pValue) <= TRUE) )
??GAPBondMgr_SetParameter_11:
        MOV     A,#0x1
        XRL     A,?V0
        JNZ     ??GAPBondMgr_SetParameter_17
        LCALL   ?Subroutine14 & 0xFFFF
??CrossCallReturnLabel_15:
        JNC     ??GAPBondMgr_SetParameter_17
//  436       {
//  437         gapBond_AutoFail = *((uint8*)pValue);
        MOV     A,R0
        MOV     DPTR,#gapBond_AutoFail
        SJMP    ??GAPBondMgr_SetParameter_18
//  438       }
//  439       else
//  440       {
//  441         ret = bleInvalidRange;
//  442       }
//  443       break;
//  444 
//  445     case GAPBOND_AUTO_FAIL_REASON:
//  446       if ( (len == sizeof ( uint8 )) && (*((uint8*)pValue) <= SMP_PAIRING_FAILED_REPEATED_ATTEMPTS) )
??GAPBondMgr_SetParameter_12:
        MOV     A,#0x1
        XRL     A,?V0
        JNZ     ??GAPBondMgr_SetParameter_17
        MOV     DPL,R6
        MOV     DPH,R7
        MOVX    A,@DPTR
        MOV     R0,A
        CLR     C
        SUBB    A,#0xa
        JNC     ??GAPBondMgr_SetParameter_17
//  447       {
//  448         gapBond_AutoFailReason = *((uint8*)pValue);
        MOV     A,R0
        MOV     DPTR,#gapBond_AutoFailReason
        SJMP    ??GAPBondMgr_SetParameter_18
//  449       }
//  450       else
//  451       {
//  452         ret = bleInvalidRange;
//  453       }
//  454       break;
//  455 
//  456     case GAPBOND_KEYSIZE:
//  457       if ( (len == sizeof ( uint8 ))
//  458           && ((*((uint8*)pValue) >= MIN_ENC_KEYSIZE) && (*((uint8*)pValue) <= MAX_ENC_KEYSIZE)) )
??GAPBondMgr_SetParameter_13:
        MOV     A,#0x1
        XRL     A,?V0
        JNZ     ??GAPBondMgr_SetParameter_17
        MOV     DPL,R6
        MOV     DPH,R7
        MOVX    A,@DPTR
        MOV     R0,A
        MOV     A,#-0x7
        ADD     A,R0
        CLR     C
        SUBB    A,#0xa
        JNC     ??GAPBondMgr_SetParameter_17
//  459       {
//  460         gapBond_KeySize = *((uint8*)pValue);
        MOV     A,R0
        MOV     DPTR,#gapBond_KeySize
        SJMP    ??GAPBondMgr_SetParameter_18
//  461       }
//  462       else
//  463       {
//  464         ret = bleInvalidRange;
//  465       }
//  466       break;
//  467 
//  468     case GAPBOND_AUTO_SYNC_WL:
//  469       if ( len == sizeof( uint8 ) )
??GAPBondMgr_SetParameter_14:
        MOV     A,#0x1
        XRL     A,?V0
        JNZ     ??GAPBondMgr_SetParameter_17
//  470       {
//  471         uint8 oldVal = autoSyncWhiteList;
        MOV     DPTR,#autoSyncWhiteList
        MOVX    A,@DPTR
        MOV     R0,A
//  472 
//  473         autoSyncWhiteList = *((uint8 *)pValue);
        MOV     DPL,R6
        MOV     DPH,R7
        MOVX    A,@DPTR
        MOV     DPTR,#autoSyncWhiteList
        MOVX    @DPTR,A
//  474 
//  475         // only call if parameter changes from FALSE to TRUE
//  476         if ( ( oldVal == FALSE ) && ( autoSyncWhiteList == TRUE ) )
        MOV     A,R0
        JNZ     ??GAPBondMgr_SetParameter_19
        MOVX    A,@DPTR
        XRL     A,#0x1
        JNZ     ??GAPBondMgr_SetParameter_19
//  477         {
//  478           // make sure bond is updated from NV
//  479           gapBondMgrReadBonds();
        ; Setup parameters for call to function gapBondMgrReadBonds
??GAPBondMgr_SetParameter_25:
        LCALL   ??gapBondMgrReadBonds?relay; Banked call to: gapBondMgrReadBonds
        SJMP    ??GAPBondMgr_SetParameter_19
//  480         }
//  481       }
//  482       else
//  483       {
//  484         ret = bleInvalidRange;
//  485       }
//  486       break;
//  487 
//  488 #if ( HOST_CONFIG & CENTRAL_CFG )
//  489     case GAPBOND_BOND_FAIL_ACTION:
//  490       if ( (len == sizeof ( uint8 )) && (*((uint8*)pValue) <= GAPBOND_FAIL_TERMINATE_ERASE_BONDS) )
??GAPBondMgr_SetParameter_15:
        MOV     A,#0x1
        XRL     A,?V0
        JNZ     ??GAPBondMgr_SetParameter_17
        MOV     DPL,R6
        MOV     DPH,R7
        MOVX    A,@DPTR
        MOV     R0,A
        CLR     C
        SUBB    A,#0x4
        JNC     ??GAPBondMgr_SetParameter_17
//  491       {
//  492         gapBond_BondFailOption = *((uint8*)pValue);
        MOV     A,R0
        MOV     DPTR,#gapBond_BondFailOption
??GAPBondMgr_SetParameter_18:
        MOVX    @DPTR,A
        SJMP    ??GAPBondMgr_SetParameter_19
//  493       }
//  494       else
//  495       {
//  496         ret = bleInvalidRange;
??GAPBondMgr_SetParameter_17:
        MOV     ?V1,#0x18
        SJMP    ??GAPBondMgr_SetParameter_19
//  497       }
//  498       break;
//  499 #endif
//  500 
//  501     default:
//  502       // The param value isn't part of this profile, try the GAP.
//  503       if ( (param < TGAP_PARAMID_MAX) && (len == sizeof ( uint16 )) )
??GAPBondMgr_SetParameter_0:
        CLR     C
        MOV     A,R2
        SUBB    A,#0x27
        MOV     A,R3
        SUBB    A,#0x0
        JNC     ??GAPBondMgr_SetParameter_23
        MOV     A,#0x2
        XRL     A,?V0
        JNZ     ??GAPBondMgr_SetParameter_23
//  504       {
//  505         ret = GAP_SetParamValue( param, *((uint16*)pValue) );
        ; Setup parameters for call to function GAP_SetParamValue
        MOV     DPL,R6
        MOV     DPH,R7
        LCALL   ?Subroutine24 & 0xFFFF
//  506       }
??CrossCallReturnLabel_45:
        LCALL   ??GAP_SetParamValue?relay; Banked call to: GAP_SetParamValue
        MOV     A,R1
        MOV     ?V1,A
        SJMP    ??GAPBondMgr_SetParameter_19
//  507       else
//  508       {
//  509         ret = INVALIDPARAMETER;
??GAPBondMgr_SetParameter_23:
        MOV     ?V1,#0x2
//  510       }
//  511       break;
//  512   }
//  513 
//  514   return ( ret );
??GAPBondMgr_SetParameter_19:
        MOV     R1,?V1
        MOV     A,#0x6
          CFI EndBlock cfiBlock0
        REQUIRE ?Subroutine0
        ; // Fall through to label ?Subroutine0
//  515 }

        RSEG BANKED_CODE:CODE:NOROOT(0)
?Subroutine0:
          CFI Block cfiBlock1 Using cfiCommon0
          CFI NoFunction
          CFI CFA_SP SP+0
          CFI CFA_XSP16 add(XSP16, 22)
          CFI VB load(1, XDATA, add(CFA_XSP16, literal(-15)))
          CFI DPL0 load(1, XDATA, add(CFA_XSP16, literal(-2)))
          CFI DPH0 load(1, XDATA, add(CFA_XSP16, literal(-1)))
          CFI R6 load(1, XDATA, add(CFA_XSP16, literal(-16)))
          CFI R7 load(1, XDATA, add(CFA_XSP16, literal(-6)))
          CFI V0 load(1, XDATA, add(CFA_XSP16, literal(-14)))
          CFI V1 load(1, XDATA, add(CFA_XSP16, literal(-13)))
          CFI V2 load(1, XDATA, add(CFA_XSP16, literal(-12)))
          CFI V3 load(1, XDATA, add(CFA_XSP16, literal(-11)))
          CFI V4 load(1, XDATA, add(CFA_XSP16, literal(-10)))
          CFI V5 load(1, XDATA, add(CFA_XSP16, literal(-9)))
          CFI V6 load(1, XDATA, add(CFA_XSP16, literal(-8)))
          CFI V7 load(1, XDATA, add(CFA_XSP16, literal(-7)))
          CFI ?BRET_EXT load(1, XDATA, add(CFA_XSP16, literal(-3)))
          CFI ?RET_HIGH load(1, XDATA, add(CFA_XSP16, literal(-4)))
          CFI ?RET_LOW load(1, XDATA, add(CFA_XSP16, literal(-5)))
          CFI Invalid
        LCALL   ?DEALLOC_XSTACK8
          CFI CFA_XSP16 add(XSP16, 16)
          CFI Valid
        MOV     R7,#0x8
        LJMP    ?BANKED_LEAVE_XDATA
          CFI EndBlock cfiBlock1

        RSEG BANKED_CODE:CODE:NOROOT(0)
?Subroutine14:
          CFI Block cfiCond2 Using cfiCommon0
          CFI Function GAPBondMgr_SetParameter
          CFI Conditional ??CrossCallReturnLabel_12
          CFI R6 load(1, XDATA, add(CFA_XSP16, literal(-16)))
          CFI VB load(1, XDATA, add(CFA_XSP16, literal(-15)))
          CFI V0 load(1, XDATA, add(CFA_XSP16, literal(-14)))
          CFI V1 load(1, XDATA, add(CFA_XSP16, literal(-13)))
          CFI V2 load(1, XDATA, add(CFA_XSP16, literal(-12)))
          CFI V3 load(1, XDATA, add(CFA_XSP16, literal(-11)))
          CFI V4 load(1, XDATA, add(CFA_XSP16, literal(-10)))
          CFI V5 load(1, XDATA, add(CFA_XSP16, literal(-9)))
          CFI V6 load(1, XDATA, add(CFA_XSP16, literal(-8)))
          CFI V7 load(1, XDATA, add(CFA_XSP16, literal(-7)))
          CFI R7 load(1, XDATA, add(CFA_XSP16, literal(-6)))
          CFI ?RET_LOW load(1, XDATA, add(CFA_XSP16, literal(-5)))
          CFI ?RET_HIGH load(1, XDATA, add(CFA_XSP16, literal(-4)))
          CFI ?BRET_EXT load(1, XDATA, add(CFA_XSP16, literal(-3)))
          CFI DPL0 load(1, XDATA, add(CFA_XSP16, literal(-2)))
          CFI DPH0 load(1, XDATA, add(CFA_XSP16, literal(-1)))
          CFI CFA_SP SP+-2
          CFI CFA_XSP16 add(XSP16, 22)
          CFI Block cfiCond3 Using cfiCommon0
          CFI (cfiCond3) Function GAPBondMgr_SetParameter
          CFI (cfiCond3) Conditional ??CrossCallReturnLabel_13
          CFI (cfiCond3) R6 load(1, XDATA, add(CFA_XSP16, literal(-16)))
          CFI (cfiCond3) VB load(1, XDATA, add(CFA_XSP16, literal(-15)))
          CFI (cfiCond3) V0 load(1, XDATA, add(CFA_XSP16, literal(-14)))
          CFI (cfiCond3) V1 load(1, XDATA, add(CFA_XSP16, literal(-13)))
          CFI (cfiCond3) V2 load(1, XDATA, add(CFA_XSP16, literal(-12)))
          CFI (cfiCond3) V3 load(1, XDATA, add(CFA_XSP16, literal(-11)))
          CFI (cfiCond3) V4 load(1, XDATA, add(CFA_XSP16, literal(-10)))
          CFI (cfiCond3) V5 load(1, XDATA, add(CFA_XSP16, literal(-9)))
          CFI (cfiCond3) V6 load(1, XDATA, add(CFA_XSP16, literal(-8)))
          CFI (cfiCond3) V7 load(1, XDATA, add(CFA_XSP16, literal(-7)))
          CFI (cfiCond3) R7 load(1, XDATA, add(CFA_XSP16, literal(-6)))
          CFI (cfiCond3) ?RET_LOW load(1, XDATA, add(CFA_XSP16, literal(-5)))
          CFI (cfiCond3) ?RET_HIGH load(1, XDATA, add(CFA_XSP16, literal(-4)))
          CFI (cfiCond3) ?BRET_EXT load(1, XDATA, add(CFA_XSP16, literal(-3)))
          CFI (cfiCond3) DPL0 load(1, XDATA, add(CFA_XSP16, literal(-2)))
          CFI (cfiCond3) DPH0 load(1, XDATA, add(CFA_XSP16, literal(-1)))
          CFI (cfiCond3) CFA_SP SP+-2
          CFI (cfiCond3) CFA_XSP16 add(XSP16, 22)
          CFI Block cfiCond4 Using cfiCommon0
          CFI (cfiCond4) Function GAPBondMgr_SetParameter
          CFI (cfiCond4) Conditional ??CrossCallReturnLabel_14
          CFI (cfiCond4) R6 load(1, XDATA, add(CFA_XSP16, literal(-16)))
          CFI (cfiCond4) VB load(1, XDATA, add(CFA_XSP16, literal(-15)))
          CFI (cfiCond4) V0 load(1, XDATA, add(CFA_XSP16, literal(-14)))
          CFI (cfiCond4) V1 load(1, XDATA, add(CFA_XSP16, literal(-13)))
          CFI (cfiCond4) V2 load(1, XDATA, add(CFA_XSP16, literal(-12)))
          CFI (cfiCond4) V3 load(1, XDATA, add(CFA_XSP16, literal(-11)))
          CFI (cfiCond4) V4 load(1, XDATA, add(CFA_XSP16, literal(-10)))
          CFI (cfiCond4) V5 load(1, XDATA, add(CFA_XSP16, literal(-9)))
          CFI (cfiCond4) V6 load(1, XDATA, add(CFA_XSP16, literal(-8)))
          CFI (cfiCond4) V7 load(1, XDATA, add(CFA_XSP16, literal(-7)))
          CFI (cfiCond4) R7 load(1, XDATA, add(CFA_XSP16, literal(-6)))
          CFI (cfiCond4) ?RET_LOW load(1, XDATA, add(CFA_XSP16, literal(-5)))
          CFI (cfiCond4) ?RET_HIGH load(1, XDATA, add(CFA_XSP16, literal(-4)))
          CFI (cfiCond4) ?BRET_EXT load(1, XDATA, add(CFA_XSP16, literal(-3)))
          CFI (cfiCond4) DPL0 load(1, XDATA, add(CFA_XSP16, literal(-2)))
          CFI (cfiCond4) DPH0 load(1, XDATA, add(CFA_XSP16, literal(-1)))
          CFI (cfiCond4) CFA_SP SP+-2
          CFI (cfiCond4) CFA_XSP16 add(XSP16, 22)
          CFI Block cfiCond5 Using cfiCommon0
          CFI (cfiCond5) Function GAPBondMgr_SetParameter
          CFI (cfiCond5) Conditional ??CrossCallReturnLabel_15
          CFI (cfiCond5) R6 load(1, XDATA, add(CFA_XSP16, literal(-16)))
          CFI (cfiCond5) VB load(1, XDATA, add(CFA_XSP16, literal(-15)))
          CFI (cfiCond5) V0 load(1, XDATA, add(CFA_XSP16, literal(-14)))
          CFI (cfiCond5) V1 load(1, XDATA, add(CFA_XSP16, literal(-13)))
          CFI (cfiCond5) V2 load(1, XDATA, add(CFA_XSP16, literal(-12)))
          CFI (cfiCond5) V3 load(1, XDATA, add(CFA_XSP16, literal(-11)))
          CFI (cfiCond5) V4 load(1, XDATA, add(CFA_XSP16, literal(-10)))
          CFI (cfiCond5) V5 load(1, XDATA, add(CFA_XSP16, literal(-9)))
          CFI (cfiCond5) V6 load(1, XDATA, add(CFA_XSP16, literal(-8)))
          CFI (cfiCond5) V7 load(1, XDATA, add(CFA_XSP16, literal(-7)))
          CFI (cfiCond5) R7 load(1, XDATA, add(CFA_XSP16, literal(-6)))
          CFI (cfiCond5) ?RET_LOW load(1, XDATA, add(CFA_XSP16, literal(-5)))
          CFI (cfiCond5) ?RET_HIGH load(1, XDATA, add(CFA_XSP16, literal(-4)))
          CFI (cfiCond5) ?BRET_EXT load(1, XDATA, add(CFA_XSP16, literal(-3)))
          CFI (cfiCond5) DPL0 load(1, XDATA, add(CFA_XSP16, literal(-2)))
          CFI (cfiCond5) DPH0 load(1, XDATA, add(CFA_XSP16, literal(-1)))
          CFI (cfiCond5) CFA_SP SP+-2
          CFI (cfiCond5) CFA_XSP16 add(XSP16, 22)
          CFI Block cfiPicker6 Using cfiCommon1
          CFI (cfiPicker6) NoFunction
          CFI (cfiPicker6) Picker
        MOV     DPL,R6
        MOV     DPH,R7
        MOVX    A,@DPTR
        MOV     R0,A
        CLR     C
        SUBB    A,#0x2
        RET
          CFI EndBlock cfiCond2
          CFI EndBlock cfiCond3
          CFI EndBlock cfiCond4
          CFI EndBlock cfiCond5
          CFI EndBlock cfiPicker6
//  516 
//  517 /*********************************************************************
//  518  * @brief   Get a GAP Bond Manager parameter.
//  519  *
//  520  * Public function defined in gapbondmgr.h.
//  521  */

        RSEG BANKED_CODE:CODE:NOROOT(0)
//  522 bStatus_t GAPBondMgr_GetParameter( uint16 param, void *pValue )
GAPBondMgr_GetParameter:
          CFI Block cfiBlock7 Using cfiCommon0
          CFI Function GAPBondMgr_GetParameter
        CODE
//  523 {
        FUNCALL GAPBondMgr_GetParameter, osal_memcpy
        LOCFRAME ISTACK, 0, STACK
        LOCFRAME PSTACK, 0, STACK
        LOCFRAME XSTACK, 14, STACK
        LOCFRAME IOVERLAY, 0, STATIC
        LOCFRAME DOVERLAY, 0, STATIC
        ARGFRAME ISTACK, 0, STACK
        ARGFRAME PSTACK, 0, STACK
        ARGFRAME XSTACK, 14, STACK
        ARGFRAME IOVERLAY, 0, STATIC
        ARGFRAME DOVERLAY, 0, STATIC
        FUNCALL GAPBondMgr_GetParameter, gapBondMgrBondTotal
        LOCFRAME ISTACK, 0, STACK
        LOCFRAME PSTACK, 0, STACK
        LOCFRAME XSTACK, 12, STACK
        LOCFRAME IOVERLAY, 0, STATIC
        LOCFRAME DOVERLAY, 0, STATIC
        ARGFRAME ISTACK, 0, STACK
        ARGFRAME PSTACK, 0, STACK
        ARGFRAME XSTACK, 12, STACK
        ARGFRAME IOVERLAY, 0, STATIC
        ARGFRAME DOVERLAY, 0, STATIC
        FUNCALL GAPBondMgr_GetParameter, GAP_GetParamValue
        LOCFRAME ISTACK, 0, STACK
        LOCFRAME PSTACK, 0, STACK
        LOCFRAME XSTACK, 12, STACK
        LOCFRAME IOVERLAY, 0, STATIC
        LOCFRAME DOVERLAY, 0, STATIC
        ARGFRAME ISTACK, 0, STACK
        ARGFRAME PSTACK, 0, STACK
        ARGFRAME XSTACK, 12, STACK
        ARGFRAME IOVERLAY, 0, STATIC
        ARGFRAME DOVERLAY, 0, STATIC
        REQUIRE ?V0
        REQUIRE ?V2
        REQUIRE ?V3
        MOV     A,#-0xc
        LCALL   ?BANKED_ENTER_XDATA
          CFI DPH0 load(1, XDATA, add(CFA_XSP16, literal(-1)))
          CFI DPL0 load(1, XDATA, add(CFA_XSP16, literal(-2)))
          CFI ?BRET_EXT load(1, XDATA, add(CFA_XSP16, literal(-3)))
          CFI ?RET_HIGH load(1, XDATA, add(CFA_XSP16, literal(-4)))
          CFI ?RET_LOW load(1, XDATA, add(CFA_XSP16, literal(-5)))
          CFI R7 load(1, XDATA, add(CFA_XSP16, literal(-6)))
          CFI V3 load(1, XDATA, add(CFA_XSP16, literal(-7)))
          CFI V2 load(1, XDATA, add(CFA_XSP16, literal(-8)))
          CFI V1 load(1, XDATA, add(CFA_XSP16, literal(-9)))
          CFI V0 load(1, XDATA, add(CFA_XSP16, literal(-10)))
          CFI VB load(1, XDATA, add(CFA_XSP16, literal(-11)))
          CFI R6 load(1, XDATA, add(CFA_XSP16, literal(-12)))
          CFI CFA_SP SP+0
          CFI CFA_XSP16 add(XSP16, 12)
        ; Saved register size: 12
        ; Auto size: 0
        MOV     A,R4
        MOV     R6,A
        MOV     A,R5
        MOV     R7,A
//  524   bStatus_t ret = SUCCESS;  // return value
        MOV     ?V0,#0x0
//  525 
//  526   switch ( param )
        MOV     ?V2,R2
        MOV     ?V3,R3
        MOV     R0,#?V2
        LCALL   ?US_SWITCH_DENSE
`?<Jumptable for GAPBondMgr_GetParameter>_0`:
        DATA
        DATA16
        DATA
        DATA16
        DW        1024
        DATA
        DATA8
        DATA
        DATA8
        DB        14
        DATA
        DATA16
        DATA
        DATA16
        DW        ??GAPBondMgr_GetParameter_0
        DATA
        DATA16
        DATA
        DATA16
        DW        ??GAPBondMgr_GetParameter_1
        DATA
        DATA16
        DATA
        DATA16
        DW        ??GAPBondMgr_GetParameter_2
        DATA
        DATA16
        DATA
        DATA16
        DW        ??GAPBondMgr_GetParameter_3
        DATA
        DATA16
        DATA
        DATA16
        DW        ??GAPBondMgr_GetParameter_4
        DATA
        DATA16
        DATA
        DATA16
        DW        ??GAPBondMgr_GetParameter_5
        DATA
        DATA16
        DATA
        DATA16
        DW        ??GAPBondMgr_GetParameter_6
        DATA
        DATA16
        DATA
        DATA16
        DW        ??GAPBondMgr_GetParameter_7
        DATA
        DATA16
        DATA
        DATA16
        DW        ??GAPBondMgr_GetParameter_8
        DATA
        DATA16
        DATA
        DATA16
        DW        ??GAPBondMgr_GetParameter_9
        DATA
        DATA16
        DATA
        DATA16
        DW        ??GAPBondMgr_GetParameter_0
        DATA
        DATA16
        DATA
        DATA16
        DW        ??GAPBondMgr_GetParameter_10
        DATA
        DATA16
        DATA
        DATA16
        DW        ??GAPBondMgr_GetParameter_11
        DATA
        DATA16
        DATA
        DATA16
        DW        ??GAPBondMgr_GetParameter_12
        DATA
        DATA16
        DATA
        DATA16
        DW        ??GAPBondMgr_GetParameter_13
        DATA
        DATA16
        DATA
        DATA16
        DW        ??GAPBondMgr_GetParameter_14
        CODE
//  527   {
//  528     case GAPBOND_PAIRING_MODE:
//  529       *((uint8*)pValue) = gapBond_PairingMode;
??GAPBondMgr_GetParameter_1:
        MOV     DPTR,#gapBond_PairingMode
        SJMP    ??GAPBondMgr_GetParameter_15
//  530       break;
//  531 
//  532     case GAPBOND_INITIATE_WAIT:
//  533       *((uint16*)pValue) = gapBond_InitiateWait;
??GAPBondMgr_GetParameter_2:
        MOV     DPTR,#gapBond_InitiateWait
        LCALL   ??Subroutine26_0 & 0xFFFF
??CrossCallReturnLabel_78:
        MOV     DPL,R6
        MOV     DPH,R7
        MOV     A,R0
        MOVX    @DPTR,A
        INC     DPTR
        MOV     A,R1
        SJMP    ??GAPBondMgr_GetParameter_16
//  534       break;
//  535 
//  536     case GAPBOND_MITM_PROTECTION:
//  537       *((uint8*)pValue) = gapBond_MITM;
??GAPBondMgr_GetParameter_3:
        MOV     DPTR,#gapBond_MITM
        SJMP    ??GAPBondMgr_GetParameter_15
//  538       break;
//  539 
//  540     case GAPBOND_IO_CAPABILITIES:
//  541       *((uint8*)pValue) = gapBond_IOCap;
??GAPBondMgr_GetParameter_4:
        MOV     DPTR,#gapBond_IOCap
        SJMP    ??GAPBondMgr_GetParameter_15
//  542       break;
//  543 
//  544     case GAPBOND_OOB_ENABLED:
//  545       *((uint8*)pValue) = gapBond_OOBDataFlag;
??GAPBondMgr_GetParameter_5:
        MOV     DPTR,#gapBond_OOBDataFlag
        SJMP    ??GAPBondMgr_GetParameter_15
//  546       break;
//  547 
//  548     case GAPBOND_OOB_DATA:
//  549       VOID osal_memcpy( pValue, gapBond_OOBData, KEYLEN ) ;
??GAPBondMgr_GetParameter_6:
        ; Setup parameters for call to function osal_memcpy
        MOV     ?V2,#0x10
        MOV     ?V3,#0x0
        MOV     R0,#?V2
        LCALL   ?PUSH_XSTACK_I_TWO
          CFI CFA_XSP16 add(XSP16, 14)
        MOV     R4,#gapBond_OOBData & 0xff
        MOV     R5,#(gapBond_OOBData >> 8) & 0xff
        MOV     A,R6
        MOV     R2,A
        MOV     A,R7
        MOV     R3,A
        LCALL   ??osal_memcpy?relay  ; Banked call to: osal_memcpy
        MOV     A,#0x2
        LCALL   ?DEALLOC_XSTACK8
          CFI CFA_XSP16 add(XSP16, 12)
//  550       break;
        SJMP    ??GAPBondMgr_GetParameter_17
//  551 
//  552     case GAPBOND_BONDING_ENABLED:
//  553       *((uint8*)pValue) = gapBond_Bonding;
??GAPBondMgr_GetParameter_7:
        MOV     DPTR,#gapBond_Bonding
        SJMP    ??GAPBondMgr_GetParameter_15
//  554       break;
//  555 
//  556     case GAPBOND_KEY_DIST_LIST:
//  557       *((uint8*)pValue) = gapBond_KeyDistList;
??GAPBondMgr_GetParameter_8:
        MOV     DPTR,#gapBond_KeyDistList
        SJMP    ??GAPBondMgr_GetParameter_15
//  558       break;
//  559 
//  560     case GAPBOND_DEFAULT_PASSCODE:
//  561       *((uint32*)pValue) = gapBond_Passcode;
??GAPBondMgr_GetParameter_9:
        MOV     DPTR,#gapBond_Passcode
        LCALL   ?XLOAD_R0123
        MOV     DPL,R6
        MOV     DPH,R7
        LCALL   ?XSTORE_R0123
//  562       break;
        SJMP    ??GAPBondMgr_GetParameter_17
//  563 
//  564     case GAPBOND_AUTO_FAIL_PAIRING:
//  565       *((uint8*)pValue) = gapBond_AutoFail;
??GAPBondMgr_GetParameter_10:
        MOV     DPTR,#gapBond_AutoFail
        SJMP    ??GAPBondMgr_GetParameter_15
//  566       break;
//  567 
//  568     case GAPBOND_AUTO_FAIL_REASON:
//  569       *((uint8*)pValue) = gapBond_AutoFailReason;
??GAPBondMgr_GetParameter_11:
        MOV     DPTR,#gapBond_AutoFailReason
        SJMP    ??GAPBondMgr_GetParameter_15
//  570       break;
//  571 
//  572     case GAPBOND_KEYSIZE:
//  573       *((uint8*)pValue) = gapBond_KeySize;
??GAPBondMgr_GetParameter_12:
        MOV     DPTR,#gapBond_KeySize
        SJMP    ??GAPBondMgr_GetParameter_15
//  574       break;
//  575 
//  576     case GAPBOND_AUTO_SYNC_WL:
//  577       *((uint8*)pValue) = autoSyncWhiteList;
??GAPBondMgr_GetParameter_13:
        MOV     DPTR,#autoSyncWhiteList
??GAPBondMgr_GetParameter_15:
        MOVX    A,@DPTR
        SJMP    ??GAPBondMgr_GetParameter_18
//  578       break;
//  579 
//  580     case GAPBOND_BOND_COUNT:
//  581       *((uint8*)pValue) = gapBondMgrBondTotal();
??GAPBondMgr_GetParameter_14:
        ; Setup parameters for call to function gapBondMgrBondTotal
        LCALL   ??gapBondMgrBondTotal?relay; Banked call to: gapBondMgrBondTotal
        MOV     A,R1
??GAPBondMgr_GetParameter_18:
        MOV     DPL,R6
        MOV     DPH,R7
        SJMP    ??GAPBondMgr_GetParameter_16
//  582       break;
//  583 
//  584     default:
//  585       // The param value isn't part of this profile, try the GAP.
//  586       if ( param < TGAP_PARAMID_MAX )
??GAPBondMgr_GetParameter_0:
        CLR     C
        MOV     A,R2
        SUBB    A,#0x27
        MOV     A,R3
        SUBB    A,#0x0
        JNC     ??GAPBondMgr_GetParameter_19
//  587       {
//  588         *((uint16*)pValue) = GAP_GetParamValue( param );
        ; Setup parameters for call to function GAP_GetParamValue
        LCALL   ??GAP_GetParamValue?relay; Banked call to: GAP_GetParamValue
        MOV     DPL,R6
        MOV     DPH,R7
        MOV     A,R2
        MOVX    @DPTR,A
        INC     DPTR
        MOV     A,R3
??GAPBondMgr_GetParameter_16:
        MOVX    @DPTR,A
        SJMP    ??GAPBondMgr_GetParameter_17
//  589       }
//  590       else
//  591       {
//  592         ret = INVALIDPARAMETER;
??GAPBondMgr_GetParameter_19:
        MOV     ?V0,#0x2
//  593       }
//  594       break;
//  595   }
//  596 
//  597   return ( ret );
??GAPBondMgr_GetParameter_17:
        MOV     R1,?V0
        LJMP    ??Subroutine30_0 & 0xFFFF
          CFI EndBlock cfiBlock7
//  598 }
//  599 
//  600 /*********************************************************************
//  601  * @brief   Notify the Bond Manager that a connection has been made.
//  602  *
//  603  * Public function defined in gapbondmgr.h.
//  604  */

        RSEG BANKED_CODE:CODE:NOROOT(0)
//  605 bStatus_t GAPBondMgr_LinkEst( uint8 addrType, uint8 *pDevAddr, uint16 connHandle, uint8 role )
GAPBondMgr_LinkEst:
          CFI Block cfiBlock8 Using cfiCommon0
          CFI Function GAPBondMgr_LinkEst
        CODE
//  606 {
        FUNCALL GAPBondMgr_LinkEst, GAPBondMgr_ResolveAddr
        LOCFRAME ISTACK, 0, STACK
        LOCFRAME PSTACK, 0, STACK
        LOCFRAME XSTACK, 53, STACK
        LOCFRAME IOVERLAY, 0, STATIC
        LOCFRAME DOVERLAY, 0, STATIC
        ARGFRAME ISTACK, 0, STACK
        ARGFRAME PSTACK, 0, STACK
        ARGFRAME XSTACK, 53, STACK
        ARGFRAME IOVERLAY, 0, STATIC
        ARGFRAME DOVERLAY, 0, STATIC
        FUNCALL GAPBondMgr_LinkEst, gapBondMgrGetStateFlags
        LOCFRAME ISTACK, 0, STACK
        LOCFRAME PSTACK, 0, STACK
        LOCFRAME XSTACK, 53, STACK
        LOCFRAME IOVERLAY, 0, STATIC
        LOCFRAME DOVERLAY, 0, STATIC
        ARGFRAME ISTACK, 0, STACK
        ARGFRAME PSTACK, 0, STACK
        ARGFRAME XSTACK, 53, STACK
        ARGFRAME IOVERLAY, 0, STATIC
        ARGFRAME DOVERLAY, 0, STATIC
        FUNCALL GAPBondMgr_LinkEst, gapBondMgrBondReq
        LOCFRAME ISTACK, 0, STACK
        LOCFRAME PSTACK, 0, STACK
        LOCFRAME XSTACK, 54, STACK
        LOCFRAME IOVERLAY, 0, STATIC
        LOCFRAME DOVERLAY, 0, STATIC
        ARGFRAME ISTACK, 0, STACK
        ARGFRAME PSTACK, 0, STACK
        ARGFRAME XSTACK, 54, STACK
        ARGFRAME IOVERLAY, 0, STATIC
        ARGFRAME DOVERLAY, 0, STATIC
        FUNCALL GAPBondMgr_LinkEst, osal_memset
        LOCFRAME ISTACK, 0, STACK
        LOCFRAME PSTACK, 0, STACK
        LOCFRAME XSTACK, 53, STACK
        LOCFRAME IOVERLAY, 0, STATIC
        LOCFRAME DOVERLAY, 0, STATIC
        ARGFRAME ISTACK, 0, STACK
        ARGFRAME PSTACK, 0, STACK
        ARGFRAME XSTACK, 53, STACK
        ARGFRAME IOVERLAY, 0, STATIC
        ARGFRAME DOVERLAY, 0, STATIC
        FUNCALL GAPBondMgr_LinkEst, osal_snv_read
        LOCFRAME ISTACK, 0, STACK
        LOCFRAME PSTACK, 0, STACK
        LOCFRAME XSTACK, 53, STACK
        LOCFRAME IOVERLAY, 0, STATIC
        LOCFRAME DOVERLAY, 0, STATIC
        ARGFRAME ISTACK, 0, STACK
        ARGFRAME PSTACK, 0, STACK
        ARGFRAME XSTACK, 53, STACK
        ARGFRAME IOVERLAY, 0, STATIC
        ARGFRAME DOVERLAY, 0, STATIC
        FUNCALL GAPBondMgr_LinkEst, osal_isbufset
        LOCFRAME ISTACK, 0, STACK
        LOCFRAME PSTACK, 0, STACK
        LOCFRAME XSTACK, 53, STACK
        LOCFRAME IOVERLAY, 0, STATIC
        LOCFRAME DOVERLAY, 0, STATIC
        ARGFRAME ISTACK, 0, STACK
        ARGFRAME PSTACK, 0, STACK
        ARGFRAME XSTACK, 53, STACK
        ARGFRAME IOVERLAY, 0, STATIC
        ARGFRAME DOVERLAY, 0, STATIC
        FUNCALL GAPBondMgr_LinkEst, osal_snv_read
        LOCFRAME ISTACK, 0, STACK
        LOCFRAME PSTACK, 0, STACK
        LOCFRAME XSTACK, 53, STACK
        LOCFRAME IOVERLAY, 0, STATIC
        LOCFRAME DOVERLAY, 0, STATIC
        ARGFRAME ISTACK, 0, STACK
        ARGFRAME PSTACK, 0, STACK
        ARGFRAME XSTACK, 53, STACK
        ARGFRAME IOVERLAY, 0, STATIC
        ARGFRAME DOVERLAY, 0, STATIC
        FUNCALL GAPBondMgr_LinkEst, GAP_Signable
        LOCFRAME ISTACK, 0, STACK
        LOCFRAME PSTACK, 0, STACK
        LOCFRAME XSTACK, 53, STACK
        LOCFRAME IOVERLAY, 0, STATIC
        LOCFRAME DOVERLAY, 0, STATIC
        ARGFRAME ISTACK, 0, STACK
        ARGFRAME PSTACK, 0, STACK
        ARGFRAME XSTACK, 53, STACK
        ARGFRAME IOVERLAY, 0, STATIC
        ARGFRAME DOVERLAY, 0, STATIC
        FUNCALL GAPBondMgr_LinkEst, osal_snv_read
        LOCFRAME ISTACK, 0, STACK
        LOCFRAME PSTACK, 0, STACK
        LOCFRAME XSTACK, 53, STACK
        LOCFRAME IOVERLAY, 0, STATIC
        LOCFRAME DOVERLAY, 0, STATIC
        ARGFRAME ISTACK, 0, STACK
        ARGFRAME PSTACK, 0, STACK
        ARGFRAME XSTACK, 53, STACK
        ARGFRAME IOVERLAY, 0, STATIC
        ARGFRAME DOVERLAY, 0, STATIC
        FUNCALL GAPBondMgr_LinkEst, gapBondMgrInvertCharCfgItem
        LOCFRAME ISTACK, 0, STACK
        LOCFRAME PSTACK, 0, STACK
        LOCFRAME XSTACK, 53, STACK
        LOCFRAME IOVERLAY, 0, STATIC
        LOCFRAME DOVERLAY, 0, STATIC
        ARGFRAME ISTACK, 0, STACK
        ARGFRAME PSTACK, 0, STACK
        ARGFRAME XSTACK, 53, STACK
        ARGFRAME IOVERLAY, 0, STATIC
        ARGFRAME DOVERLAY, 0, STATIC
        FUNCALL GAPBondMgr_LinkEst, GATTServApp_UpdateCharCfg
        LOCFRAME ISTACK, 0, STACK
        LOCFRAME PSTACK, 0, STACK
        LOCFRAME XSTACK, 55, STACK
        LOCFRAME IOVERLAY, 0, STATIC
        LOCFRAME DOVERLAY, 0, STATIC
        ARGFRAME ISTACK, 0, STACK
        ARGFRAME PSTACK, 0, STACK
        ARGFRAME XSTACK, 55, STACK
        ARGFRAME IOVERLAY, 0, STATIC
        ARGFRAME DOVERLAY, 0, STATIC
        FUNCALL GAPBondMgr_LinkEst, GATTServApp_SendServiceChangedInd
        LOCFRAME ISTACK, 0, STACK
        LOCFRAME PSTACK, 0, STACK
        LOCFRAME XSTACK, 53, STACK
        LOCFRAME IOVERLAY, 0, STATIC
        LOCFRAME DOVERLAY, 0, STATIC
        ARGFRAME ISTACK, 0, STACK
        ARGFRAME PSTACK, 0, STACK
        ARGFRAME XSTACK, 53, STACK
        ARGFRAME IOVERLAY, 0, STATIC
        ARGFRAME DOVERLAY, 0, STATIC
        FUNCALL GAPBondMgr_LinkEst, gapBondMgrAuthenticate
        LOCFRAME ISTACK, 0, STACK
        LOCFRAME PSTACK, 0, STACK
        LOCFRAME XSTACK, 53, STACK
        LOCFRAME IOVERLAY, 0, STATIC
        LOCFRAME DOVERLAY, 0, STATIC
        ARGFRAME ISTACK, 0, STACK
        ARGFRAME PSTACK, 0, STACK
        ARGFRAME XSTACK, 53, STACK
        ARGFRAME IOVERLAY, 0, STATIC
        ARGFRAME DOVERLAY, 0, STATIC
        FUNCALL GAPBondMgr_LinkEst, GAP_SendSlaveSecurityRequest
        LOCFRAME ISTACK, 0, STACK
        LOCFRAME PSTACK, 0, STACK
        LOCFRAME XSTACK, 53, STACK
        LOCFRAME IOVERLAY, 0, STATIC
        LOCFRAME DOVERLAY, 0, STATIC
        ARGFRAME ISTACK, 0, STACK
        ARGFRAME PSTACK, 0, STACK
        ARGFRAME XSTACK, 53, STACK
        ARGFRAME IOVERLAY, 0, STATIC
        ARGFRAME DOVERLAY, 0, STATIC
        REQUIRE ?V0
        REQUIRE ?V1
        REQUIRE ?V2
        REQUIRE ?V3
        REQUIRE ?V4
        REQUIRE ?V5
        REQUIRE ?V6
        MOV     A,#-0xf
        LCALL   ?BANKED_ENTER_XDATA
          CFI DPH0 load(1, XDATA, add(CFA_XSP16, literal(-1)))
          CFI DPL0 load(1, XDATA, add(CFA_XSP16, literal(-2)))
          CFI ?BRET_EXT load(1, XDATA, add(CFA_XSP16, literal(-3)))
          CFI ?RET_HIGH load(1, XDATA, add(CFA_XSP16, literal(-4)))
          CFI ?RET_LOW load(1, XDATA, add(CFA_XSP16, literal(-5)))
          CFI R7 load(1, XDATA, add(CFA_XSP16, literal(-6)))
          CFI V6 load(1, XDATA, add(CFA_XSP16, literal(-7)))
          CFI V5 load(1, XDATA, add(CFA_XSP16, literal(-8)))
          CFI V4 load(1, XDATA, add(CFA_XSP16, literal(-9)))
          CFI V3 load(1, XDATA, add(CFA_XSP16, literal(-10)))
          CFI V2 load(1, XDATA, add(CFA_XSP16, literal(-11)))
          CFI V1 load(1, XDATA, add(CFA_XSP16, literal(-12)))
          CFI V0 load(1, XDATA, add(CFA_XSP16, literal(-13)))
          CFI VB load(1, XDATA, add(CFA_XSP16, literal(-14)))
          CFI R6 load(1, XDATA, add(CFA_XSP16, literal(-15)))
          CFI CFA_SP SP+0
          CFI CFA_XSP16 add(XSP16, 15)
        ; Saved register size: 15
        ; Auto size: 38
        MOV     A,#-0x26
        LCALL   ?ALLOC_XSTACK8
          CFI CFA_XSP16 add(XSP16, 53)
        MOV     ?V6,R1
        MOV     A,R4
        MOV     R6,A
        MOV     A,R5
        MOV     R7,A
//  607   uint8 idx;                          // NV Index
//  608   uint8 publicAddr[B_ADDR_LEN]        // Place to put the public address
//  609       = {0, 0, 0, 0, 0, 0};
        MOV     DPTR,#`?<Constant {0, 0, 0, 0, 0, 0}>`
        MOV     A,#0x20
        LCALL   ?XSTACK_DISP102_8
        MOV     A,#0x6
        LCALL   ?MOVE_LONG8_XDATA_XDATA
//  610 
//  611   idx = GAPBondMgr_ResolveAddr( addrType, pDevAddr, publicAddr );
        ; Setup parameters for call to function GAPBondMgr_ResolveAddr
        MOV     A,#0x20
        LCALL   ?XSTACK_DISP102_8
        LCALL   ??GAPBondMgr_ResolveAddr?relay; Banked call to: GAPBondMgr_ResolveAddr
        MOV     A,R1
        MOV     ?V0,A
        MOV     A,#0x35
        LCALL   ?XSTACK_DISP0_8
        MOVX    A,@DPTR
        MOV     ?V3,A
//  612   if ( idx < GAP_BONDINGS_MAX )
        MOV     A,R1
        CLR     C
        SUBB    A,#0xa
        JC      $+5
        LJMP    ??GAPBondMgr_LinkEst_0 & 0xFFFF
//  613   {
//  614     uint8 stateFlags = gapBondMgrGetStateFlags( idx );
        ; Setup parameters for call to function gapBondMgrGetStateFlags
        LCALL   ??gapBondMgrGetStateFlags?relay; Banked call to: gapBondMgrGetStateFlags
        MOV     A,R1
        MOV     ?V2,A
//  615     smSigningInfo_t signingInfo;
//  616     gapBondCharCfg_t charCfg[GAP_CHAR_CFG_MAX]; // Space to read a char cfg record from NV
//  617 
//  618     // On peripheral, load the key information for the bonding
//  619     // On central and initiaiting security, load key to initiate encyption
//  620     gapBondMgrBondReq( connHandle, idx, stateFlags, role,
//  621                        ((gapBond_PairingMode == GAPBOND_PAIRING_MODE_INITIATE ) ? TRUE : FALSE) );
        MOV     DPTR,#gapBond_PairingMode
        MOVX    A,@DPTR
        XRL     A,#0x2
        JNZ     ??GAPBondMgr_LinkEst_1
        MOV     A,#0x1
        SJMP    ??GAPBondMgr_LinkEst_2
??GAPBondMgr_LinkEst_1:
        CLR     A
??GAPBondMgr_LinkEst_2:
        ; Setup parameters for call to function gapBondMgrBondReq
        MOV     ?V1,A
        MOV     R0,#?V1
        LCALL   ?PUSH_XSTACK_I_ONE
          CFI CFA_XSP16 add(XSP16, 54)
        MOV     R5,?V3
        MOV     R4,?V2
        MOV     R1,?V0
        MOV     A,R6
        MOV     R2,A
        MOV     A,R7
        MOV     R3,A
        LCALL   ??gapBondMgrBondReq?relay; Banked call to: gapBondMgrBondReq
        MOV     A,#0x1
        LCALL   ?DEALLOC_XSTACK8
          CFI CFA_XSP16 add(XSP16, 53)
//  622 
//  623     // Load the Signing Key
//  624     VOID osal_memset( &signingInfo, 0, sizeof ( smSigningInfo_t ) );
        ; Setup parameters for call to function osal_memset
        MOV     R4,#0x14
        MOV     R5,#0x0
        MOV     R1,#0x0
        MOV     A,#0xc
        LCALL   ?XSTACK_DISP101_8
        LCALL   ??osal_memset?relay  ; Banked call to: osal_memset
//  625     if ( osal_snv_read( devCSRKNvID(idx), KEYLEN, signingInfo.srk ) == SUCCESS )
        MOV     B,#0x6
        MOV     A,?V0
        MUL     AB
        MOV     ?V1,A
        ; Setup parameters for call to function osal_snv_read
        MOV     A,#0xc
        LCALL   ?XSTACK_DISP102_8
        MOV     R2,#0x10
        MOV     A,#0x24
        ADD     A,?V1
        MOV     R1,A
        LCALL   ??osal_snv_read?relay; Banked call to: osal_snv_read
        MOV     A,R1
        JNZ     ??GAPBondMgr_LinkEst_3
//  626     {
//  627       if ( osal_isbufset( signingInfo.srk, 0xFF, KEYLEN ) == FALSE )
        ; Setup parameters for call to function osal_isbufset
        MOV     R4,#0x10
        MOV     R1,#-0x1
        MOV     A,#0xc
        LCALL   ?XSTACK_DISP101_8
        LCALL   ??osal_isbufset?relay; Banked call to: osal_isbufset
        MOV     A,R1
        JNZ     ??GAPBondMgr_LinkEst_3
//  628       {
//  629         // Load the signing information for this connection
//  630         VOID osal_snv_read( devSignCounterNvID(idx), sizeof ( uint32 ), &(signingInfo.signCounter) );
        ; Setup parameters for call to function osal_snv_read
        MOV     A,#0x1c
        LCALL   ?XSTACK_DISP0_8
        MOV     R4,DPL
        MOV     R5,DPH
        MOV     R2,#0x4
        MOV     A,#0x25
        ADD     A,?V1
        MOV     R1,A
        LCALL   ??osal_snv_read?relay; Banked call to: osal_snv_read
//  631         VOID GAP_Signable( connHandle,
//  632                           ((stateFlags & GAP_BONDED_STATE_AUTHENTICATED) ? TRUE : FALSE),
//  633                           &signingInfo );
        ; Setup parameters for call to function GAP_Signable
        MOV     A,#0xc
        LCALL   ?XSTACK_DISP102_8
        MOV     A,?V2
        MOV     C,0xE0 /* A   */.0
        CLR     A
        RLC     A
        MOV     R1,A
        MOV     A,R6
        MOV     R2,A
        MOV     A,R7
        MOV     R3,A
        LCALL   ??GAP_Signable?relay ; Banked call to: GAP_Signable
//  634       }
//  635     }
//  636 
//  637     // Load the characteristic configuration
//  638     if ( osal_snv_read( gattCfgNvID(idx), sizeof ( charCfg ), charCfg ) == SUCCESS )
??GAPBondMgr_LinkEst_3:
        ; Setup parameters for call to function osal_snv_read
        MOV     R4,?XSP + 0
        MOV     R5,?XSP + 1
        MOV     R2,#0xc
        MOV     A,#0x70
        ADD     A,?V0
        MOV     R1,A
        LCALL   ??osal_snv_read?relay; Banked call to: osal_snv_read
        MOV     A,R1
        JNZ     ??GAPBondMgr_LinkEst_4
//  639     {
//  640       gapBondMgrInvertCharCfgItem( charCfg );
        ; Setup parameters for call to function gapBondMgrInvertCharCfgItem
        MOV     R2,?XSP + 0
        MOV     R3,?XSP + 1
        LCALL   ??gapBondMgrInvertCharCfgItem?relay; Banked call to: gapBondMgrInvertCharCfgItem
//  641 
//  642       for ( uint8 i = 0; i < GAP_CHAR_CFG_MAX; i++ )
        MOV     ?V0,#0x0
//  643       {
//  644         gapBondCharCfg_t *pItem = &(charCfg[i]);
??GAPBondMgr_LinkEst_5:
        MOV     A,?V0
        MOV     B,#0x3
        MUL     AB
        MOV     R0,A
        MOV     R1,B
        MOV     DPL,?XSP + 0
        MOV     DPH,?XSP + 1
        MOV     A,DPL
        ADD     A,R0
        MOV     R0,A
        MOV     A,DPH
        LCALL   ?Subroutine18 & 0xFFFF
//  645 
//  646         // Apply the characteristic configuration for this connection
//  647         if ( pItem->attrHandle != GATT_INVALID_HANDLE )
??CrossCallReturnLabel_27:
        LCALL   ??Subroutine25_0 & 0xFFFF
??CrossCallReturnLabel_40:
        JZ      ??GAPBondMgr_LinkEst_6
//  648         {
//  649           VOID GATTServApp_UpdateCharCfg( connHandle, pItem->attrHandle,
//  650                                           (uint16)(pItem->value) );
        ; Setup parameters for call to function GATTServApp_UpdateCharCfg
        MOV     DPL,R0
        MOV     DPH,R1
        INC     DPTR
        INC     DPTR
        MOVX    A,@DPTR
        MOV     ?V4,A
        MOV     ?V5,#0x0
        MOV     R0,#?V4
        LCALL   ?PUSH_XSTACK_I_TWO
          CFI CFA_XSP16 add(XSP16, 55)
        MOV     A,R6
        MOV     R2,A
        MOV     A,R7
        MOV     R3,A
        LCALL   ??GATTServApp_UpdateCharCfg?relay; Banked call to: GATTServApp_UpdateCharCfg
        MOV     A,#0x2
        LCALL   ?DEALLOC_XSTACK8
          CFI CFA_XSP16 add(XSP16, 53)
//  651         }
//  652       }
??GAPBondMgr_LinkEst_6:
        INC     ?V0
        MOV     A,?V0
        CLR     C
        SUBB    A,#0x4
        JC      ??GAPBondMgr_LinkEst_5
//  653     }
//  654 
//  655     // Has there been a service change?
//  656     if ( stateFlags & GAP_BONDED_STATE_SERVICE_CHANGED )
??GAPBondMgr_LinkEst_4:
        MOV     A,?V2
        MOV     C,0xE0 /* A   */.1
        JNC     ??GAPBondMgr_LinkEst_7
//  657     {
//  658       VOID GATTServApp_SendServiceChangedInd( connHandle, gapBondMgr_TaskID );
        ; Setup parameters for call to function GATTServApp_SendServiceChangedInd
        MOV     DPTR,#gapBondMgr_TaskID
        MOVX    A,@DPTR
        MOV     R1,A
        MOV     A,R6
        MOV     R2,A
        MOV     A,R7
        MOV     R3,A
        LCALL   ??GATTServApp_SendServiceChangedInd?relay; Banked call to: GATTServApp_SendServiceChangedInd
//  659     }
//  660   }
//  661 #if ( HOST_CONFIG & CENTRAL_CFG )
//  662   else if ( role == GAP_PROFILE_CENTRAL &&
//  663             gapBond_PairingMode == GAPBOND_PAIRING_MODE_INITIATE )
//  664   {
//  665     // If Central and initiating and not bonded, then initiate pairing
//  666     gapBondMgrAuthenticate( connHandle, addrType, NULL );
//  667 
//  668     // Call app state callback
//  669     if ( pGapBondCB && pGapBondCB->pairStateCB )
//  670     {
//  671       pGapBondCB->pairStateCB( connHandle, GAPBOND_PAIRING_STATE_STARTED, SUCCESS );
//  672     }
//  673   }
//  674 #endif
//  675 
//  676 #if ( HOST_CONFIG & PERIPHERAL_CFG )
//  677   // If Peripheral and initiating, send a slave security request to
//  678   // initiate either pairing or encryption
//  679   if ( role == GAP_PROFILE_PERIPHERAL &&
//  680        gapBond_PairingMode == GAPBOND_PAIRING_MODE_INITIATE )
??GAPBondMgr_LinkEst_7:
        MOV     A,#0x4
        XRL     A,?V3
        JNZ     ??GAPBondMgr_LinkEst_8
        MOV     DPTR,#gapBond_PairingMode
        MOVX    A,@DPTR
        XRL     A,#0x2
        JNZ     ??GAPBondMgr_LinkEst_8
//  681   {
//  682     gapBondMgrSlaveSecurityReq( connHandle );
        MOV     R2,#0x0
        MOV     DPTR,#gapBond_Bonding
        MOVX    A,@DPTR
        JZ      ??GAPBondMgr_LinkEst_9
        INC     R2
??GAPBondMgr_LinkEst_9:
        MOV     DPTR,#gapBond_MITM
        MOVX    A,@DPTR
        JZ      ??GAPBondMgr_LinkEst_10
        MOV     R0,#0x4
        SJMP    ??GAPBondMgr_LinkEst_11
??GAPBondMgr_LinkEst_0:
        MOV     A,#0x8
        XRL     A,?V3
        JNZ     ??GAPBondMgr_LinkEst_7
        MOV     DPTR,#gapBond_PairingMode
        MOVX    A,@DPTR
        XRL     A,#0x2
        JNZ     ??GAPBondMgr_LinkEst_8
        ; Setup parameters for call to function gapBondMgrAuthenticate
        MOV     R4,#0x0
        MOV     R5,#0x0
        MOV     R1,?V6
        MOV     A,R6
        MOV     R2,A
        MOV     A,R7
        MOV     R3,A
        LCALL   ??gapBondMgrAuthenticate?relay; Banked call to: gapBondMgrAuthenticate
        LCALL   ?Subroutine7 & 0xFFFF
??CrossCallReturnLabel_71:
        JZ      ??GAPBondMgr_LinkEst_8
        LCALL   ?Subroutine12 & 0xFFFF
??CrossCallReturnLabel_5:
        MOV     DPL,R0
        MOV     DPH,R1
        MOV     A,DPL
        ORL     A,DPH
        JZ      ??GAPBondMgr_LinkEst_8
        ; Setup parameters for indirect call
        MOV     R4,#0x0
        MOV     R1,#0x0
        MOV     A,R6
        MOV     R2,A
        MOV     A,R7
        MOV     R3,A
        LCALL   ?CALL_IND
        SJMP    ??GAPBondMgr_LinkEst_8
??GAPBondMgr_LinkEst_10:
        MOV     R0,#0x0
??GAPBondMgr_LinkEst_11:
        ; Setup parameters for call to function GAP_SendSlaveSecurityRequest
        MOV     A,R0
        ORL     A,R2
        MOV     R1,A
        MOV     A,R6
        MOV     R2,A
        MOV     A,R7
        MOV     R3,A
        LCALL   ??GAP_SendSlaveSecurityRequest?relay; Banked call to: GAP_SendSlaveSecurityRequest
//  683   }
//  684 #endif
//  685 
//  686   return ( SUCCESS );
??GAPBondMgr_LinkEst_8:
        MOV     R1,#0x0
        MOV     A,#0x26
          CFI EndBlock cfiBlock8
        REQUIRE ?Subroutine2
        ; // Fall through to label ?Subroutine2
//  687 }

        RSEG BANKED_CODE:CODE:NOROOT(0)
?Subroutine2:
          CFI Block cfiBlock9 Using cfiCommon0
          CFI NoFunction
          CFI CFA_SP SP+0
          CFI CFA_XSP16 add(XSP16, 53)
          CFI VB load(1, XDATA, add(CFA_XSP16, literal(-14)))
          CFI DPL0 load(1, XDATA, add(CFA_XSP16, literal(-2)))
          CFI DPH0 load(1, XDATA, add(CFA_XSP16, literal(-1)))
          CFI R6 load(1, XDATA, add(CFA_XSP16, literal(-15)))
          CFI R7 load(1, XDATA, add(CFA_XSP16, literal(-6)))
          CFI V0 load(1, XDATA, add(CFA_XSP16, literal(-13)))
          CFI V1 load(1, XDATA, add(CFA_XSP16, literal(-12)))
          CFI V2 load(1, XDATA, add(CFA_XSP16, literal(-11)))
          CFI V3 load(1, XDATA, add(CFA_XSP16, literal(-10)))
          CFI V4 load(1, XDATA, add(CFA_XSP16, literal(-9)))
          CFI V5 load(1, XDATA, add(CFA_XSP16, literal(-8)))
          CFI V6 load(1, XDATA, add(CFA_XSP16, literal(-7)))
          CFI ?BRET_EXT load(1, XDATA, add(CFA_XSP16, literal(-3)))
          CFI ?RET_HIGH load(1, XDATA, add(CFA_XSP16, literal(-4)))
          CFI ?RET_LOW load(1, XDATA, add(CFA_XSP16, literal(-5)))
          CFI Invalid
        LCALL   ?DEALLOC_XSTACK8
          CFI CFA_XSP16 add(XSP16, 15)
          CFI Valid
        MOV     R7,#0x7
        LJMP    ?BANKED_LEAVE_XDATA
          CFI EndBlock cfiBlock9
//  688 
//  689 /*********************************************************************
//  690  * @brief   Resolve an address from bonding information.
//  691  *
//  692  * Public function defined in gapbondmgr.h.
//  693  */

        RSEG BANKED_CODE:CODE:NOROOT(0)
//  694 uint8 GAPBondMgr_ResolveAddr( uint8 addrType, uint8 *pDevAddr, uint8 *pResolvedAddr )
GAPBondMgr_ResolveAddr:
          CFI Block cfiBlock10 Using cfiCommon0
          CFI Function GAPBondMgr_ResolveAddr
        CODE
//  695 {
        FUNCALL GAPBondMgr_ResolveAddr, gapBondMgrFindAddr
        LOCFRAME ISTACK, 0, STACK
        LOCFRAME PSTACK, 0, STACK
        LOCFRAME XSTACK, 31, STACK
        LOCFRAME IOVERLAY, 0, STATIC
        LOCFRAME DOVERLAY, 0, STATIC
        ARGFRAME ISTACK, 0, STACK
        ARGFRAME PSTACK, 0, STACK
        ARGFRAME XSTACK, 31, STACK
        ARGFRAME IOVERLAY, 0, STATIC
        ARGFRAME DOVERLAY, 0, STATIC
        FUNCALL GAPBondMgr_ResolveAddr, osal_memcpy
        LOCFRAME ISTACK, 0, STACK
        LOCFRAME PSTACK, 0, STACK
        LOCFRAME XSTACK, 33, STACK
        LOCFRAME IOVERLAY, 0, STATIC
        LOCFRAME DOVERLAY, 0, STATIC
        ARGFRAME ISTACK, 0, STACK
        ARGFRAME PSTACK, 0, STACK
        ARGFRAME XSTACK, 33, STACK
        ARGFRAME IOVERLAY, 0, STATIC
        ARGFRAME DOVERLAY, 0, STATIC
        FUNCALL GAPBondMgr_ResolveAddr, osal_memcmp
        LOCFRAME ISTACK, 0, STACK
        LOCFRAME PSTACK, 0, STACK
        LOCFRAME XSTACK, 33, STACK
        LOCFRAME IOVERLAY, 0, STATIC
        LOCFRAME DOVERLAY, 0, STATIC
        ARGFRAME ISTACK, 0, STACK
        ARGFRAME PSTACK, 0, STACK
        ARGFRAME XSTACK, 33, STACK
        ARGFRAME IOVERLAY, 0, STATIC
        ARGFRAME DOVERLAY, 0, STATIC
        FUNCALL GAPBondMgr_ResolveAddr, osal_snv_read
        LOCFRAME ISTACK, 0, STACK
        LOCFRAME PSTACK, 0, STACK
        LOCFRAME XSTACK, 31, STACK
        LOCFRAME IOVERLAY, 0, STATIC
        LOCFRAME DOVERLAY, 0, STATIC
        ARGFRAME ISTACK, 0, STACK
        ARGFRAME PSTACK, 0, STACK
        ARGFRAME XSTACK, 31, STACK
        ARGFRAME IOVERLAY, 0, STATIC
        ARGFRAME DOVERLAY, 0, STATIC
        FUNCALL GAPBondMgr_ResolveAddr, osal_isbufset
        LOCFRAME ISTACK, 0, STACK
        LOCFRAME PSTACK, 0, STACK
        LOCFRAME XSTACK, 31, STACK
        LOCFRAME IOVERLAY, 0, STATIC
        LOCFRAME DOVERLAY, 0, STATIC
        ARGFRAME ISTACK, 0, STACK
        ARGFRAME PSTACK, 0, STACK
        ARGFRAME XSTACK, 31, STACK
        ARGFRAME IOVERLAY, 0, STATIC
        ARGFRAME DOVERLAY, 0, STATIC
        FUNCALL GAPBondMgr_ResolveAddr, GAP_ResolvePrivateAddr
        LOCFRAME ISTACK, 0, STACK
        LOCFRAME PSTACK, 0, STACK
        LOCFRAME XSTACK, 31, STACK
        LOCFRAME IOVERLAY, 0, STATIC
        LOCFRAME DOVERLAY, 0, STATIC
        ARGFRAME ISTACK, 0, STACK
        ARGFRAME PSTACK, 0, STACK
        ARGFRAME XSTACK, 31, STACK
        ARGFRAME IOVERLAY, 0, STATIC
        ARGFRAME DOVERLAY, 0, STATIC
        FUNCALL GAPBondMgr_ResolveAddr, gapBondMgrGetPublicAddr
        LOCFRAME ISTACK, 0, STACK
        LOCFRAME PSTACK, 0, STACK
        LOCFRAME XSTACK, 31, STACK
        LOCFRAME IOVERLAY, 0, STATIC
        LOCFRAME DOVERLAY, 0, STATIC
        ARGFRAME ISTACK, 0, STACK
        ARGFRAME PSTACK, 0, STACK
        ARGFRAME XSTACK, 31, STACK
        ARGFRAME IOVERLAY, 0, STATIC
        ARGFRAME DOVERLAY, 0, STATIC
        REQUIRE ?V0
        REQUIRE ?V1
        REQUIRE ?V2
        REQUIRE ?V3
        REQUIRE ?V4
        REQUIRE ?V5
        REQUIRE ?V6
        MOV     A,#-0xf
        LCALL   ?BANKED_ENTER_XDATA
          CFI DPH0 load(1, XDATA, add(CFA_XSP16, literal(-1)))
          CFI DPL0 load(1, XDATA, add(CFA_XSP16, literal(-2)))
          CFI ?BRET_EXT load(1, XDATA, add(CFA_XSP16, literal(-3)))
          CFI ?RET_HIGH load(1, XDATA, add(CFA_XSP16, literal(-4)))
          CFI ?RET_LOW load(1, XDATA, add(CFA_XSP16, literal(-5)))
          CFI R7 load(1, XDATA, add(CFA_XSP16, literal(-6)))
          CFI V6 load(1, XDATA, add(CFA_XSP16, literal(-7)))
          CFI V5 load(1, XDATA, add(CFA_XSP16, literal(-8)))
          CFI V4 load(1, XDATA, add(CFA_XSP16, literal(-9)))
          CFI V3 load(1, XDATA, add(CFA_XSP16, literal(-10)))
          CFI V2 load(1, XDATA, add(CFA_XSP16, literal(-11)))
          CFI V1 load(1, XDATA, add(CFA_XSP16, literal(-12)))
          CFI V0 load(1, XDATA, add(CFA_XSP16, literal(-13)))
          CFI VB load(1, XDATA, add(CFA_XSP16, literal(-14)))
          CFI R6 load(1, XDATA, add(CFA_XSP16, literal(-15)))
          CFI CFA_SP SP+0
          CFI CFA_XSP16 add(XSP16, 15)
        ; Saved register size: 15
        ; Auto size: 16
        MOV     A,#-0x10
        LCALL   ?ALLOC_XSTACK8
          CFI CFA_XSP16 add(XSP16, 31)
        MOV     ?V4,R2
        MOV     ?V5,R3
        MOV     ?V0,R4
        MOV     ?V1,R5
//  696   uint8 idx = GAP_BONDINGS_MAX;
        MOV     R6,#0xa
//  697 
//  698   switch ( addrType )
        MOV     A,R1
        JZ      ??GAPBondMgr_ResolveAddr_0
        DEC     A
        JZ      ??GAPBondMgr_ResolveAddr_0
        DEC     A
        JZ      ??GAPBondMgr_ResolveAddr_1
        DEC     A
        JZ      ??GAPBondMgr_ResolveAddr_2
        LJMP    ??GAPBondMgr_ResolveAddr_3 & 0xFFFF
//  699   {
//  700     case ADDRTYPE_PUBLIC:
//  701     case ADDRTYPE_STATIC:
//  702       idx = gapBondMgrFindAddr( pDevAddr );
??GAPBondMgr_ResolveAddr_0:
        ; Setup parameters for call to function gapBondMgrFindAddr
        LCALL   ??gapBondMgrFindAddr?relay; Banked call to: gapBondMgrFindAddr
        MOV     A,R1
        MOV     R6,A
//  703       if ( (idx < GAP_BONDINGS_MAX) && (pResolvedAddr) )
        CLR     C
        SUBB    A,#0xa
        JC      $+5
        LJMP    ??GAPBondMgr_ResolveAddr_3 & 0xFFFF
        MOV     A,?V0
        ORL     A,?V1
        JNZ     $+5
        LJMP    ??GAPBondMgr_ResolveAddr_3 & 0xFFFF
//  704       {
//  705         VOID osal_memcpy( pResolvedAddr, pDevAddr, B_ADDR_LEN );
        ; Setup parameters for call to function osal_memcpy
        MOV     ?V2,#0x6
        MOV     ?V3,#0x0
        MOV     R0,#?V2
        LCALL   ?PUSH_XSTACK_I_TWO
          CFI CFA_XSP16 add(XSP16, 33)
        MOV     R4,?V4
        MOV     R5,?V5
        MOV     R2,?V0
        MOV     R3,?V1
        LCALL   ??osal_memcpy?relay  ; Banked call to: osal_memcpy
        MOV     A,#0x2
        LCALL   ?DEALLOC_XSTACK8
          CFI CFA_XSP16 add(XSP16, 31)
        LJMP    ??GAPBondMgr_ResolveAddr_3 & 0xFFFF
//  706       }
//  707       break;
//  708 
//  709     case ADDRTYPE_PRIVATE_NONRESOLVE:
//  710       // This could be a reconnection address
//  711       idx = gapBondMgrFindReconnectAddr( pDevAddr );
??GAPBondMgr_ResolveAddr_1:
        MOV     R7,#0x0
??GAPBondMgr_ResolveAddr_4:
        ; Setup parameters for call to function osal_memcmp
        MOV     ?V2,#0x6
        MOV     ?V3,#0x0
        MOV     R0,#?V2
        LCALL   ?PUSH_XSTACK_I_TWO
          CFI CFA_XSP16 add(XSP16, 33)
        MOV     R4,?V4
        MOV     R5,?V5
        MOV     A,R7
        MOV     B,#0xe
        MUL     AB
        MOV     R0,A
        MOV     R1,B
        MOV     A,#(bonds + 6) & 0xff
        ADD     A,R0
        MOV     R2,A
        MOV     A,#((bonds + 6) >> 8) & 0xff
        ADDC    A,R1
        MOV     R3,A
        LCALL   ??osal_memcmp?relay  ; Banked call to: osal_memcmp
        MOV     A,#0x2
        LCALL   ?DEALLOC_XSTACK8
          CFI CFA_XSP16 add(XSP16, 31)
        MOV     A,R1
        JNZ     ??GAPBondMgr_ResolveAddr_5
        INC     R7
        MOV     A,R7
        CLR     C
        SUBB    A,#0xa
        JNC     ??GAPBondMgr_ResolveAddr_3
        SJMP    ??GAPBondMgr_ResolveAddr_4
??GAPBondMgr_ResolveAddr_5:
        MOV     A,R7
        MOV     R6,A
//  712       if ( (idx < GAP_BONDINGS_MAX) && (pResolvedAddr) )
        CLR     C
        SUBB    A,#0xa
        JNC     ??GAPBondMgr_ResolveAddr_3
        SJMP    ??GAPBondMgr_ResolveAddr_6
//  713       {
//  714         VOID gapBondMgrGetPublicAddr( idx, pResolvedAddr );
//  715       }
//  716       break;
//  717 
//  718     case ADDRTYPE_PRIVATE_RESOLVE:
//  719       // Master's don't use Private Resolvable addresses but just in case
//  720       idx = gapBondMgrResolvePrivateAddr( pDevAddr );
??GAPBondMgr_ResolveAddr_2:
        MOV     R7,#0x0
??GAPBondMgr_ResolveAddr_7:
        ; Setup parameters for call to function osal_snv_read
        MOV     R4,?XSP + 0
        MOV     R5,?XSP + 1
        MOV     R2,#0x10
        MOV     B,#0x6
        MOV     A,R7
        MUL     AB
        ADD     A,#0x23
        MOV     R1,A
        LCALL   ??osal_snv_read?relay; Banked call to: osal_snv_read
        MOV     A,R1
        JNZ     ??GAPBondMgr_ResolveAddr_8
        ; Setup parameters for call to function osal_isbufset
        MOV     R4,#0x10
        MOV     R1,#-0x1
        MOV     R2,?XSP + 0
        MOV     R3,?XSP + 1
        LCALL   ??osal_isbufset?relay; Banked call to: osal_isbufset
        MOV     A,R1
        JNZ     ??GAPBondMgr_ResolveAddr_8
        ; Setup parameters for call to function GAP_ResolvePrivateAddr
        MOV     R4,?V4
        MOV     R5,?V5
        MOV     R2,?XSP + 0
        MOV     R3,?XSP + 1
        LCALL   ??GAP_ResolvePrivateAddr?relay; Banked call to: GAP_ResolvePrivateAddr
        MOV     A,R1
        JZ      ??GAPBondMgr_ResolveAddr_9
??GAPBondMgr_ResolveAddr_8:
        INC     R7
        MOV     A,R7
        CLR     C
        SUBB    A,#0xa
        JNC     ??GAPBondMgr_ResolveAddr_3
        SJMP    ??GAPBondMgr_ResolveAddr_7
??GAPBondMgr_ResolveAddr_9:
        MOV     A,R7
        MOV     R6,A
//  721       if ( (idx < GAP_BONDINGS_MAX) && (pResolvedAddr) )
        CLR     C
        SUBB    A,#0xa
        JNC     ??GAPBondMgr_ResolveAddr_3
??GAPBondMgr_ResolveAddr_6:
        MOV     A,?V0
        ORL     A,?V1
        JZ      ??GAPBondMgr_ResolveAddr_3
//  722       {
//  723         VOID gapBondMgrGetPublicAddr( idx, pResolvedAddr );
        ; Setup parameters for call to function gapBondMgrGetPublicAddr
        MOV     R2,?V0
        MOV     R3,?V1
        MOV     A,R6
        MOV     R1,A
        LCALL   ??gapBondMgrGetPublicAddr?relay; Banked call to: gapBondMgrGetPublicAddr
//  724       }
//  725       break;
//  726 
//  727     default:
//  728       break;
//  729   }
//  730 
//  731   return ( idx );
??GAPBondMgr_ResolveAddr_3:
        MOV     A,R6
        MOV     R1,A
        MOV     A,#0x10
        LJMP    ?Subroutine2 & 0xFFFF
          CFI EndBlock cfiBlock10
//  732 }
//  733 
//  734 /*********************************************************************
//  735  * @brief   Set/clear the service change indication in a bond record.
//  736  *
//  737  * Public function defined in gapbondmgr.h.
//  738  */

        RSEG BANKED_CODE:CODE:NOROOT(0)
//  739 bStatus_t GAPBondMgr_ServiceChangeInd( uint16 connectionHandle, uint8 setParam )
GAPBondMgr_ServiceChangeInd:
          CFI Block cfiBlock11 Using cfiCommon0
          CFI Function GAPBondMgr_ServiceChangeInd
        CODE
//  740 {
        FUNCALL GAPBondMgr_ServiceChangeInd, gapBondMgrChangeState
        LOCFRAME ISTACK, 0, STACK
        LOCFRAME PSTACK, 0, STACK
        LOCFRAME XSTACK, 12, STACK
        LOCFRAME IOVERLAY, 0, STATIC
        LOCFRAME DOVERLAY, 0, STATIC
        ARGFRAME ISTACK, 0, STACK
        ARGFRAME PSTACK, 0, STACK
        ARGFRAME XSTACK, 12, STACK
        ARGFRAME IOVERLAY, 0, STATIC
        ARGFRAME DOVERLAY, 0, STATIC
        FUNCALL GAPBondMgr_ServiceChangeInd, linkDB_PerformFunc
        LOCFRAME ISTACK, 0, STACK
        LOCFRAME PSTACK, 0, STACK
        LOCFRAME XSTACK, 12, STACK
        LOCFRAME IOVERLAY, 0, STATIC
        LOCFRAME DOVERLAY, 0, STATIC
        ARGFRAME ISTACK, 0, STACK
        ARGFRAME PSTACK, 0, STACK
        ARGFRAME XSTACK, 12, STACK
        ARGFRAME IOVERLAY, 0, STATIC
        ARGFRAME DOVERLAY, 0, STATIC
        FUNCALL GAPBondMgr_ServiceChangeInd, linkDB_Find
        LOCFRAME ISTACK, 0, STACK
        LOCFRAME PSTACK, 0, STACK
        LOCFRAME XSTACK, 12, STACK
        LOCFRAME IOVERLAY, 0, STATIC
        LOCFRAME DOVERLAY, 0, STATIC
        ARGFRAME ISTACK, 0, STACK
        ARGFRAME PSTACK, 0, STACK
        ARGFRAME XSTACK, 12, STACK
        ARGFRAME IOVERLAY, 0, STATIC
        ARGFRAME DOVERLAY, 0, STATIC
        FUNCALL GAPBondMgr_ServiceChangeInd, GAPBondMgr_ResolveAddr
        LOCFRAME ISTACK, 0, STACK
        LOCFRAME PSTACK, 0, STACK
        LOCFRAME XSTACK, 12, STACK
        LOCFRAME IOVERLAY, 0, STATIC
        LOCFRAME DOVERLAY, 0, STATIC
        ARGFRAME ISTACK, 0, STACK
        ARGFRAME PSTACK, 0, STACK
        ARGFRAME XSTACK, 12, STACK
        ARGFRAME IOVERLAY, 0, STATIC
        ARGFRAME DOVERLAY, 0, STATIC
        FUNCALL GAPBondMgr_ServiceChangeInd, gapBondMgrChangeState
        LOCFRAME ISTACK, 0, STACK
        LOCFRAME PSTACK, 0, STACK
        LOCFRAME XSTACK, 12, STACK
        LOCFRAME IOVERLAY, 0, STATIC
        LOCFRAME DOVERLAY, 0, STATIC
        ARGFRAME ISTACK, 0, STACK
        ARGFRAME PSTACK, 0, STACK
        ARGFRAME XSTACK, 12, STACK
        ARGFRAME IOVERLAY, 0, STATIC
        ARGFRAME DOVERLAY, 0, STATIC
        FUNCALL GAPBondMgr_ServiceChangeInd, gapBondMgrSendServiceChange
        LOCFRAME ISTACK, 0, STACK
        LOCFRAME PSTACK, 0, STACK
        LOCFRAME XSTACK, 12, STACK
        LOCFRAME IOVERLAY, 0, STATIC
        LOCFRAME DOVERLAY, 0, STATIC
        ARGFRAME ISTACK, 0, STACK
        ARGFRAME PSTACK, 0, STACK
        ARGFRAME XSTACK, 12, STACK
        ARGFRAME IOVERLAY, 0, STATIC
        ARGFRAME DOVERLAY, 0, STATIC
        REQUIRE ?V0
        REQUIRE ?V1
        REQUIRE ?V2
        REQUIRE ?V3
        MOV     A,#-0xc
        LCALL   ?BANKED_ENTER_XDATA
          CFI DPH0 load(1, XDATA, add(CFA_XSP16, literal(-1)))
          CFI DPL0 load(1, XDATA, add(CFA_XSP16, literal(-2)))
          CFI ?BRET_EXT load(1, XDATA, add(CFA_XSP16, literal(-3)))
          CFI ?RET_HIGH load(1, XDATA, add(CFA_XSP16, literal(-4)))
          CFI ?RET_LOW load(1, XDATA, add(CFA_XSP16, literal(-5)))
          CFI R7 load(1, XDATA, add(CFA_XSP16, literal(-6)))
          CFI V3 load(1, XDATA, add(CFA_XSP16, literal(-7)))
          CFI V2 load(1, XDATA, add(CFA_XSP16, literal(-8)))
          CFI V1 load(1, XDATA, add(CFA_XSP16, literal(-9)))
          CFI V0 load(1, XDATA, add(CFA_XSP16, literal(-10)))
          CFI VB load(1, XDATA, add(CFA_XSP16, literal(-11)))
          CFI R6 load(1, XDATA, add(CFA_XSP16, literal(-12)))
          CFI CFA_SP SP+0
          CFI CFA_XSP16 add(XSP16, 12)
        ; Saved register size: 12
        ; Auto size: 0
        MOV     A,R1
        MOV     R7,A
//  741   bStatus_t ret = bleNoResources; // return value
        MOV     R6,#0x15
//  742 
//  743   if ( connectionHandle == 0xFFFF )
        MOV     A,#-0x1
        XRL     A,R2
        JNZ     ??GAPBondMgr_ServiceChangeInd_0
        MOV     A,#-0x1
        XRL     A,R3
??GAPBondMgr_ServiceChangeInd_0:
        JNZ     ??GAPBondMgr_ServiceChangeInd_1
//  744   {
//  745     uint8 idx;  // loop counter
//  746 
//  747     // Run through the bond database and update the Service Change indication
//  748     for ( idx = 0; idx < GAP_BONDINGS_MAX; idx++ )
        MOV     ?V0,#0x0
//  749     {
//  750       if ( gapBondMgrChangeState( idx, GAP_BONDED_STATE_SERVICE_CHANGED, setParam ) )
??GAPBondMgr_ServiceChangeInd_2:
        ; Setup parameters for call to function gapBondMgrChangeState
        MOV     A,R7
        MOV     R4,A
        MOV     R2,#0x2
        MOV     R3,#0x0
        MOV     R1,?V0
        LCALL   ??gapBondMgrChangeState?relay; Banked call to: gapBondMgrChangeState
        MOV     A,R1
        JZ      ??GAPBondMgr_ServiceChangeInd_3
//  751       {
//  752         ret = SUCCESS;
        MOV     R6,#0x0
//  753       }
//  754     }
??GAPBondMgr_ServiceChangeInd_3:
        INC     ?V0
        MOV     A,?V0
        CLR     C
        SUBB    A,#0xa
        JC      ??GAPBondMgr_ServiceChangeInd_2
//  755 
//  756     // If the service change indication is TRUE, tell the connected devices
//  757     if ( setParam )
        MOV     A,R7
        JZ      ??GAPBondMgr_ServiceChangeInd_4
//  758     {
//  759       // Run connected database
//  760       linkDB_PerformFunc( gapBondMgrSendServiceChange );
        ; Setup parameters for call to function linkDB_PerformFunc
        MOV     R2,#??gapBondMgrSendServiceChange?relay & 0xff
        MOV     R3,#(??gapBondMgrSendServiceChange?relay >> 8) & 0xff
        LCALL   ??linkDB_PerformFunc?relay; Banked call to: linkDB_PerformFunc
        SJMP    ??GAPBondMgr_ServiceChangeInd_4
//  761     }
//  762   }
//  763   else
//  764   {
//  765     // Find connection information
//  766     linkDBItem_t *pLinkItem = linkDB_Find( connectionHandle );
??GAPBondMgr_ServiceChangeInd_1:
        ; Setup parameters for call to function linkDB_Find
        LCALL   ??linkDB_Find?relay  ; Banked call to: linkDB_Find
        MOV     ?V0,R2
        MOV     ?V1,R3
//  767     if ( pLinkItem )
        MOV     A,R2
        ORL     A,?V1
        JZ      ??GAPBondMgr_ServiceChangeInd_5
//  768     {
//  769       uint8 idx; // loop counter
//  770       idx = GAPBondMgr_ResolveAddr( pLinkItem->addrType, pLinkItem->addr, NULL );
        ; Setup parameters for call to function GAPBondMgr_ResolveAddr
        MOV     R4,#0x0
        MOV     R5,#0x0
        MOV     A,R2
        ADD     A,#0x5
        MOV     R2,A
        CLR     A
        ADDC    A,?V1
        MOV     R3,A
        MOV     DPL,?V0
        MOV     DPH,?V1
        INC     DPTR
        INC     DPTR
        INC     DPTR
        INC     DPTR
        MOVX    A,@DPTR
        MOV     R1,A
        LCALL   ??GAPBondMgr_ResolveAddr?relay; Banked call to: GAPBondMgr_ResolveAddr
        MOV     A,R1
//  771       if ( idx < GAP_BONDINGS_MAX )
        CLR     C
        SUBB    A,#0xa
        JNC     ??GAPBondMgr_ServiceChangeInd_6
//  772       {
//  773         // Bond found, update it.
//  774         VOID gapBondMgrChangeState( idx, GAP_BONDED_STATE_SERVICE_CHANGED, setParam );
        ; Setup parameters for call to function gapBondMgrChangeState
        MOV     A,R7
        MOV     R4,A
        MOV     R2,#0x2
        MOV     R3,#0x0
        LCALL   ??gapBondMgrChangeState?relay; Banked call to: gapBondMgrChangeState
//  775         ret = SUCCESS;
        MOV     R6,#0x0
//  776       }
//  777 
//  778       // If the service change indication is TRUE, tell the connected device
//  779       if ( setParam )
??GAPBondMgr_ServiceChangeInd_6:
        MOV     A,R7
        JZ      ??GAPBondMgr_ServiceChangeInd_4
//  780       {
//  781         gapBondMgrSendServiceChange( pLinkItem );
        ; Setup parameters for call to function gapBondMgrSendServiceChange
        MOV     R2,?V0
        MOV     R3,?V1
        LCALL   ??gapBondMgrSendServiceChange?relay; Banked call to: gapBondMgrSendServiceChange
        SJMP    ??GAPBondMgr_ServiceChangeInd_4
//  782       }
//  783     }
//  784     else
//  785     {
//  786       ret = bleNotConnected;
??GAPBondMgr_ServiceChangeInd_5:
        DEC     R6
//  787     }
//  788   }
//  789 
//  790   return ( ret );
??GAPBondMgr_ServiceChangeInd_4:
        MOV     A,R6
        MOV     R1,A
        LJMP    ??Subroutine30_0 & 0xFFFF
          CFI EndBlock cfiBlock11
//  791 }
//  792 
//  793 /*********************************************************************
//  794  * @brief   Update the Characteristic Configuration in a bond record.
//  795  *
//  796  * Public function defined in gapbondmgr.h.
//  797  */

        RSEG BANKED_CODE:CODE:NOROOT(0)
//  798 bStatus_t GAPBondMgr_UpdateCharCfg( uint16 connectionHandle, uint16 attrHandle, uint16 value )
GAPBondMgr_UpdateCharCfg:
          CFI Block cfiBlock12 Using cfiCommon0
          CFI Function GAPBondMgr_UpdateCharCfg
        CODE
//  799 {
        FUNCALL GAPBondMgr_UpdateCharCfg, gapBondMgrUpdateCharCfg
        LOCFRAME ISTACK, 0, STACK
        LOCFRAME PSTACK, 0, STACK
        LOCFRAME XSTACK, 14, STACK
        LOCFRAME IOVERLAY, 0, STATIC
        LOCFRAME DOVERLAY, 0, STATIC
        ARGFRAME ISTACK, 0, STACK
        ARGFRAME PSTACK, 0, STACK
        ARGFRAME XSTACK, 14, STACK
        ARGFRAME IOVERLAY, 0, STATIC
        ARGFRAME DOVERLAY, 0, STATIC
        FUNCALL GAPBondMgr_UpdateCharCfg, linkDB_Find
        LOCFRAME ISTACK, 0, STACK
        LOCFRAME PSTACK, 0, STACK
        LOCFRAME XSTACK, 14, STACK
        LOCFRAME IOVERLAY, 0, STATIC
        LOCFRAME DOVERLAY, 0, STATIC
        ARGFRAME ISTACK, 0, STACK
        ARGFRAME PSTACK, 0, STACK
        ARGFRAME XSTACK, 14, STACK
        ARGFRAME IOVERLAY, 0, STATIC
        ARGFRAME DOVERLAY, 0, STATIC
        FUNCALL GAPBondMgr_UpdateCharCfg, GAPBondMgr_ResolveAddr
        LOCFRAME ISTACK, 0, STACK
        LOCFRAME PSTACK, 0, STACK
        LOCFRAME XSTACK, 14, STACK
        LOCFRAME IOVERLAY, 0, STATIC
        LOCFRAME DOVERLAY, 0, STATIC
        ARGFRAME ISTACK, 0, STACK
        ARGFRAME PSTACK, 0, STACK
        ARGFRAME XSTACK, 14, STACK
        ARGFRAME IOVERLAY, 0, STATIC
        ARGFRAME DOVERLAY, 0, STATIC
        FUNCALL GAPBondMgr_UpdateCharCfg, gapBondMgrUpdateCharCfg
        LOCFRAME ISTACK, 0, STACK
        LOCFRAME PSTACK, 0, STACK
        LOCFRAME XSTACK, 14, STACK
        LOCFRAME IOVERLAY, 0, STATIC
        LOCFRAME DOVERLAY, 0, STATIC
        ARGFRAME ISTACK, 0, STACK
        ARGFRAME PSTACK, 0, STACK
        ARGFRAME XSTACK, 14, STACK
        ARGFRAME IOVERLAY, 0, STATIC
        ARGFRAME DOVERLAY, 0, STATIC
        REQUIRE ?V0
        REQUIRE ?V1
        REQUIRE ?V2
        REQUIRE ?V3
        REQUIRE ?V4
        REQUIRE ?V5
        MOV     A,#-0xe
        LCALL   ?BANKED_ENTER_XDATA
          CFI DPH0 load(1, XDATA, add(CFA_XSP16, literal(-1)))
          CFI DPL0 load(1, XDATA, add(CFA_XSP16, literal(-2)))
          CFI ?BRET_EXT load(1, XDATA, add(CFA_XSP16, literal(-3)))
          CFI ?RET_HIGH load(1, XDATA, add(CFA_XSP16, literal(-4)))
          CFI ?RET_LOW load(1, XDATA, add(CFA_XSP16, literal(-5)))
          CFI R7 load(1, XDATA, add(CFA_XSP16, literal(-6)))
          CFI V5 load(1, XDATA, add(CFA_XSP16, literal(-7)))
          CFI V4 load(1, XDATA, add(CFA_XSP16, literal(-8)))
          CFI V3 load(1, XDATA, add(CFA_XSP16, literal(-9)))
          CFI V2 load(1, XDATA, add(CFA_XSP16, literal(-10)))
          CFI V1 load(1, XDATA, add(CFA_XSP16, literal(-11)))
          CFI V0 load(1, XDATA, add(CFA_XSP16, literal(-12)))
          CFI VB load(1, XDATA, add(CFA_XSP16, literal(-13)))
          CFI R6 load(1, XDATA, add(CFA_XSP16, literal(-14)))
          CFI CFA_SP SP+0
          CFI CFA_XSP16 add(XSP16, 14)
        ; Saved register size: 14
        ; Auto size: 0
        MOV     ?V0,R4
        MOV     ?V1,R5
//  800   bStatus_t ret = bleNoResources; // return value
        MOV     R6,#0x15
        MOV     A,#0xe
        LCALL   ?XSTACK_DISP0_8
        MOVX    A,@DPTR
        MOV     ?V2,A
        INC     DPTR
        MOVX    A,@DPTR
        MOV     ?V3,A
//  801 
//  802   if ( connectionHandle == INVALID_CONNHANDLE )
        MOV     A,#-0x1
        XRL     A,R2
        JNZ     ??GAPBondMgr_UpdateCharCfg_0
        MOV     A,#-0x1
        XRL     A,R3
??GAPBondMgr_UpdateCharCfg_0:
        JNZ     ??GAPBondMgr_UpdateCharCfg_1
//  803   {
//  804     uint8 idx;  // loop counter
//  805 
//  806     // Run through the bond database and update the Characteristic Configuration
//  807     for ( idx = 0; idx < GAP_BONDINGS_MAX; idx++ )
        MOV     R7,#0x0
//  808     {
//  809       if ( gapBondMgrUpdateCharCfg( idx, attrHandle, value ) )
??GAPBondMgr_UpdateCharCfg_2:
        ; Setup parameters for call to function gapBondMgrUpdateCharCfg
        MOV     R4,?V2
        MOV     R5,?V3
        MOV     R2,?V0
        MOV     R3,?V1
        MOV     A,R7
        MOV     R1,A
        LCALL   ??gapBondMgrUpdateCharCfg?relay; Banked call to: gapBondMgrUpdateCharCfg
        MOV     A,R1
        JZ      ??GAPBondMgr_UpdateCharCfg_3
//  810       {
//  811         ret = SUCCESS;
        MOV     R6,#0x0
//  812       }
//  813     }
??GAPBondMgr_UpdateCharCfg_3:
        INC     R7
        MOV     A,R7
        CLR     C
        SUBB    A,#0xa
        JNC     ??GAPBondMgr_UpdateCharCfg_4
        SJMP    ??GAPBondMgr_UpdateCharCfg_2
//  814   }
//  815   else
//  816   {
//  817     // Find connection information
//  818     linkDBItem_t *pLinkItem = linkDB_Find( connectionHandle );
??GAPBondMgr_UpdateCharCfg_1:
        ; Setup parameters for call to function linkDB_Find
        LCALL   ??linkDB_Find?relay  ; Banked call to: linkDB_Find
        MOV     DPL,R2
        MOV     DPH,R3
//  819     if ( pLinkItem )
        MOV     A,DPL
        ORL     A,DPH
        JZ      ??GAPBondMgr_UpdateCharCfg_5
//  820     {
//  821       uint8 idx = GAPBondMgr_ResolveAddr( pLinkItem->addrType, pLinkItem->addr, NULL );
        ; Setup parameters for call to function GAPBondMgr_ResolveAddr
        MOV     R4,#0x0
        MOV     R5,#0x0
        MOV     A,DPL
        ADD     A,#0x5
        MOV     R2,A
        CLR     A
        ADDC    A,DPH
        MOV     R3,A
        INC     DPTR
        INC     DPTR
        INC     DPTR
        INC     DPTR
        MOVX    A,@DPTR
        MOV     R1,A
        LCALL   ??GAPBondMgr_ResolveAddr?relay; Banked call to: GAPBondMgr_ResolveAddr
        MOV     A,R1
//  822       if ( idx < GAP_BONDINGS_MAX )
        CLR     C
        SUBB    A,#0xa
        JNC     ??GAPBondMgr_UpdateCharCfg_4
//  823       {
//  824         // Bond found, update it.
//  825         VOID gapBondMgrUpdateCharCfg( idx, attrHandle, value );
        ; Setup parameters for call to function gapBondMgrUpdateCharCfg
        MOV     R4,?V2
        MOV     R5,?V3
        MOV     R2,?V0
        MOV     R3,?V1
        LCALL   ??gapBondMgrUpdateCharCfg?relay; Banked call to: gapBondMgrUpdateCharCfg
//  826         ret = SUCCESS;
        MOV     R6,#0x0
        SJMP    ??GAPBondMgr_UpdateCharCfg_4
//  827       }
//  828     }
//  829     else
//  830     {
//  831       ret = bleNotConnected;
??GAPBondMgr_UpdateCharCfg_5:
        DEC     R6
//  832     }
//  833   }
//  834 
//  835   return ( ret );
??GAPBondMgr_UpdateCharCfg_4:
        MOV     A,R6
        MOV     R1,A
          CFI EndBlock cfiBlock12
        REQUIRE ?Subroutine3
        ; // Fall through to label ?Subroutine3
//  836 }

        RSEG BANKED_CODE:CODE:NOROOT(0)
?Subroutine3:
          CFI Block cfiBlock13 Using cfiCommon0
          CFI NoFunction
          CFI CFA_SP SP+0
          CFI CFA_XSP16 add(XSP16, 14)
          CFI VB load(1, XDATA, add(CFA_XSP16, literal(-13)))
          CFI DPL0 load(1, XDATA, add(CFA_XSP16, literal(-2)))
          CFI DPH0 load(1, XDATA, add(CFA_XSP16, literal(-1)))
          CFI R6 load(1, XDATA, add(CFA_XSP16, literal(-14)))
          CFI R7 load(1, XDATA, add(CFA_XSP16, literal(-6)))
          CFI V0 load(1, XDATA, add(CFA_XSP16, literal(-12)))
          CFI V1 load(1, XDATA, add(CFA_XSP16, literal(-11)))
          CFI V2 load(1, XDATA, add(CFA_XSP16, literal(-10)))
          CFI V3 load(1, XDATA, add(CFA_XSP16, literal(-9)))
          CFI V4 load(1, XDATA, add(CFA_XSP16, literal(-8)))
          CFI V5 load(1, XDATA, add(CFA_XSP16, literal(-7)))
          CFI ?BRET_EXT load(1, XDATA, add(CFA_XSP16, literal(-3)))
          CFI ?RET_HIGH load(1, XDATA, add(CFA_XSP16, literal(-4)))
          CFI ?RET_LOW load(1, XDATA, add(CFA_XSP16, literal(-5)))
        MOV     R7,#0x6
        LJMP    ?BANKED_LEAVE_XDATA
          CFI EndBlock cfiBlock13
//  837 
//  838 /*********************************************************************
//  839  * @brief   Register callback functions with the bond manager.
//  840  *
//  841  * Public function defined in gapbondmgr.h.
//  842  */

        RSEG BANKED_CODE:CODE:NOROOT(0)
//  843 void GAPBondMgr_Register( gapBondCBs_t *pCB )
GAPBondMgr_Register:
          CFI Block cfiBlock14 Using cfiCommon0
          CFI Function GAPBondMgr_Register
        CODE
//  844 {
        FUNCALL GAPBondMgr_Register, GAP_SetParamValue
        LOCFRAME ISTACK, 2, STACK
        LOCFRAME PSTACK, 0, STACK
        LOCFRAME XSTACK, 0, STACK
        LOCFRAME IOVERLAY, 0, STATIC
        LOCFRAME DOVERLAY, 0, STATIC
        ARGFRAME ISTACK, 2, STACK
        ARGFRAME PSTACK, 0, STACK
        ARGFRAME XSTACK, 0, STACK
        ARGFRAME IOVERLAY, 0, STATIC
        ARGFRAME DOVERLAY, 0, STATIC
        FUNCALL GAPBondMgr_Register, GATTServApp_RegisterForMsg
        LOCFRAME ISTACK, 2, STACK
        LOCFRAME PSTACK, 0, STACK
        LOCFRAME XSTACK, 0, STACK
        LOCFRAME IOVERLAY, 0, STATIC
        LOCFRAME DOVERLAY, 0, STATIC
        ARGFRAME ISTACK, 2, STACK
        ARGFRAME PSTACK, 0, STACK
        ARGFRAME XSTACK, 0, STACK
        ARGFRAME IOVERLAY, 0, STATIC
        ARGFRAME DOVERLAY, 0, STATIC
        PUSH    DPL
          CFI DPL0 Frame(CFA_SP, 4)
          CFI CFA_SP SP+-4
        PUSH    DPH
          CFI DPH0 Frame(CFA_SP, 5)
          CFI CFA_SP SP+-5
        ; Saved register size: 2
        ; Auto size: 0
//  845   pGapBondCB = pCB;
        MOV     DPTR,#pGapBondCB
        MOV     A,R2
        MOVX    @DPTR,A
        INC     DPTR
        MOV     A,R3
        MOVX    @DPTR,A
//  846 
//  847   // Take over the processing of Authentication messages
//  848   VOID GAP_SetParamValue( TGAP_AUTH_TASK_ID, gapBondMgr_TaskID );
        ; Setup parameters for call to function GAP_SetParamValue
        MOV     DPTR,#gapBondMgr_TaskID
        MOVX    A,@DPTR
        MOV     R4,A
        MOV     R5,#0x0
        MOV     R2,#0x26
        MOV     R3,#0x0
        LCALL   ??GAP_SetParamValue?relay; Banked call to: GAP_SetParamValue
//  849 
//  850   // Register with GATT Server App for event messages
//  851   GATTServApp_RegisterForMsg( gapBondMgr_TaskID );
        ; Setup parameters for call to function GATTServApp_RegisterForMsg
        MOV     DPTR,#gapBondMgr_TaskID
        MOVX    A,@DPTR
        MOV     R1,A
        LCALL   ??GATTServApp_RegisterForMsg?relay; Banked call to: GATTServApp_RegisterForMsg
//  852 }
        LJMP    ?Subroutine4 & 0xFFFF
          CFI EndBlock cfiBlock14
//  853 
//  854 /*********************************************************************
//  855  * @brief   Respond to a passcode request.
//  856  *
//  857  * Public function defined in gapbondmgr.h.
//  858  */

        RSEG BANKED_CODE:CODE:NOROOT(0)
//  859 bStatus_t GAPBondMgr_PasscodeRsp( uint16 connectionHandle, uint8 status, uint32 passcode )
GAPBondMgr_PasscodeRsp:
          CFI Block cfiBlock15 Using cfiCommon0
          CFI Function GAPBondMgr_PasscodeRsp
        CODE
//  860 {
        FUNCALL GAPBondMgr_PasscodeRsp, GAP_PasscodeUpdate
        LOCFRAME ISTACK, 0, STACK
        LOCFRAME PSTACK, 0, STACK
        LOCFRAME XSTACK, 19, STACK
        LOCFRAME IOVERLAY, 0, STATIC
        LOCFRAME DOVERLAY, 0, STATIC
        ARGFRAME ISTACK, 0, STACK
        ARGFRAME PSTACK, 0, STACK
        ARGFRAME XSTACK, 19, STACK
        ARGFRAME IOVERLAY, 0, STATIC
        ARGFRAME DOVERLAY, 0, STATIC
        FUNCALL GAPBondMgr_PasscodeRsp, GAP_TerminateAuth
        LOCFRAME ISTACK, 0, STACK
        LOCFRAME PSTACK, 0, STACK
        LOCFRAME XSTACK, 17, STACK
        LOCFRAME IOVERLAY, 0, STATIC
        LOCFRAME DOVERLAY, 0, STATIC
        ARGFRAME ISTACK, 0, STACK
        ARGFRAME PSTACK, 0, STACK
        ARGFRAME XSTACK, 17, STACK
        ARGFRAME IOVERLAY, 0, STATIC
        ARGFRAME DOVERLAY, 0, STATIC
        FUNCALL GAPBondMgr_PasscodeRsp, GAP_TerminateAuth
        LOCFRAME ISTACK, 0, STACK
        LOCFRAME PSTACK, 0, STACK
        LOCFRAME XSTACK, 17, STACK
        LOCFRAME IOVERLAY, 0, STATIC
        LOCFRAME DOVERLAY, 0, STATIC
        ARGFRAME ISTACK, 0, STACK
        ARGFRAME PSTACK, 0, STACK
        ARGFRAME XSTACK, 17, STACK
        ARGFRAME IOVERLAY, 0, STATIC
        ARGFRAME DOVERLAY, 0, STATIC
        REQUIRE ?V0
        REQUIRE ?V1
        REQUIRE ?V2
        REQUIRE ?V3
        REQUIRE ?V4
        REQUIRE ?V5
        REQUIRE ?V6
        REQUIRE ?V7
        MOV     A,#-0x10
        LCALL   ?BANKED_ENTER_XDATA
          CFI DPH0 load(1, XDATA, add(CFA_XSP16, literal(-1)))
          CFI DPL0 load(1, XDATA, add(CFA_XSP16, literal(-2)))
          CFI ?BRET_EXT load(1, XDATA, add(CFA_XSP16, literal(-3)))
          CFI ?RET_HIGH load(1, XDATA, add(CFA_XSP16, literal(-4)))
          CFI ?RET_LOW load(1, XDATA, add(CFA_XSP16, literal(-5)))
          CFI R7 load(1, XDATA, add(CFA_XSP16, literal(-6)))
          CFI V7 load(1, XDATA, add(CFA_XSP16, literal(-7)))
          CFI V6 load(1, XDATA, add(CFA_XSP16, literal(-8)))
          CFI V5 load(1, XDATA, add(CFA_XSP16, literal(-9)))
          CFI V4 load(1, XDATA, add(CFA_XSP16, literal(-10)))
          CFI V3 load(1, XDATA, add(CFA_XSP16, literal(-11)))
          CFI V2 load(1, XDATA, add(CFA_XSP16, literal(-12)))
          CFI V1 load(1, XDATA, add(CFA_XSP16, literal(-13)))
          CFI V0 load(1, XDATA, add(CFA_XSP16, literal(-14)))
          CFI VB load(1, XDATA, add(CFA_XSP16, literal(-15)))
          CFI R6 load(1, XDATA, add(CFA_XSP16, literal(-16)))
          CFI CFA_SP SP+0
          CFI CFA_XSP16 add(XSP16, 16)
        ; Saved register size: 16
        ; Auto size: 1
        MOV     A,#-0x1
        LCALL   ?ALLOC_XSTACK8
          CFI CFA_XSP16 add(XSP16, 17)
        MOV     A,R1
        MOV     DPL,?XSP + 0
        MOV     DPH,?XSP + 1
        MOVX    @DPTR,A
        MOV     A,R2
        MOV     R6,A
        MOV     A,R3
        MOV     R7,A
//  861   bStatus_t ret = SUCCESS;
        MOV     ?V0,#0x0
//  862 
//  863   if ( status == SUCCESS )
        MOVX    A,@DPTR
        JNZ     ??GAPBondMgr_PasscodeRsp_0
//  864   {
//  865     // Truncate the passcode
//  866     passcode = passcode % (GAP_PASSCODE_MAX + 1);
//  867 
//  868     ret = GAP_PasscodeUpdate( passcode, connectionHandle );
        ; Setup parameters for call to function GAP_PasscodeUpdate
        MOV     ?V0,R6
        MOV     ?V1,R7
        MOV     R0,#?V0
        LCALL   ?PUSH_XSTACK_I_TWO
          CFI CFA_XSP16 add(XSP16, 19)
        MOV     A,#0x13
        LCALL   ?XSTACK_DISP0_8
        MOV     R0,#?V4
        LCALL   ?L_MOV_X
        MOV     DPTR,#__Constant_f4240
        MOV     R0,#?V0
        LCALL   ?L_MOV_X
        MOV     R0,#?V4
        MOV     R1,#?V0
        LCALL   ?UL_DIV_MOD
        MOV     R2,?V0
        MOV     R3,?V1
        MOV     R4,?V2
        MOV     R5,?V3
        LCALL   ??GAP_PasscodeUpdate?relay; Banked call to: GAP_PasscodeUpdate
        MOV     A,#0x2
        LCALL   ?DEALLOC_XSTACK8
          CFI CFA_XSP16 add(XSP16, 17)
        MOV     A,R1
        MOV     ?V0,A
//  869     if ( ret != SUCCESS )
        JZ      ??GAPBondMgr_PasscodeRsp_1
//  870     {
//  871       VOID GAP_TerminateAuth( connectionHandle, SMP_PAIRING_FAILED_PASSKEY_ENTRY_FAILED );
        ; Setup parameters for call to function GAP_TerminateAuth
        MOV     R1,#0x1
        MOV     A,R6
        MOV     R2,A
        MOV     A,R7
        MOV     R3,A
//  872     }
//  873   }
//  874   else
//  875   {
//  876     VOID GAP_TerminateAuth( connectionHandle, status );
??GAPBondMgr_PasscodeRsp_0:
        ; Setup parameters for call to function GAP_TerminateAuth
        LCALL   ??GAP_TerminateAuth?relay; Banked call to: GAP_TerminateAuth
//  877   }
//  878 
//  879   return ret;
??GAPBondMgr_PasscodeRsp_1:
        MOV     R1,?V0
        MOV     A,#0x1
        LJMP    ?Subroutine0 & 0xFFFF
          CFI EndBlock cfiBlock15
//  880 }
//  881 
//  882 /*********************************************************************
//  883  * @brief   This is a bypass mechanism to allow the bond manager to process
//  884  *              GAP messages.
//  885  *
//  886  * Public function defined in gapbondmgr.h.
//  887  */

        RSEG BANKED_CODE:CODE:NOROOT(0)
//  888 uint8 GAPBondMgr_ProcessGAPMsg( gapEventHdr_t *pMsg )
GAPBondMgr_ProcessGAPMsg:
          CFI Block cfiBlock16 Using cfiCommon0
          CFI Function GAPBondMgr_ProcessGAPMsg
        CODE
//  889 {
        FUNCALL GAPBondMgr_ProcessGAPMsg, GAP_PasscodeUpdate
        LOCFRAME ISTACK, 0, STACK
        LOCFRAME PSTACK, 0, STACK
        LOCFRAME XSTACK, 38, STACK
        LOCFRAME IOVERLAY, 0, STATIC
        LOCFRAME DOVERLAY, 0, STATIC
        ARGFRAME ISTACK, 0, STACK
        ARGFRAME PSTACK, 0, STACK
        ARGFRAME XSTACK, 38, STACK
        ARGFRAME IOVERLAY, 0, STATIC
        ARGFRAME DOVERLAY, 0, STATIC
        FUNCALL GAPBondMgr_ProcessGAPMsg, GAP_TerminateAuth
        LOCFRAME ISTACK, 0, STACK
        LOCFRAME PSTACK, 0, STACK
        LOCFRAME XSTACK, 36, STACK
        LOCFRAME IOVERLAY, 0, STATIC
        LOCFRAME DOVERLAY, 0, STATIC
        ARGFRAME ISTACK, 0, STACK
        ARGFRAME PSTACK, 0, STACK
        ARGFRAME XSTACK, 36, STACK
        ARGFRAME IOVERLAY, 0, STATIC
        ARGFRAME DOVERLAY, 0, STATIC
        FUNCALL GAPBondMgr_ProcessGAPMsg, osal_memset
        LOCFRAME ISTACK, 0, STACK
        LOCFRAME PSTACK, 0, STACK
        LOCFRAME XSTACK, 36, STACK
        LOCFRAME IOVERLAY, 0, STATIC
        LOCFRAME DOVERLAY, 0, STATIC
        ARGFRAME ISTACK, 0, STACK
        ARGFRAME PSTACK, 0, STACK
        ARGFRAME XSTACK, 36, STACK
        ARGFRAME IOVERLAY, 0, STATIC
        ARGFRAME DOVERLAY, 0, STATIC
        FUNCALL GAPBondMgr_ProcessGAPMsg, osal_memcpy
        LOCFRAME ISTACK, 0, STACK
        LOCFRAME PSTACK, 0, STACK
        LOCFRAME XSTACK, 38, STACK
        LOCFRAME IOVERLAY, 0, STATIC
        LOCFRAME DOVERLAY, 0, STATIC
        ARGFRAME ISTACK, 0, STACK
        ARGFRAME PSTACK, 0, STACK
        ARGFRAME XSTACK, 38, STACK
        ARGFRAME IOVERLAY, 0, STATIC
        ARGFRAME DOVERLAY, 0, STATIC
        FUNCALL GAPBondMgr_ProcessGAPMsg, linkDB_Find
        LOCFRAME ISTACK, 0, STACK
        LOCFRAME PSTACK, 0, STACK
        LOCFRAME XSTACK, 36, STACK
        LOCFRAME IOVERLAY, 0, STATIC
        LOCFRAME DOVERLAY, 0, STATIC
        ARGFRAME ISTACK, 0, STACK
        ARGFRAME PSTACK, 0, STACK
        ARGFRAME XSTACK, 36, STACK
        ARGFRAME IOVERLAY, 0, STATIC
        ARGFRAME DOVERLAY, 0, STATIC
        FUNCALL GAPBondMgr_ProcessGAPMsg, osal_memcpy
        LOCFRAME ISTACK, 0, STACK
        LOCFRAME PSTACK, 0, STACK
        LOCFRAME XSTACK, 38, STACK
        LOCFRAME IOVERLAY, 0, STATIC
        LOCFRAME DOVERLAY, 0, STATIC
        ARGFRAME ISTACK, 0, STACK
        ARGFRAME PSTACK, 0, STACK
        ARGFRAME XSTACK, 38, STACK
        ARGFRAME IOVERLAY, 0, STATIC
        ARGFRAME DOVERLAY, 0, STATIC
        FUNCALL GAPBondMgr_ProcessGAPMsg, gapBondMgrAddBond
        LOCFRAME ISTACK, 0, STACK
        LOCFRAME PSTACK, 0, STACK
        LOCFRAME XSTACK, 36, STACK
        LOCFRAME IOVERLAY, 0, STATIC
        LOCFRAME DOVERLAY, 0, STATIC
        ARGFRAME ISTACK, 0, STACK
        ARGFRAME PSTACK, 0, STACK
        ARGFRAME XSTACK, 36, STACK
        ARGFRAME IOVERLAY, 0, STATIC
        ARGFRAME DOVERLAY, 0, STATIC
        FUNCALL GAPBondMgr_ProcessGAPMsg, osal_set_event
        LOCFRAME ISTACK, 0, STACK
        LOCFRAME PSTACK, 0, STACK
        LOCFRAME XSTACK, 36, STACK
        LOCFRAME IOVERLAY, 0, STATIC
        LOCFRAME DOVERLAY, 0, STATIC
        ARGFRAME ISTACK, 0, STACK
        ARGFRAME PSTACK, 0, STACK
        ARGFRAME XSTACK, 36, STACK
        ARGFRAME IOVERLAY, 0, STATIC
        ARGFRAME DOVERLAY, 0, STATIC
        FUNCALL GAPBondMgr_ProcessGAPMsg, linkDB_Find
        LOCFRAME ISTACK, 0, STACK
        LOCFRAME PSTACK, 0, STACK
        LOCFRAME XSTACK, 36, STACK
        LOCFRAME IOVERLAY, 0, STATIC
        LOCFRAME DOVERLAY, 0, STATIC
        ARGFRAME ISTACK, 0, STACK
        ARGFRAME PSTACK, 0, STACK
        ARGFRAME XSTACK, 36, STACK
        ARGFRAME IOVERLAY, 0, STATIC
        ARGFRAME DOVERLAY, 0, STATIC
        FUNCALL GAPBondMgr_ProcessGAPMsg, gapBondMgrAuthenticate
        LOCFRAME ISTACK, 0, STACK
        LOCFRAME PSTACK, 0, STACK
        LOCFRAME XSTACK, 36, STACK
        LOCFRAME IOVERLAY, 0, STATIC
        LOCFRAME DOVERLAY, 0, STATIC
        ARGFRAME ISTACK, 0, STACK
        ARGFRAME PSTACK, 0, STACK
        ARGFRAME XSTACK, 36, STACK
        ARGFRAME IOVERLAY, 0, STATIC
        ARGFRAME DOVERLAY, 0, STATIC
        FUNCALL GAPBondMgr_ProcessGAPMsg, GAP_TerminateLinkReq
        LOCFRAME ISTACK, 0, STACK
        LOCFRAME PSTACK, 0, STACK
        LOCFRAME XSTACK, 36, STACK
        LOCFRAME IOVERLAY, 0, STATIC
        LOCFRAME DOVERLAY, 0, STATIC
        ARGFRAME ISTACK, 0, STACK
        ARGFRAME PSTACK, 0, STACK
        ARGFRAME XSTACK, 36, STACK
        ARGFRAME IOVERLAY, 0, STATIC
        ARGFRAME DOVERLAY, 0, STATIC
        FUNCALL GAPBondMgr_ProcessGAPMsg, GAPBondMgr_SetParameter
        LOCFRAME ISTACK, 0, STACK
        LOCFRAME PSTACK, 0, STACK
        LOCFRAME XSTACK, 36, STACK
        LOCFRAME IOVERLAY, 0, STATIC
        LOCFRAME DOVERLAY, 0, STATIC
        ARGFRAME ISTACK, 0, STACK
        ARGFRAME PSTACK, 0, STACK
        ARGFRAME XSTACK, 36, STACK
        ARGFRAME IOVERLAY, 0, STATIC
        ARGFRAME DOVERLAY, 0, STATIC
        FUNCALL GAPBondMgr_ProcessGAPMsg, GAP_TerminateLinkReq
        LOCFRAME ISTACK, 0, STACK
        LOCFRAME PSTACK, 0, STACK
        LOCFRAME XSTACK, 36, STACK
        LOCFRAME IOVERLAY, 0, STATIC
        LOCFRAME DOVERLAY, 0, STATIC
        ARGFRAME ISTACK, 0, STACK
        ARGFRAME PSTACK, 0, STACK
        ARGFRAME XSTACK, 36, STACK
        ARGFRAME IOVERLAY, 0, STATIC
        ARGFRAME DOVERLAY, 0, STATIC
        FUNCALL GAPBondMgr_ProcessGAPMsg, GAPBondMgr_ResolveAddr
        LOCFRAME ISTACK, 0, STACK
        LOCFRAME PSTACK, 0, STACK
        LOCFRAME XSTACK, 36, STACK
        LOCFRAME IOVERLAY, 0, STATIC
        LOCFRAME DOVERLAY, 0, STATIC
        ARGFRAME ISTACK, 0, STACK
        ARGFRAME PSTACK, 0, STACK
        ARGFRAME XSTACK, 36, STACK
        ARGFRAME IOVERLAY, 0, STATIC
        ARGFRAME DOVERLAY, 0, STATIC
        FUNCALL GAPBondMgr_ProcessGAPMsg, osal_snv_write
        LOCFRAME ISTACK, 0, STACK
        LOCFRAME PSTACK, 0, STACK
        LOCFRAME XSTACK, 36, STACK
        LOCFRAME IOVERLAY, 0, STATIC
        LOCFRAME DOVERLAY, 0, STATIC
        ARGFRAME ISTACK, 0, STACK
        ARGFRAME PSTACK, 0, STACK
        ARGFRAME XSTACK, 36, STACK
        ARGFRAME IOVERLAY, 0, STATIC
        ARGFRAME DOVERLAY, 0, STATIC
        FUNCALL GAPBondMgr_ProcessGAPMsg, GAP_TerminateAuth
        LOCFRAME ISTACK, 0, STACK
        LOCFRAME PSTACK, 0, STACK
        LOCFRAME XSTACK, 36, STACK
        LOCFRAME IOVERLAY, 0, STATIC
        LOCFRAME DOVERLAY, 0, STATIC
        ARGFRAME ISTACK, 0, STACK
        ARGFRAME PSTACK, 0, STACK
        ARGFRAME XSTACK, 36, STACK
        ARGFRAME IOVERLAY, 0, STATIC
        ARGFRAME DOVERLAY, 0, STATIC
        FUNCALL GAPBondMgr_ProcessGAPMsg, GAP_TerminateAuth
        LOCFRAME ISTACK, 0, STACK
        LOCFRAME PSTACK, 0, STACK
        LOCFRAME XSTACK, 36, STACK
        LOCFRAME IOVERLAY, 0, STATIC
        LOCFRAME DOVERLAY, 0, STATIC
        ARGFRAME ISTACK, 0, STACK
        ARGFRAME PSTACK, 0, STACK
        ARGFRAME XSTACK, 36, STACK
        ARGFRAME IOVERLAY, 0, STATIC
        ARGFRAME DOVERLAY, 0, STATIC
        FUNCALL GAPBondMgr_ProcessGAPMsg, linkDB_Find
        LOCFRAME ISTACK, 0, STACK
        LOCFRAME PSTACK, 0, STACK
        LOCFRAME XSTACK, 36, STACK
        LOCFRAME IOVERLAY, 0, STATIC
        LOCFRAME DOVERLAY, 0, STATIC
        ARGFRAME ISTACK, 0, STACK
        ARGFRAME PSTACK, 0, STACK
        ARGFRAME XSTACK, 36, STACK
        ARGFRAME IOVERLAY, 0, STATIC
        ARGFRAME DOVERLAY, 0, STATIC
        FUNCALL GAPBondMgr_ProcessGAPMsg, GAPBondMgr_ResolveAddr
        LOCFRAME ISTACK, 0, STACK
        LOCFRAME PSTACK, 0, STACK
        LOCFRAME XSTACK, 36, STACK
        LOCFRAME IOVERLAY, 0, STATIC
        LOCFRAME DOVERLAY, 0, STATIC
        ARGFRAME ISTACK, 0, STACK
        ARGFRAME PSTACK, 0, STACK
        ARGFRAME XSTACK, 36, STACK
        ARGFRAME IOVERLAY, 0, STATIC
        ARGFRAME DOVERLAY, 0, STATIC
        FUNCALL GAPBondMgr_ProcessGAPMsg, GAP_TerminateAuth
        LOCFRAME ISTACK, 0, STACK
        LOCFRAME PSTACK, 0, STACK
        LOCFRAME XSTACK, 36, STACK
        LOCFRAME IOVERLAY, 0, STATIC
        LOCFRAME DOVERLAY, 0, STATIC
        ARGFRAME ISTACK, 0, STACK
        ARGFRAME PSTACK, 0, STACK
        ARGFRAME XSTACK, 36, STACK
        ARGFRAME IOVERLAY, 0, STATIC
        ARGFRAME DOVERLAY, 0, STATIC
        FUNCALL GAPBondMgr_ProcessGAPMsg, gapBondMgrAuthenticate
        LOCFRAME ISTACK, 0, STACK
        LOCFRAME PSTACK, 0, STACK
        LOCFRAME XSTACK, 36, STACK
        LOCFRAME IOVERLAY, 0, STATIC
        LOCFRAME DOVERLAY, 0, STATIC
        ARGFRAME ISTACK, 0, STACK
        ARGFRAME PSTACK, 0, STACK
        ARGFRAME XSTACK, 36, STACK
        ARGFRAME IOVERLAY, 0, STATIC
        ARGFRAME DOVERLAY, 0, STATIC
        FUNCALL GAPBondMgr_ProcessGAPMsg, linkDB_Find
        LOCFRAME ISTACK, 0, STACK
        LOCFRAME PSTACK, 0, STACK
        LOCFRAME XSTACK, 36, STACK
        LOCFRAME IOVERLAY, 0, STATIC
        LOCFRAME DOVERLAY, 0, STATIC
        ARGFRAME ISTACK, 0, STACK
        ARGFRAME PSTACK, 0, STACK
        ARGFRAME XSTACK, 36, STACK
        ARGFRAME IOVERLAY, 0, STATIC
        ARGFRAME DOVERLAY, 0, STATIC
        FUNCALL GAPBondMgr_ProcessGAPMsg, GAPBondMgr_ResolveAddr
        LOCFRAME ISTACK, 0, STACK
        LOCFRAME PSTACK, 0, STACK
        LOCFRAME XSTACK, 36, STACK
        LOCFRAME IOVERLAY, 0, STATIC
        LOCFRAME DOVERLAY, 0, STATIC
        ARGFRAME ISTACK, 0, STACK
        ARGFRAME PSTACK, 0, STACK
        ARGFRAME XSTACK, 36, STACK
        ARGFRAME IOVERLAY, 0, STATIC
        ARGFRAME DOVERLAY, 0, STATIC
        FUNCALL GAPBondMgr_ProcessGAPMsg, gapBondMgrGetStateFlags
        LOCFRAME ISTACK, 0, STACK
        LOCFRAME PSTACK, 0, STACK
        LOCFRAME XSTACK, 37, STACK
        LOCFRAME IOVERLAY, 0, STATIC
        LOCFRAME DOVERLAY, 0, STATIC
        ARGFRAME ISTACK, 0, STACK
        ARGFRAME PSTACK, 0, STACK
        ARGFRAME XSTACK, 37, STACK
        ARGFRAME IOVERLAY, 0, STATIC
        ARGFRAME DOVERLAY, 0, STATIC
        FUNCALL GAPBondMgr_ProcessGAPMsg, gapBondMgrBondReq
        LOCFRAME ISTACK, 0, STACK
        LOCFRAME PSTACK, 0, STACK
        LOCFRAME XSTACK, 37, STACK
        LOCFRAME IOVERLAY, 0, STATIC
        LOCFRAME DOVERLAY, 0, STATIC
        ARGFRAME ISTACK, 0, STACK
        ARGFRAME PSTACK, 0, STACK
        ARGFRAME XSTACK, 37, STACK
        ARGFRAME IOVERLAY, 0, STATIC
        ARGFRAME DOVERLAY, 0, STATIC
        FUNCALL GAPBondMgr_ProcessGAPMsg, GAP_TerminateAuth
        LOCFRAME ISTACK, 0, STACK
        LOCFRAME PSTACK, 0, STACK
        LOCFRAME XSTACK, 36, STACK
        LOCFRAME IOVERLAY, 0, STATIC
        LOCFRAME DOVERLAY, 0, STATIC
        ARGFRAME ISTACK, 0, STACK
        ARGFRAME PSTACK, 0, STACK
        ARGFRAME XSTACK, 36, STACK
        ARGFRAME IOVERLAY, 0, STATIC
        ARGFRAME DOVERLAY, 0, STATIC
        FUNCALL GAPBondMgr_ProcessGAPMsg, gapBondMgrAuthenticate
        LOCFRAME ISTACK, 0, STACK
        LOCFRAME PSTACK, 0, STACK
        LOCFRAME XSTACK, 36, STACK
        LOCFRAME IOVERLAY, 0, STATIC
        LOCFRAME DOVERLAY, 0, STATIC
        ARGFRAME ISTACK, 0, STACK
        ARGFRAME PSTACK, 0, STACK
        ARGFRAME XSTACK, 36, STACK
        ARGFRAME IOVERLAY, 0, STATIC
        ARGFRAME DOVERLAY, 0, STATIC
        FUNCALL GAPBondMgr_ProcessGAPMsg, GAP_NumActiveConnections
        LOCFRAME ISTACK, 0, STACK
        LOCFRAME PSTACK, 0, STACK
        LOCFRAME XSTACK, 36, STACK
        LOCFRAME IOVERLAY, 0, STATIC
        LOCFRAME DOVERLAY, 0, STATIC
        ARGFRAME ISTACK, 0, STACK
        ARGFRAME PSTACK, 0, STACK
        ARGFRAME XSTACK, 36, STACK
        ARGFRAME IOVERLAY, 0, STATIC
        ARGFRAME DOVERLAY, 0, STATIC
        FUNCALL GAPBondMgr_ProcessGAPMsg, gapBondMgrEraseAllBondings
        LOCFRAME ISTACK, 0, STACK
        LOCFRAME PSTACK, 0, STACK
        LOCFRAME XSTACK, 36, STACK
        LOCFRAME IOVERLAY, 0, STATIC
        LOCFRAME DOVERLAY, 0, STATIC
        ARGFRAME ISTACK, 0, STACK
        ARGFRAME PSTACK, 0, STACK
        ARGFRAME XSTACK, 36, STACK
        ARGFRAME IOVERLAY, 0, STATIC
        ARGFRAME DOVERLAY, 0, STATIC
        FUNCALL GAPBondMgr_ProcessGAPMsg, osal_memset
        LOCFRAME ISTACK, 0, STACK
        LOCFRAME PSTACK, 0, STACK
        LOCFRAME XSTACK, 36, STACK
        LOCFRAME IOVERLAY, 0, STATIC
        LOCFRAME DOVERLAY, 0, STATIC
        ARGFRAME ISTACK, 0, STACK
        ARGFRAME PSTACK, 0, STACK
        ARGFRAME XSTACK, 36, STACK
        ARGFRAME IOVERLAY, 0, STATIC
        ARGFRAME DOVERLAY, 0, STATIC
        FUNCALL GAPBondMgr_ProcessGAPMsg, gapBondMgrEraseBonding
        LOCFRAME ISTACK, 0, STACK
        LOCFRAME PSTACK, 0, STACK
        LOCFRAME XSTACK, 36, STACK
        LOCFRAME IOVERLAY, 0, STATIC
        LOCFRAME DOVERLAY, 0, STATIC
        ARGFRAME ISTACK, 0, STACK
        ARGFRAME PSTACK, 0, STACK
        ARGFRAME XSTACK, 36, STACK
        ARGFRAME IOVERLAY, 0, STATIC
        ARGFRAME DOVERLAY, 0, STATIC
        FUNCALL GAPBondMgr_ProcessGAPMsg, osal_snv_compact
        LOCFRAME ISTACK, 0, STACK
        LOCFRAME PSTACK, 0, STACK
        LOCFRAME XSTACK, 36, STACK
        LOCFRAME IOVERLAY, 0, STATIC
        LOCFRAME DOVERLAY, 0, STATIC
        ARGFRAME ISTACK, 0, STACK
        ARGFRAME PSTACK, 0, STACK
        ARGFRAME XSTACK, 36, STACK
        ARGFRAME IOVERLAY, 0, STATIC
        ARGFRAME DOVERLAY, 0, STATIC
        FUNCALL GAPBondMgr_ProcessGAPMsg, gapBondMgrReadBonds
        LOCFRAME ISTACK, 0, STACK
        LOCFRAME PSTACK, 0, STACK
        LOCFRAME XSTACK, 36, STACK
        LOCFRAME IOVERLAY, 0, STATIC
        LOCFRAME DOVERLAY, 0, STATIC
        ARGFRAME ISTACK, 0, STACK
        ARGFRAME PSTACK, 0, STACK
        ARGFRAME XSTACK, 36, STACK
        ARGFRAME IOVERLAY, 0, STATIC
        ARGFRAME DOVERLAY, 0, STATIC
        REQUIRE ?V0
        REQUIRE ?V1
        REQUIRE ?V2
        REQUIRE ?V3
        REQUIRE ?V4
        REQUIRE ?V5
        REQUIRE ?V6
        REQUIRE ?V7
        MOV     A,#-0x10
        LCALL   ?BANKED_ENTER_XDATA
          CFI DPH0 load(1, XDATA, add(CFA_XSP16, literal(-1)))
          CFI DPL0 load(1, XDATA, add(CFA_XSP16, literal(-2)))
          CFI ?BRET_EXT load(1, XDATA, add(CFA_XSP16, literal(-3)))
          CFI ?RET_HIGH load(1, XDATA, add(CFA_XSP16, literal(-4)))
          CFI ?RET_LOW load(1, XDATA, add(CFA_XSP16, literal(-5)))
          CFI R7 load(1, XDATA, add(CFA_XSP16, literal(-6)))
          CFI V7 load(1, XDATA, add(CFA_XSP16, literal(-7)))
          CFI V6 load(1, XDATA, add(CFA_XSP16, literal(-8)))
          CFI V5 load(1, XDATA, add(CFA_XSP16, literal(-9)))
          CFI V4 load(1, XDATA, add(CFA_XSP16, literal(-10)))
          CFI V3 load(1, XDATA, add(CFA_XSP16, literal(-11)))
          CFI V2 load(1, XDATA, add(CFA_XSP16, literal(-12)))
          CFI V1 load(1, XDATA, add(CFA_XSP16, literal(-13)))
          CFI V0 load(1, XDATA, add(CFA_XSP16, literal(-14)))
          CFI VB load(1, XDATA, add(CFA_XSP16, literal(-15)))
          CFI R6 load(1, XDATA, add(CFA_XSP16, literal(-16)))
          CFI CFA_SP SP+0
          CFI CFA_XSP16 add(XSP16, 16)
        ; Saved register size: 16
        ; Auto size: 20
        MOV     A,#-0x14
        LCALL   ?ALLOC_XSTACK8
          CFI CFA_XSP16 add(XSP16, 36)
        MOV     ?V2,R2
        MOV     ?V3,R3
        MOV     DPL,R2
        MOV     DPH,R3
        INC     DPTR
        MOV     ?V4,DPL
        MOV     ?V5,DPH
        MOV     A,R2
        ADD     A,#0x5
        MOV     ?V6,A
        CLR     A
        ADDC    A,?V3
        MOV     ?V7,A
        MOV     A,R2
        ADD     A,#0x9
        MOV     ?V0,A
        CLR     A
        ADDC    A,?V3
        MOV     ?V1,A
        MOV     A,R2
        ADD     A,#0x3
        MOV     R6,A
        CLR     A
        ADDC    A,?V3
        MOV     R7,A
        MOV     DPL,R2
        MOV     DPH,R3
        INC     DPTR
        INC     DPTR
        MOVX    A,@DPTR
        ADD     A,#-0x6
        JNZ     $+5
        LJMP    ??GAPBondMgr_ProcessGAPMsg_0 & 0xFFFF
        ADD     A,#-0x3
        JNZ     $+5
        LJMP    ??GAPBondMgr_ProcessGAPMsg_1 & 0xFFFF
        DEC     A
        JNZ     $+5
        LJMP    ??GAPBondMgr_ProcessGAPMsg_2 & 0xFFFF
        DEC     A
        JZ      ??GAPBondMgr_ProcessGAPMsg_3
        DEC     A
        JNZ     $+5
        LJMP    ??GAPBondMgr_ProcessGAPMsg_4 & 0xFFFF
        ADD     A,#-0x2
        JNZ     $+5
        LJMP    ??GAPBondMgr_ProcessGAPMsg_5 & 0xFFFF
        DEC     A
        JNZ     $+5
        LJMP    ??GAPBondMgr_ProcessGAPMsg_6 & 0xFFFF
        LJMP    ??GAPBondMgr_ProcessGAPMsg_7 & 0xFFFF
//  890   switch ( pMsg->opcode )
//  891   {
//  892     case GAP_PASSKEY_NEEDED_EVENT:
//  893       {
//  894         gapPasskeyNeededEvent_t *pPkt = (gapPasskeyNeededEvent_t *)pMsg;
//  895 
//  896         if ( pGapBondCB && pGapBondCB->passcodeCB )
??GAPBondMgr_ProcessGAPMsg_3:
        LCALL   ?Subroutine7 & 0xFFFF
??CrossCallReturnLabel_72:
        JZ      ??GAPBondMgr_ProcessGAPMsg_8
        MOVX    A,@DPTR
        MOV     DPH,A
        MOV     DPL,R0
        MOVX    A,@DPTR
        MOV     ?V6,A
        INC     DPTR
        MOVX    A,@DPTR
        MOV     ?V7,A
        MOV     A,?V6
        ORL     A,?V7
        JZ      ??GAPBondMgr_ProcessGAPMsg_8
//  897         {
//  898           // Ask app for a passcode
//  899           pGapBondCB->passcodeCB( pPkt->deviceAddr, pPkt->connectionHandle, pPkt->uiInputs, pPkt->uiOutputs );
        ; Setup parameters for indirect call
        MOV     A,R2
        LCALL   ?Subroutine19 & 0xFFFF
//  900         }
??CrossCallReturnLabel_30:
        MOVX    A,@DPTR
        MOV     ?V4,A
        MOV     R0,#?V4
        LCALL   ?PUSH_XSTACK_I_ONE
          CFI CFA_XSP16 add(XSP16, 37)
        MOV     A,R2
        ADD     A,#0xb
        MOV     DPL,A
        CLR     A
        ADDC    A,?V3
        MOV     DPH,A
        MOVX    A,@DPTR
        MOV     R1,A
        MOV     DPL,?V0
        MOV     DPH,?V1
        LCALL   ?Subroutine24 & 0xFFFF
??CrossCallReturnLabel_46:
        INC     R2
        INC     R2
        INC     R2
        MOV     A,R7
        MOV     R3,A
        MOV     DPL,?V6
        MOV     DPH,?V7
        LCALL   ?CALL_IND
        LJMP    ??GAPBondMgr_ProcessGAPMsg_9 & 0xFFFF
          CFI CFA_XSP16 add(XSP16, 36)
//  901         else
//  902         {
//  903           // No app support, use the default passcode
//  904           if ( GAP_PasscodeUpdate( gapBond_Passcode, pPkt->connectionHandle ) != SUCCESS )
??GAPBondMgr_ProcessGAPMsg_8:
        ; Setup parameters for call to function GAP_PasscodeUpdate
        MOV     DPL,?V0
        MOV     DPH,?V1
        LCALL   ?PUSH_XSTACK8_X_TWO
          CFI CFA_XSP16 add(XSP16, 38)
        MOV     DPTR,#gapBond_Passcode
        LCALL   ?XLOAD_R2345
        LCALL   ??GAP_PasscodeUpdate?relay; Banked call to: GAP_PasscodeUpdate
        MOV     A,#0x2
        LCALL   ?DEALLOC_XSTACK8
          CFI CFA_XSP16 add(XSP16, 36)
        MOV     A,R1
        JNZ     $+5
        LJMP    ??GAPBondMgr_ProcessGAPMsg_7 & 0xFFFF
//  905           {
//  906             VOID GAP_TerminateAuth( pPkt->connectionHandle, SMP_PAIRING_FAILED_PASSKEY_ENTRY_FAILED );
        ; Setup parameters for call to function GAP_TerminateAuth
        MOV     R1,#0x1
        MOV     DPL,?V0
        MOV     DPH,?V1
        LJMP    ??GAPBondMgr_ProcessGAPMsg_10 & 0xFFFF
//  907           }
//  908         }
//  909       }
//  910       break;
//  911 
//  912     case GAP_AUTHENTICATION_COMPLETE_EVENT:
//  913       {
//  914         gapAuthCompleteEvent_t *pPkt = (gapAuthCompleteEvent_t *)pMsg;
//  915 
//  916         // Should we save bonding information (one save at a time)
//  917         if ( (pPkt->hdr.status == SUCCESS)             && 
//  918              (pPkt->authState & SM_AUTH_STATE_BONDING) &&
//  919              (pAuthEvt == NULL) )
??GAPBondMgr_ProcessGAPMsg_2:
        MOV     DPL,?V4
        MOV     DPH,?V5
        MOVX    A,@DPTR
        JZ      $+5
        LJMP    ??GAPBondMgr_ProcessGAPMsg_11 & 0xFFFF
        MOV     DPL,?V6
        MOV     DPH,?V7
        MOVX    A,@DPTR
        MOV     C,0xE0 /* A   */.0
        JC      $+5
        LJMP    ??GAPBondMgr_ProcessGAPMsg_11 & 0xFFFF
        MOV     DPTR,#pAuthEvt
        LCALL   ??Subroutine31_0 & 0xFFFF
??CrossCallReturnLabel_65:
        JZ      $+5
        LJMP    ??GAPBondMgr_ProcessGAPMsg_11 & 0xFFFF
//  920         {
//  921           gapBondRec_t bondRec;
//  922 
//  923           VOID osal_memset( &bondRec, 0, sizeof ( gapBondRec_t ) ) ;
        ; Setup parameters for call to function osal_memset
        MOV     R4,#0xe
        MOV     R5,#0x0
        MOV     R1,#0x0
        MOV     A,#0x6
        LCALL   ?XSTACK_DISP101_8
        LCALL   ??osal_memset?relay  ; Banked call to: osal_memset
//  924 
//  925           // Do we have a public address in the data?
//  926           if ( pPkt->pIdentityInfo )
        MOV     A,?V2
        LCALL   ?Subroutine19 & 0xFFFF
??CrossCallReturnLabel_31:
        LCALL   ??Subroutine28_0 & 0xFFFF
??CrossCallReturnLabel_50:
        MOV     A,R2
        ORL     A,R3
        JZ      ??GAPBondMgr_ProcessGAPMsg_12
//  927           {
//  928             VOID osal_memcpy( bondRec.publicAddr, pPkt->pIdentityInfo->bd_addr, B_ADDR_LEN );
        ; Setup parameters for call to function osal_memcpy
        MOV     ?V0,#0x6
        MOV     ?V1,#0x0
        MOV     R0,#?V0
        LCALL   ?PUSH_XSTACK_I_TWO
          CFI CFA_XSP16 add(XSP16, 38)
        MOV     A,R2
        ADD     A,#0x10
        SJMP    ??GAPBondMgr_ProcessGAPMsg_13
          CFI CFA_XSP16 add(XSP16, 36)
//  929           }
//  930           else
//  931           {
//  932             linkDBItem_t *pLinkItem = linkDB_Find( pPkt->connectionHandle );
??GAPBondMgr_ProcessGAPMsg_12:
        ; Setup parameters for call to function linkDB_Find
        LCALL   ??Subroutine27_0 & 0xFFFF
??CrossCallReturnLabel_58:
        LCALL   ??linkDB_Find?relay  ; Banked call to: linkDB_Find
//  933             if ( pLinkItem )
        MOV     A,R2
        ORL     A,R3
        JNZ     $+5
        LJMP    ??GAPBondMgr_ProcessGAPMsg_7 & 0xFFFF
//  934             {
//  935               VOID osal_memcpy( bondRec.publicAddr, pLinkItem->addr, B_ADDR_LEN );
        ; Setup parameters for call to function osal_memcpy
        MOV     ?V0,#0x6
        MOV     ?V1,#0x0
        MOV     R0,#?V0
        LCALL   ?PUSH_XSTACK_I_TWO
          CFI CFA_XSP16 add(XSP16, 38)
        MOV     A,R2
        ADD     A,#0x5
??GAPBondMgr_ProcessGAPMsg_13:
        MOV     R4,A
        CLR     A
        ADDC    A,R3
        MOV     R5,A
        MOV     A,#0x8
        LCALL   ?XSTACK_DISP101_8
        LCALL   ??osal_memcpy?relay  ; Banked call to: osal_memcpy
        MOV     A,#0x2
        LCALL   ?DEALLOC_XSTACK8
          CFI CFA_XSP16 add(XSP16, 36)
//  936             }
//  937             else
//  938             {
//  939               // We don't have an address, so ignore the message.
//  940               break;
//  941             }
//  942           }
//  943 
//  944           // Save off of the authentication state
//  945           bondRec.stateFlags |= (pPkt->authState & SM_AUTH_STATE_AUTHENTICATED) ? GAP_BONDED_STATE_AUTHENTICATED : 0;
        MOV     DPL,?V6
        MOV     DPH,?V7
        MOVX    A,@DPTR
        MOV     C,0xE0 /* A   */.2
        JNC     ??GAPBondMgr_ProcessGAPMsg_14
        SETB    B.0
        SJMP    ??GAPBondMgr_ProcessGAPMsg_15
??GAPBondMgr_ProcessGAPMsg_14:
        CLR     B.0
??GAPBondMgr_ProcessGAPMsg_15:
        MOV     C,B.0
        CLR     A
        RLC     A
        MOV     R0,A
        MOV     A,#0x12
        LCALL   ?XSTACK_DISP0_8
        MOVX    A,@DPTR
        ORL     A,R0
        MOVX    @DPTR,A
//  946 
//  947           if ( !gapBondMgrAddBond( &bondRec, pPkt ) )
        ; Setup parameters for call to function gapBondMgrAddBond
        MOV     R4,?V2
        MOV     R5,?V3
        MOV     A,#0x6
        LCALL   ?XSTACK_DISP101_8
        LCALL   ??gapBondMgrAddBond?relay; Banked call to: gapBondMgrAddBond
        MOV     A,R1
        JNZ     ??GAPBondMgr_ProcessGAPMsg_11
//  948           {
//  949             // Notify our task to save bonding information in NV
//  950             osal_set_event( gapBondMgr_TaskID, GAP_BOND_SAVE_REC_EVT );
        ; Setup parameters for call to function osal_set_event
        MOV     R2,#0x2
        MOV     R3,#0x0
        MOV     DPTR,#gapBondMgr_TaskID
        MOVX    A,@DPTR
        MOV     R1,A
        LCALL   ??osal_set_event?relay; Banked call to: osal_set_event
//  951       
//  952             // We're not done with this message; it will be freed later
//  953             return ( FALSE );
        MOV     R1,#0x0
        LJMP    ??GAPBondMgr_ProcessGAPMsg_16 & 0xFFFF
//  954           }
//  955         }
//  956 
//  957         // Call app state callback in the fail case. Success is handled after GAP_BOND_SAVE_REC_EVT.
//  958         if ( pGapBondCB && pGapBondCB->pairStateCB )
??GAPBondMgr_ProcessGAPMsg_11:
        LCALL   ?Subroutine7 & 0xFFFF
??CrossCallReturnLabel_73:
        JNZ     $+5
        LJMP    ??GAPBondMgr_ProcessGAPMsg_7 & 0xFFFF
        LCALL   ?Subroutine8 & 0xFFFF
??CrossCallReturnLabel_0:
        JNZ     $+5
        LJMP    ??GAPBondMgr_ProcessGAPMsg_7 & 0xFFFF
//  959         {
//  960           pGapBondCB->pairStateCB( pPkt->connectionHandle, GAPBOND_PAIRING_STATE_COMPLETE, pPkt->hdr.status );
        ; Setup parameters for indirect call
        MOV     DPL,?V4
        MOV     DPH,?V5
        MOVX    A,@DPTR
        MOV     R4,A
        MOV     R1,#0x1
        LJMP    ??GAPBondMgr_ProcessGAPMsg_17 & 0xFFFF
//  961         }
//  962       }
//  963       break;
//  964 
//  965     case GAP_BOND_COMPLETE_EVENT:
//  966       // This message is received when the bonding is complete.  If hdr.status is SUCCESS
//  967       // then call app state callback.  If hdr.status is NOT SUCCESS, the connection will be
//  968       // dropped at the LL because of a MIC failure, so again nothing to do.
//  969       {
//  970         gapBondCompleteEvent_t *pPkt = (gapBondCompleteEvent_t *)pMsg;
//  971 
//  972 #if ( HOST_CONFIG & CENTRAL_CFG )
//  973         if ( pPkt->hdr.status == LL_ENC_KEY_REQ_REJECTED )
??GAPBondMgr_ProcessGAPMsg_5:
        MOV     DPL,?V4
        MOV     DPH,?V5
        MOVX    A,@DPTR
        XRL     A,#0x6
        JNZ     ??GAPBondMgr_ProcessGAPMsg_18
//  974         {
//  975           // LTK not found on peripheral device (Pin or Key Missing). See which
//  976           // option was configured for unsuccessful bonding.
//  977           linkDBItem_t *pLinkItem = linkDB_Find( pPkt->connectionHandle );
        ; Setup parameters for call to function linkDB_Find
        LCALL   ??Subroutine27_0 & 0xFFFF
??CrossCallReturnLabel_59:
        LCALL   ??linkDB_Find?relay  ; Banked call to: linkDB_Find
        MOV     ?V0,R2
        MOV     ?V1,R3
//  978           if ( pLinkItem )
        MOV     A,R2
        ORL     A,?V1
        JZ      ??GAPBondMgr_ProcessGAPMsg_18
//  979           {
//  980             switch ( gapBond_BondFailOption )
        MOV     DPTR,#gapBond_BondFailOption
        MOVX    A,@DPTR
        DEC     A
        JZ      ??GAPBondMgr_ProcessGAPMsg_19
        DEC     A
        JZ      ??GAPBondMgr_ProcessGAPMsg_20
        DEC     A
        JZ      ??GAPBondMgr_ProcessGAPMsg_21
        SJMP    ??GAPBondMgr_ProcessGAPMsg_18
//  981             {
//  982               case GAPBOND_FAIL_INITIATE_PAIRING:
//  983                 // Initiate pairing
//  984                 gapBondMgrAuthenticate( pPkt->connectionHandle, pLinkItem->addrType, NULL );
??GAPBondMgr_ProcessGAPMsg_19:
        ; Setup parameters for call to function gapBondMgrAuthenticate
        MOV     R4,#0x0
        MOV     R5,#0x0
        MOV     DPL,R2
        MOV     DPH,R3
        INC     DPTR
        INC     DPTR
        INC     DPTR
        INC     DPTR
        LCALL   ?Subroutine11 & 0xFFFF
??CrossCallReturnLabel_63:
        LCALL   ??gapBondMgrAuthenticate?relay; Banked call to: gapBondMgrAuthenticate
//  985                 break;
        SJMP    ??GAPBondMgr_ProcessGAPMsg_18
//  986 
//  987               case GAPBOND_FAIL_TERMINATE_LINK:
//  988                 // Drop connection
//  989                 GAP_TerminateLinkReq( pLinkItem->taskID, pPkt->connectionHandle, HCI_DISCONNECT_AUTH_FAILURE );
//  990                 break;
//  991 
//  992               case GAPBOND_FAIL_TERMINATE_ERASE_BONDS:
//  993                 // Set up bond manager to erase all existing bonds after connection terminates
//  994                 VOID GAPBondMgr_SetParameter( GAPBOND_ERASE_ALLBONDS, 0, NULL );
??GAPBondMgr_ProcessGAPMsg_21:
        ; Setup parameters for call to function GAPBondMgr_SetParameter
        MOV     R4,#0x0
        MOV     R5,#0x0
        MOV     R1,#0x0
        MOV     R2,#0x9
        MOV     R3,#0x4
        LCALL   ??GAPBondMgr_SetParameter?relay; Banked call to: GAPBondMgr_SetParameter
//  995 
//  996                 // Drop connection
//  997                 GAP_TerminateLinkReq( pLinkItem->taskID, pPkt->connectionHandle, HCI_DISCONNECT_AUTH_FAILURE );
        ; Setup parameters for call to function GAP_TerminateLinkReq
??GAPBondMgr_ProcessGAPMsg_20:
        MOV     R4,#0x5
        LCALL   ??Subroutine27_0 & 0xFFFF
??CrossCallReturnLabel_60:
        MOV     DPL,?V0
        MOV     DPH,?V1
        MOVX    A,@DPTR
        MOV     R1,A
        LCALL   ??GAP_TerminateLinkReq?relay; Banked call to: GAP_TerminateLinkReq
//  998                 break;
//  999 
// 1000               case GAPBOND_FAIL_NO_ACTION:
// 1001                 // fall through
// 1002               default:
// 1003                 // do nothing
// 1004                 break;
// 1005             }
// 1006           }
// 1007         }
// 1008 #endif
// 1009         if ( pGapBondCB && pGapBondCB->pairStateCB )
??GAPBondMgr_ProcessGAPMsg_18:
        LCALL   ?Subroutine7 & 0xFFFF
??CrossCallReturnLabel_74:
        JNZ     $+5
        LJMP    ??GAPBondMgr_ProcessGAPMsg_7 & 0xFFFF
        LCALL   ?Subroutine8 & 0xFFFF
??CrossCallReturnLabel_1:
        JNZ     $+5
        LJMP    ??GAPBondMgr_ProcessGAPMsg_7 & 0xFFFF
// 1010         {
// 1011           pGapBondCB->pairStateCB( pPkt->connectionHandle, GAPBOND_PAIRING_STATE_BONDED, pMsg->hdr.status );
        ; Setup parameters for indirect call
        MOV     DPL,?V2
        MOV     DPH,?V3
        INC     DPTR
        MOVX    A,@DPTR
        MOV     R4,A
        MOV     R1,#0x2
        LJMP    ??GAPBondMgr_ProcessGAPMsg_17 & 0xFFFF
// 1012         }
// 1013       }
// 1014       break;
// 1015 
// 1016     case GAP_SIGNATURE_UPDATED_EVENT:
// 1017       {
// 1018         uint8 idx;
// 1019         gapSignUpdateEvent_t *pPkt = (gapSignUpdateEvent_t *)pMsg;
// 1020 
// 1021         idx = GAPBondMgr_ResolveAddr( pPkt->addrType, pPkt->devAddr, NULL );
??GAPBondMgr_ProcessGAPMsg_1:
        ; Setup parameters for call to function GAPBondMgr_ResolveAddr
        MOV     R4,#0x0
        MOV     R5,#0x0
        MOV     A,R2
        ADD     A,#0x4
        MOV     R2,A
        CLR     A
        ADDC    A,?V3
        MOV     R3,A
        MOV     DPL,R6
        MOV     DPH,R7
        MOVX    A,@DPTR
        MOV     R1,A
        LCALL   ??GAPBondMgr_ResolveAddr?relay; Banked call to: GAPBondMgr_ResolveAddr
        MOV     A,R1
        MOV     R0,A
// 1022         if ( idx < GAP_BONDINGS_MAX )
        CLR     C
        SUBB    A,#0xa
        JC      $+5
        LJMP    ??GAPBondMgr_ProcessGAPMsg_7 & 0xFFFF
// 1023         {
// 1024           // Save the sign counter
// 1025           VOID osal_snv_write( devSignCounterNvID(idx), sizeof ( uint32 ), &(pPkt->signCounter) );
        ; Setup parameters for call to function osal_snv_write
        MOV     A,?V2
        ADD     A,#0xa
        MOV     R4,A
        CLR     A
        ADDC    A,?V3
        MOV     R5,A
        MOV     R2,#0x4
        MOV     B,#0x6
        MOV     A,R0
        MUL     AB
        ADD     A,#0x25
        MOV     R1,A
        LCALL   ??osal_snv_write?relay; Banked call to: osal_snv_write
        LJMP    ??GAPBondMgr_ProcessGAPMsg_7 & 0xFFFF
// 1026         }
// 1027       }
// 1028       break;
// 1029 
// 1030 #if ( HOST_CONFIG & PERIPHERAL_CFG )
// 1031     case GAP_PAIRING_REQ_EVENT:
// 1032       {
// 1033         gapPairingReqEvent_t *pPkt = (gapPairingReqEvent_t *)pMsg;
// 1034 
// 1035         if ( gapBond_AutoFail != FALSE )
??GAPBondMgr_ProcessGAPMsg_6:
        LCALL   ??Subroutine27_0 & 0xFFFF
??CrossCallReturnLabel_61:
        MOV     DPTR,#gapBond_AutoFail
        MOVX    A,@DPTR
        JZ      ??GAPBondMgr_ProcessGAPMsg_22
// 1036         {
// 1037           // Auto Fail TEST MODE (DON'T USE THIS) - Sends pre-setup reason
// 1038           VOID GAP_TerminateAuth( pPkt->connectionHandle, gapBond_AutoFailReason );
        ; Setup parameters for call to function GAP_TerminateAuth
        MOV     DPTR,#gapBond_AutoFailReason
        MOVX    A,@DPTR
        MOV     R1,A
        LJMP    ??GAPBondMgr_ProcessGAPMsg_23 & 0xFFFF
// 1039         }
// 1040         else if ( gapBond_PairingMode == GAPBOND_PAIRING_MODE_NO_PAIRING )
??GAPBondMgr_ProcessGAPMsg_22:
        MOV     DPTR,#gapBond_PairingMode
        MOVX    A,@DPTR
        JNZ     ??GAPBondMgr_ProcessGAPMsg_24
// 1041         {
// 1042           // No Pairing - Send error
// 1043           VOID GAP_TerminateAuth( pPkt->connectionHandle, SMP_PAIRING_FAILED_NOT_SUPPORTED );
        ; Setup parameters for call to function GAP_TerminateAuth
        MOV     R1,#0x5
        LJMP    ??GAPBondMgr_ProcessGAPMsg_23 & 0xFFFF
// 1044         }
// 1045         else
// 1046         {
// 1047           linkDBItem_t *pLinkItem = linkDB_Find( pPkt->connectionHandle );
??GAPBondMgr_ProcessGAPMsg_24:
        ; Setup parameters for call to function linkDB_Find
        LCALL   ??linkDB_Find?relay  ; Banked call to: linkDB_Find
        MOV     ?V4,R2
        MOV     ?V5,R3
        MOV     R0,?V4
        MOV     R1,?V5
// 1048 
// 1049           // Requesting bonding?
// 1050           if ( pPkt->pairReq.authReq & SM_AUTH_STATE_BONDING )
        MOV     A,R0
        ADD     A,#0x4
        MOV     ?V4,A
        CLR     A
        ADDC    A,R1
        MOV     ?V5,A
        MOV     DPL,?V2
        MOV     DPH,?V3
        INC     DPTR
        INC     DPTR
        INC     DPTR
        INC     DPTR
        INC     DPTR
        INC     DPTR
        INC     DPTR
        MOVX    A,@DPTR
        MOV     C,0xE0 /* A   */.0
        JNC     ??GAPBondMgr_ProcessGAPMsg_25
// 1051           {
// 1052             if ( pLinkItem )
        MOV     A,R0
        ORL     A,R1
        JNZ     $+5
        LJMP    ??GAPBondMgr_ProcessGAPMsg_7 & 0xFFFF
// 1053             {
// 1054               if ( (pLinkItem->addrType != ADDRTYPE_PUBLIC) && (pPkt->pairReq.keyDist.mIdKey == FALSE) )
        MOV     DPL,?V4
        MOV     DPH,?V5
        MOVX    A,@DPTR
        MOV     ?V2,A
        JZ      ??GAPBondMgr_ProcessGAPMsg_25
        MOV     DPL,?V0
        MOV     DPH,?V1
        MOVX    A,@DPTR
        ANL     A,#0x10
        JNZ     ??GAPBondMgr_ProcessGAPMsg_25
// 1055               {
// 1056                 uint8 publicAddr[B_ADDR_LEN];
// 1057 
// 1058                 // Check if we already have the public address in NV
// 1059                 if ( GAPBondMgr_ResolveAddr(pLinkItem->addrType, pLinkItem->addr, publicAddr ) == FALSE )
        ; Setup parameters for call to function GAPBondMgr_ResolveAddr
        MOV     R4,?XSP + 0
        MOV     R5,?XSP + 1
        MOV     A,R0
        ADD     A,#0x5
        MOV     R2,A
        CLR     A
        ADDC    A,R1
        MOV     R3,A
        MOV     R1,?V2
        LCALL   ??GAPBondMgr_ResolveAddr?relay; Banked call to: GAPBondMgr_ResolveAddr
        MOV     A,R1
        JNZ     ??GAPBondMgr_ProcessGAPMsg_25
// 1060                 {
// 1061                   // Can't bond to a non-public address if we don't know the public address
// 1062                   VOID GAP_TerminateAuth( pPkt->connectionHandle, SMP_PAIRING_FAILED_AUTH_REQ );
        ; Setup parameters for call to function GAP_TerminateAuth
        MOV     R1,#0x3
        MOV     DPL,R6
        MOV     DPH,R7
// 1063                   break;
// 1064                 }
// 1065               }
// 1066             }
// 1067             else
// 1068             {
// 1069               // Can't find the connection, ignore the message
// 1070               break;
// 1071             }
// 1072           }
??GAPBondMgr_ProcessGAPMsg_10:
        LCALL   ??Subroutine28_0 & 0xFFFF
??CrossCallReturnLabel_51:
        LJMP    ??GAPBondMgr_ProcessGAPMsg_23 & 0xFFFF
// 1073 
// 1074           // Send pairing response
// 1075           gapBondMgrAuthenticate( pPkt->connectionHandle, pLinkItem->addrType, &(pPkt->pairReq) );
??GAPBondMgr_ProcessGAPMsg_25:
        ; Setup parameters for call to function gapBondMgrAuthenticate
        MOV     R4,?V6
        MOV     R5,?V7
        MOV     DPL,?V4
        MOV     DPH,?V5
        LCALL   ?Subroutine11 & 0xFFFF
??CrossCallReturnLabel_64:
        LCALL   ??gapBondMgrAuthenticate?relay; Banked call to: gapBondMgrAuthenticate
// 1076 
// 1077           // Call app state callback
// 1078           if ( pGapBondCB && pGapBondCB->pairStateCB )
        LCALL   ?Subroutine7 & 0xFFFF
??CrossCallReturnLabel_75:
        JNZ     $+5
        LJMP    ??GAPBondMgr_ProcessGAPMsg_7 & 0xFFFF
        LCALL   ?Subroutine8 & 0xFFFF
??CrossCallReturnLabel_2:
        JNZ     $+5
        LJMP    ??GAPBondMgr_ProcessGAPMsg_7 & 0xFFFF
// 1079           {
// 1080             pGapBondCB->pairStateCB( pPkt->connectionHandle, GAPBOND_PAIRING_STATE_STARTED, SUCCESS );
        ; Setup parameters for indirect call
        MOV     R4,#0x0
        MOV     R1,#0x0
// 1081           }
// 1082         }
// 1083       }
??GAPBondMgr_ProcessGAPMsg_17:
        LCALL   ??Subroutine27_0 & 0xFFFF
??CrossCallReturnLabel_62:
        MOV     DPL,R0
        MOV     DPH,?V1
        LCALL   ?CALL_IND
        LJMP    ??GAPBondMgr_ProcessGAPMsg_7 & 0xFFFF
// 1084       break;
// 1085 #endif
// 1086 
// 1087 #if ( HOST_CONFIG & CENTRAL_CFG )
// 1088     case GAP_SLAVE_REQUESTED_SECURITY_EVENT:
// 1089       {
// 1090         uint16 connHandle = ((gapSlaveSecurityReqEvent_t *)pMsg)->connectionHandle;
??GAPBondMgr_ProcessGAPMsg_4:
        MOV     DPL,R6
        MOV     DPH,R7
        MOVX    A,@DPTR
        MOV     ?V0,A
        INC     DPTR
        MOVX    A,@DPTR
        MOV     ?V1,A
// 1091         uint8 idx;
// 1092         uint8 publicAddr[B_ADDR_LEN] = {0, 0, 0, 0, 0, 0};
        MOV     DPTR,#`?<Constant {0, 0, 0, 0, 0, 0}>_1`
        MOV     R4,?XSP + 0
        MOV     R5,?XSP + 1
        MOV     A,#0x6
        LCALL   ?MOVE_LONG8_XDATA_XDATA
// 1093         linkDBItem_t *pLink = linkDB_Find( connHandle );
        ; Setup parameters for call to function linkDB_Find
        MOV     R2,?V0
        MOV     R3,?V1
        LCALL   ??linkDB_Find?relay  ; Banked call to: linkDB_Find
        MOV     ?V2,R2
        MOV     ?V3,R3
        MOV     R0,?V2
        MOV     R1,?V3
// 1094 
// 1095         // If link found and not already initiating security
// 1096         if (pLink != NULL && gapBond_PairingMode != GAPBOND_PAIRING_MODE_INITIATE)
        MOV     A,R0
        ORL     A,R1
        JNZ     $+5
        LJMP    ??GAPBondMgr_ProcessGAPMsg_7 & 0xFFFF
        MOV     DPTR,#gapBond_PairingMode
        MOVX    A,@DPTR
        XRL     A,#0x2
        JNZ     $+5
        LJMP    ??GAPBondMgr_ProcessGAPMsg_7 & 0xFFFF
// 1097         {
// 1098           // If already bonded initiate encryption
// 1099           idx = GAPBondMgr_ResolveAddr( pLink->addrType, pLink->addr, publicAddr );
        MOV     A,R0
        ADD     A,#0x4
        MOV     R6,A
        CLR     A
        ADDC    A,R1
        MOV     R7,A
        ; Setup parameters for call to function GAPBondMgr_ResolveAddr
        MOV     R4,?XSP + 0
        MOV     R5,?XSP + 1
        MOV     A,R0
        ADD     A,#0x5
        MOV     R2,A
        CLR     A
        ADDC    A,R1
        MOV     R3,A
        MOV     DPL,R6
        MOV     DPH,R7
        MOVX    A,@DPTR
        MOV     R1,A
        LCALL   ??GAPBondMgr_ResolveAddr?relay; Banked call to: GAPBondMgr_ResolveAddr
        MOV     A,R1
        MOV     ?V2,A
// 1100           if ( idx < GAP_BONDINGS_MAX )
        CLR     C
        SUBB    A,#0xa
        JNC     ??GAPBondMgr_ProcessGAPMsg_26
// 1101           {
// 1102             gapBondMgrBondReq( connHandle, idx, gapBondMgrGetStateFlags( idx ),
// 1103                                GAP_PROFILE_CENTRAL, TRUE );
        ; Setup parameters for call to function gapBondMgrBondReq
        MOV     ?V3,#0x1
        MOV     R0,#?V3
        LCALL   ?PUSH_XSTACK_I_ONE
          CFI CFA_XSP16 add(XSP16, 37)
        ; Setup parameters for call to function gapBondMgrGetStateFlags
        LCALL   ??gapBondMgrGetStateFlags?relay; Banked call to: gapBondMgrGetStateFlags
        MOV     A,R1
        MOV     R4,A
        MOV     A,#0x8
        MOV     R5,A
        MOV     R1,?V2
        MOV     R2,?V0
        MOV     R3,?V1
        LCALL   ??gapBondMgrBondReq?relay; Banked call to: gapBondMgrBondReq
??GAPBondMgr_ProcessGAPMsg_9:
        MOV     A,#0x1
        LCALL   ?DEALLOC_XSTACK8
          CFI CFA_XSP16 add(XSP16, 36)
        SJMP    ??GAPBondMgr_ProcessGAPMsg_7
// 1104           }
// 1105           // Else if no pairing allowed
// 1106           else if ( gapBond_PairingMode == GAPBOND_PAIRING_MODE_NO_PAIRING )
??GAPBondMgr_ProcessGAPMsg_26:
        MOV     DPTR,#gapBond_PairingMode
        MOVX    A,@DPTR
        JNZ     ??GAPBondMgr_ProcessGAPMsg_27
// 1107           {
// 1108             // Send error
// 1109             VOID GAP_TerminateAuth( connHandle, SMP_PAIRING_FAILED_NOT_SUPPORTED );
        ; Setup parameters for call to function GAP_TerminateAuth
        MOV     R1,#0x5
        MOV     R2,?V0
        MOV     R3,?V1
??GAPBondMgr_ProcessGAPMsg_23:
        LCALL   ??GAP_TerminateAuth?relay; Banked call to: GAP_TerminateAuth
        SJMP    ??GAPBondMgr_ProcessGAPMsg_7
// 1110           }
// 1111           // Else if waiting for request
// 1112           else if (gapBond_PairingMode == GAPBOND_PAIRING_MODE_WAIT_FOR_REQ)
??GAPBondMgr_ProcessGAPMsg_27:
        XRL     A,#0x1
        JNZ     ??GAPBondMgr_ProcessGAPMsg_7
// 1113           {
// 1114             // Initiate pairing
// 1115             gapBondMgrAuthenticate( connHandle, pLink->addrType, NULL );
        ; Setup parameters for call to function gapBondMgrAuthenticate
        MOV     R4,#0x0
        MOV     R5,#0x0
        MOV     DPL,R6
        MOV     DPH,R7
        MOVX    A,@DPTR
        MOV     R1,A
        MOV     R2,?V0
        MOV     R3,?V1
        LCALL   ??gapBondMgrAuthenticate?relay; Banked call to: gapBondMgrAuthenticate
        SJMP    ??GAPBondMgr_ProcessGAPMsg_7
// 1116           }
// 1117         }
// 1118       }
// 1119       break;
// 1120 #endif
// 1121 
// 1122     case GAP_LINK_TERMINATED_EVENT:
// 1123       if ( GAP_NumActiveConnections() == 0 )
??GAPBondMgr_ProcessGAPMsg_0:
        ; Setup parameters for call to function GAP_NumActiveConnections
        LCALL   ??GAP_NumActiveConnections?relay; Banked call to: GAP_NumActiveConnections
        MOV     A,R1
        JNZ     ??GAPBondMgr_ProcessGAPMsg_7
// 1124       {
// 1125         // See if we're asked to erase all bonding records
// 1126         if ( eraseAllBonds == TRUE )
        MOV     DPTR,#eraseAllBonds
        MOVX    A,@DPTR
        XRL     A,#0x1
        JNZ     ??GAPBondMgr_ProcessGAPMsg_28
// 1127         {
// 1128           VOID gapBondMgrEraseAllBondings();
        ; Setup parameters for call to function gapBondMgrEraseAllBondings
        LCALL   ??gapBondMgrEraseAllBondings?relay; Banked call to: gapBondMgrEraseAllBondings
// 1129           eraseAllBonds = FALSE;
        MOV     DPTR,#eraseAllBonds
        CLR     A
        MOVX    @DPTR,A
// 1130           
// 1131           // Reset bonds to delete table
// 1132           osal_memset( bondsToDelete, FALSE, sizeof( bondsToDelete ) );
        ; Setup parameters for call to function osal_memset
        MOV     R4,#0xa
        MOV     R5,A
        MOV     R1,A
        MOV     R2,#bondsToDelete & 0xff
        MOV     R3,#(bondsToDelete >> 8) & 0xff
        LCALL   ??osal_memset?relay  ; Banked call to: osal_memset
        SJMP    ??GAPBondMgr_ProcessGAPMsg_29
// 1133         }
// 1134         else
// 1135         {
// 1136           // See if we're asked to erase any single bonding records
// 1137           for (uint8 idx = 0; idx < GAP_BONDINGS_MAX; idx++)
??GAPBondMgr_ProcessGAPMsg_28:
        MOV     ?V2,#0x0
// 1138           {
// 1139             if ( bondsToDelete[idx] == TRUE )
??GAPBondMgr_ProcessGAPMsg_30:
        MOV     ?V0,?V2
        MOV     A,#bondsToDelete & 0xff
        ADD     A,?V0
        MOV     R6,A
        CLR     A
        ADDC    A,#(bondsToDelete >> 8) & 0xff
        MOV     R7,A
        MOV     DPL,R6
        MOV     DPH,R7
        MOVX    A,@DPTR
        XRL     A,#0x1
        JNZ     ??GAPBondMgr_ProcessGAPMsg_31
// 1140             {
// 1141               VOID gapBondMgrEraseBonding( idx );
        ; Setup parameters for call to function gapBondMgrEraseBonding
        MOV     R1,?V2
        LCALL   ??gapBondMgrEraseBonding?relay; Banked call to: gapBondMgrEraseBonding
// 1142               bondsToDelete[idx] = FALSE;
        MOV     DPL,R6
        MOV     DPH,R7
        CLR     A
        MOVX    @DPTR,A
// 1143             }
// 1144           }
??GAPBondMgr_ProcessGAPMsg_31:
        INC     ?V2
        MOV     A,?V2
        CLR     C
        SUBB    A,#0xa
        JC      ??GAPBondMgr_ProcessGAPMsg_30
// 1145         }
// 1146 
// 1147         // See if NV needs a compaction
// 1148         VOID osal_snv_compact( NV_COMPACT_THRESHOLD );
??GAPBondMgr_ProcessGAPMsg_29:
        ; Setup parameters for call to function osal_snv_compact
        MOV     R1,#0x50
        LCALL   ??osal_snv_compact?relay; Banked call to: osal_snv_compact
// 1149 
// 1150         // Make sure Bond RAM Shadow is up-to-date
// 1151         gapBondMgrReadBonds();
        ; Setup parameters for call to function gapBondMgrReadBonds
        LCALL   ??gapBondMgrReadBonds?relay; Banked call to: gapBondMgrReadBonds
// 1152       }
// 1153       break;
// 1154 
// 1155     default:
// 1156       break;
// 1157   }
// 1158   
// 1159   return ( TRUE );
??GAPBondMgr_ProcessGAPMsg_7:
        MOV     R1,#0x1
??GAPBondMgr_ProcessGAPMsg_16:
        MOV     A,#0x14
        LJMP    ?Subroutine0 & 0xFFFF
          CFI EndBlock cfiBlock16
// 1160 }

        RSEG BANKED_CODE:CODE:NOROOT(0)
?Subroutine19:
          CFI Block cfiCond17 Using cfiCommon0
          CFI Function GAPBondMgr_ProcessGAPMsg
          CFI Conditional ??CrossCallReturnLabel_30
          CFI R6 load(1, XDATA, add(CFA_XSP16, literal(-16)))
          CFI VB load(1, XDATA, add(CFA_XSP16, literal(-15)))
          CFI V0 load(1, XDATA, add(CFA_XSP16, literal(-14)))
          CFI V1 load(1, XDATA, add(CFA_XSP16, literal(-13)))
          CFI V2 load(1, XDATA, add(CFA_XSP16, literal(-12)))
          CFI V3 load(1, XDATA, add(CFA_XSP16, literal(-11)))
          CFI V4 load(1, XDATA, add(CFA_XSP16, literal(-10)))
          CFI V5 load(1, XDATA, add(CFA_XSP16, literal(-9)))
          CFI V6 load(1, XDATA, add(CFA_XSP16, literal(-8)))
          CFI V7 load(1, XDATA, add(CFA_XSP16, literal(-7)))
          CFI R7 load(1, XDATA, add(CFA_XSP16, literal(-6)))
          CFI ?RET_LOW load(1, XDATA, add(CFA_XSP16, literal(-5)))
          CFI ?RET_HIGH load(1, XDATA, add(CFA_XSP16, literal(-4)))
          CFI ?BRET_EXT load(1, XDATA, add(CFA_XSP16, literal(-3)))
          CFI DPL0 load(1, XDATA, add(CFA_XSP16, literal(-2)))
          CFI DPH0 load(1, XDATA, add(CFA_XSP16, literal(-1)))
          CFI CFA_SP SP+-2
          CFI CFA_XSP16 add(XSP16, 36)
          CFI Block cfiCond18 Using cfiCommon0
          CFI (cfiCond18) Function GAPBondMgr_ProcessGAPMsg
          CFI (cfiCond18) Conditional ??CrossCallReturnLabel_31
          CFI (cfiCond18) R6 load(1, XDATA, add(CFA_XSP16, literal(-16)))
          CFI (cfiCond18) VB load(1, XDATA, add(CFA_XSP16, literal(-15)))
          CFI (cfiCond18) V0 load(1, XDATA, add(CFA_XSP16, literal(-14)))
          CFI (cfiCond18) V1 load(1, XDATA, add(CFA_XSP16, literal(-13)))
          CFI (cfiCond18) V2 load(1, XDATA, add(CFA_XSP16, literal(-12)))
          CFI (cfiCond18) V3 load(1, XDATA, add(CFA_XSP16, literal(-11)))
          CFI (cfiCond18) V4 load(1, XDATA, add(CFA_XSP16, literal(-10)))
          CFI (cfiCond18) V5 load(1, XDATA, add(CFA_XSP16, literal(-9)))
          CFI (cfiCond18) V6 load(1, XDATA, add(CFA_XSP16, literal(-8)))
          CFI (cfiCond18) V7 load(1, XDATA, add(CFA_XSP16, literal(-7)))
          CFI (cfiCond18) R7 load(1, XDATA, add(CFA_XSP16, literal(-6)))
          CFI (cfiCond18) ?RET_LOW load(1, XDATA, add(CFA_XSP16, literal(-5)))
          CFI (cfiCond18) ?RET_HIGH load(1, XDATA, add(CFA_XSP16, literal(-4)))
          CFI (cfiCond18) ?BRET_EXT load(1, XDATA, add(CFA_XSP16, literal(-3)))
          CFI (cfiCond18) DPL0 load(1, XDATA, add(CFA_XSP16, literal(-2)))
          CFI (cfiCond18) DPH0 load(1, XDATA, add(CFA_XSP16, literal(-1)))
          CFI (cfiCond18) CFA_SP SP+-2
          CFI (cfiCond18) CFA_XSP16 add(XSP16, 36)
          CFI Block cfiPicker19 Using cfiCommon1
          CFI (cfiPicker19) NoFunction
          CFI (cfiPicker19) Picker
        ADD     A,#0xc
        MOV     DPL,A
        CLR     A
        ADDC    A,?V3
        MOV     DPH,A
        RET
          CFI EndBlock cfiCond17
          CFI EndBlock cfiCond18
          CFI EndBlock cfiPicker19

        RSEG BANKED_CODE:CODE:NOROOT(0)
?Subroutine8:
          CFI Block cfiCond20 Using cfiCommon0
          CFI Function GAPBondMgr_ProcessGAPMsg
          CFI Conditional ??CrossCallReturnLabel_0
          CFI R6 load(1, XDATA, add(CFA_XSP16, literal(-16)))
          CFI VB load(1, XDATA, add(CFA_XSP16, literal(-15)))
          CFI V0 load(1, XDATA, add(CFA_XSP16, literal(-14)))
          CFI V1 load(1, XDATA, add(CFA_XSP16, literal(-13)))
          CFI V2 load(1, XDATA, add(CFA_XSP16, literal(-12)))
          CFI V3 load(1, XDATA, add(CFA_XSP16, literal(-11)))
          CFI V4 load(1, XDATA, add(CFA_XSP16, literal(-10)))
          CFI V5 load(1, XDATA, add(CFA_XSP16, literal(-9)))
          CFI V6 load(1, XDATA, add(CFA_XSP16, literal(-8)))
          CFI V7 load(1, XDATA, add(CFA_XSP16, literal(-7)))
          CFI R7 load(1, XDATA, add(CFA_XSP16, literal(-6)))
          CFI ?RET_LOW load(1, XDATA, add(CFA_XSP16, literal(-5)))
          CFI ?RET_HIGH load(1, XDATA, add(CFA_XSP16, literal(-4)))
          CFI ?BRET_EXT load(1, XDATA, add(CFA_XSP16, literal(-3)))
          CFI DPL0 load(1, XDATA, add(CFA_XSP16, literal(-2)))
          CFI DPH0 load(1, XDATA, add(CFA_XSP16, literal(-1)))
          CFI CFA_SP SP+-2
          CFI CFA_XSP16 add(XSP16, 36)
          CFI Block cfiCond21 Using cfiCommon0
          CFI (cfiCond21) Function GAPBondMgr_ProcessGAPMsg
          CFI (cfiCond21) Conditional ??CrossCallReturnLabel_1
          CFI (cfiCond21) R6 load(1, XDATA, add(CFA_XSP16, literal(-16)))
          CFI (cfiCond21) VB load(1, XDATA, add(CFA_XSP16, literal(-15)))
          CFI (cfiCond21) V0 load(1, XDATA, add(CFA_XSP16, literal(-14)))
          CFI (cfiCond21) V1 load(1, XDATA, add(CFA_XSP16, literal(-13)))
          CFI (cfiCond21) V2 load(1, XDATA, add(CFA_XSP16, literal(-12)))
          CFI (cfiCond21) V3 load(1, XDATA, add(CFA_XSP16, literal(-11)))
          CFI (cfiCond21) V4 load(1, XDATA, add(CFA_XSP16, literal(-10)))
          CFI (cfiCond21) V5 load(1, XDATA, add(CFA_XSP16, literal(-9)))
          CFI (cfiCond21) V6 load(1, XDATA, add(CFA_XSP16, literal(-8)))
          CFI (cfiCond21) V7 load(1, XDATA, add(CFA_XSP16, literal(-7)))
          CFI (cfiCond21) R7 load(1, XDATA, add(CFA_XSP16, literal(-6)))
          CFI (cfiCond21) ?RET_LOW load(1, XDATA, add(CFA_XSP16, literal(-5)))
          CFI (cfiCond21) ?RET_HIGH load(1, XDATA, add(CFA_XSP16, literal(-4)))
          CFI (cfiCond21) ?BRET_EXT load(1, XDATA, add(CFA_XSP16, literal(-3)))
          CFI (cfiCond21) DPL0 load(1, XDATA, add(CFA_XSP16, literal(-2)))
          CFI (cfiCond21) DPH0 load(1, XDATA, add(CFA_XSP16, literal(-1)))
          CFI (cfiCond21) CFA_SP SP+-2
          CFI (cfiCond21) CFA_XSP16 add(XSP16, 36)
          CFI Block cfiCond22 Using cfiCommon0
          CFI (cfiCond22) Function GAPBondMgr_ProcessGAPMsg
          CFI (cfiCond22) Conditional ??CrossCallReturnLabel_2
          CFI (cfiCond22) R6 load(1, XDATA, add(CFA_XSP16, literal(-16)))
          CFI (cfiCond22) VB load(1, XDATA, add(CFA_XSP16, literal(-15)))
          CFI (cfiCond22) V0 load(1, XDATA, add(CFA_XSP16, literal(-14)))
          CFI (cfiCond22) V1 load(1, XDATA, add(CFA_XSP16, literal(-13)))
          CFI (cfiCond22) V2 load(1, XDATA, add(CFA_XSP16, literal(-12)))
          CFI (cfiCond22) V3 load(1, XDATA, add(CFA_XSP16, literal(-11)))
          CFI (cfiCond22) V4 load(1, XDATA, add(CFA_XSP16, literal(-10)))
          CFI (cfiCond22) V5 load(1, XDATA, add(CFA_XSP16, literal(-9)))
          CFI (cfiCond22) V6 load(1, XDATA, add(CFA_XSP16, literal(-8)))
          CFI (cfiCond22) V7 load(1, XDATA, add(CFA_XSP16, literal(-7)))
          CFI (cfiCond22) R7 load(1, XDATA, add(CFA_XSP16, literal(-6)))
          CFI (cfiCond22) ?RET_LOW load(1, XDATA, add(CFA_XSP16, literal(-5)))
          CFI (cfiCond22) ?RET_HIGH load(1, XDATA, add(CFA_XSP16, literal(-4)))
          CFI (cfiCond22) ?BRET_EXT load(1, XDATA, add(CFA_XSP16, literal(-3)))
          CFI (cfiCond22) DPL0 load(1, XDATA, add(CFA_XSP16, literal(-2)))
          CFI (cfiCond22) DPH0 load(1, XDATA, add(CFA_XSP16, literal(-1)))
          CFI (cfiCond22) CFA_SP SP+-2
          CFI (cfiCond22) CFA_XSP16 add(XSP16, 36)
          CFI Block cfiPicker23 Using cfiCommon1
          CFI (cfiPicker23) NoFunction
          CFI (cfiPicker23) Picker
        LCALL   ?Subroutine22 & 0xFFFF
??CrossCallReturnLabel_80:
        MOV     ?V1,R1
        MOV     A,R0
        ORL     A,?V1
        RET
          CFI EndBlock cfiCond20
          CFI EndBlock cfiCond21
          CFI EndBlock cfiCond22
          CFI EndBlock cfiPicker23
// 1161 
// 1162 /*********************************************************************
// 1163  * LOCAL FUNCTION PROTOTYPES
// 1164  */
// 1165 
// 1166 /*********************************************************************
// 1167  * @fn      gapBondMgrChangeState
// 1168  *
// 1169  * @brief   Change a state flag in the stateFlags field of the bond record.
// 1170  *
// 1171  * @param   idx - Bond NV index
// 1172  * @param   state - state flage to set or clear
// 1173  * @param   set - TRUE to set the flag, FALSE to clear the flag
// 1174  *
// 1175  * @return  TRUE if NV Record exists, FALSE if NV Record is empty
// 1176  */

        RSEG BANKED_CODE:CODE:NOROOT(0)
// 1177 static uint8 gapBondMgrChangeState( uint8 idx, uint16 state, uint8 set )
gapBondMgrChangeState:
          CFI Block cfiBlock24 Using cfiCommon0
          CFI Function gapBondMgrChangeState
        CODE
// 1178 {
        FUNCALL gapBondMgrChangeState, osal_snv_read
        LOCFRAME ISTACK, 0, STACK
        LOCFRAME PSTACK, 0, STACK
        LOCFRAME XSTACK, 26, STACK
        LOCFRAME IOVERLAY, 0, STATIC
        LOCFRAME DOVERLAY, 0, STATIC
        ARGFRAME ISTACK, 0, STACK
        ARGFRAME PSTACK, 0, STACK
        ARGFRAME XSTACK, 26, STACK
        ARGFRAME IOVERLAY, 0, STATIC
        ARGFRAME DOVERLAY, 0, STATIC
        FUNCALL gapBondMgrChangeState, osal_isbufset
        LOCFRAME ISTACK, 0, STACK
        LOCFRAME PSTACK, 0, STACK
        LOCFRAME XSTACK, 26, STACK
        LOCFRAME IOVERLAY, 0, STATIC
        LOCFRAME DOVERLAY, 0, STATIC
        ARGFRAME ISTACK, 0, STACK
        ARGFRAME PSTACK, 0, STACK
        ARGFRAME XSTACK, 26, STACK
        ARGFRAME IOVERLAY, 0, STATIC
        ARGFRAME DOVERLAY, 0, STATIC
        FUNCALL gapBondMgrChangeState, osal_snv_write
        LOCFRAME ISTACK, 0, STACK
        LOCFRAME PSTACK, 0, STACK
        LOCFRAME XSTACK, 26, STACK
        LOCFRAME IOVERLAY, 0, STATIC
        LOCFRAME DOVERLAY, 0, STATIC
        ARGFRAME ISTACK, 0, STACK
        ARGFRAME PSTACK, 0, STACK
        ARGFRAME XSTACK, 26, STACK
        ARGFRAME IOVERLAY, 0, STATIC
        ARGFRAME DOVERLAY, 0, STATIC
        REQUIRE ?V0
        REQUIRE ?V1
        REQUIRE ?V2
        REQUIRE ?V3
        MOV     A,#-0xc
        LCALL   ?BANKED_ENTER_XDATA
          CFI DPH0 load(1, XDATA, add(CFA_XSP16, literal(-1)))
          CFI DPL0 load(1, XDATA, add(CFA_XSP16, literal(-2)))
          CFI ?BRET_EXT load(1, XDATA, add(CFA_XSP16, literal(-3)))
          CFI ?RET_HIGH load(1, XDATA, add(CFA_XSP16, literal(-4)))
          CFI ?RET_LOW load(1, XDATA, add(CFA_XSP16, literal(-5)))
          CFI R7 load(1, XDATA, add(CFA_XSP16, literal(-6)))
          CFI V3 load(1, XDATA, add(CFA_XSP16, literal(-7)))
          CFI V2 load(1, XDATA, add(CFA_XSP16, literal(-8)))
          CFI V1 load(1, XDATA, add(CFA_XSP16, literal(-9)))
          CFI V0 load(1, XDATA, add(CFA_XSP16, literal(-10)))
          CFI VB load(1, XDATA, add(CFA_XSP16, literal(-11)))
          CFI R6 load(1, XDATA, add(CFA_XSP16, literal(-12)))
          CFI CFA_SP SP+0
          CFI CFA_XSP16 add(XSP16, 12)
        ; Saved register size: 12
        ; Auto size: 14
        MOV     A,#-0xe
        LCALL   ?ALLOC_XSTACK8
          CFI CFA_XSP16 add(XSP16, 26)
        MOV     A,R2
        MOV     R6,A
        MOV     ?V1,R4
// 1179   gapBondRec_t bondRec;   // Space to read a Bond record from NV
// 1180 
// 1181   // Look for public address that is used (not all 0xFF's)
// 1182   if ( (osal_snv_read( mainRecordNvID(idx), sizeof ( gapBondRec_t ), &bondRec ) == SUCCESS)
// 1183       && (osal_isbufset( bondRec.publicAddr, 0xFF, B_ADDR_LEN ) == FALSE) )
        MOV     B,#0x6
        MOV     A,R1
        MUL     AB
        ADD     A,#0x20
        MOV     ?V0,A
        ; Setup parameters for call to function osal_snv_read
        MOV     R4,?XSP + 0
        MOV     R5,?XSP + 1
        MOV     R2,#0xe
        MOV     R1,A
        LCALL   ??osal_snv_read?relay; Banked call to: osal_snv_read
        MOV     A,R1
        JNZ     ??gapBondMgrChangeState_0
        ; Setup parameters for call to function osal_isbufset
        MOV     R4,#0x6
        MOV     R1,#-0x1
        MOV     R2,?XSP + 0
        MOV     R3,?XSP + 1
        LCALL   ??osal_isbufset?relay; Banked call to: osal_isbufset
        MOV     A,R1
        JNZ     ??gapBondMgrChangeState_0
// 1184   {
// 1185     // Update the state of the bonded device.
// 1186     uint8 stateFlags = bondRec.stateFlags;
        MOV     A,#0xc
        LCALL   ?XSTACK_DISP0_8
        LCALL   ??Subroutine26_0 & 0xFFFF
??CrossCallReturnLabel_79:
        MOV     A,R0
        MOV     ?V3,A
// 1187     if ( set )
        MOV     A,?V1
        JZ      ??gapBondMgrChangeState_1
// 1188     {
// 1189       stateFlags |= state;
        MOV     A,R6
        ORL     ?V3,A
        SJMP    ??gapBondMgrChangeState_2
// 1190     }
// 1191     else
// 1192     {
// 1193       stateFlags &= ~(state);
??gapBondMgrChangeState_1:
        MOV     A,R6
        CPL     A
        ANL     ?V3,A
// 1194     }
// 1195 
// 1196     if ( stateFlags != bondRec.stateFlags )
??gapBondMgrChangeState_2:
        MOV     DPL,?V3
        MOV     R2,DPL
        MOV     A,R0
        XRL     A,R2
        JNZ     ??gapBondMgrChangeState_3
        MOV     A,R1
??gapBondMgrChangeState_3:
        JZ      ??gapBondMgrChangeState_4
// 1197     {
// 1198       bondRec.stateFlags = stateFlags;
        MOV     A,#0xc
        LCALL   ?XSTACK_DISP0_8
        MOV     A,R2
        MOVX    @DPTR,A
        INC     DPTR
        CLR     A
        MOVX    @DPTR,A
// 1199       VOID osal_snv_write( mainRecordNvID(idx), sizeof ( gapBondRec_t ), &bondRec );
        ; Setup parameters for call to function osal_snv_write
        MOV     R4,?XSP + 0
        MOV     R5,?XSP + 1
        MOV     R2,#0xe
        MOV     R1,?V0
        LCALL   ??osal_snv_write?relay; Banked call to: osal_snv_write
// 1200     }
// 1201     return ( TRUE );
??gapBondMgrChangeState_4:
        MOV     R1,#0x1
        SJMP    ??gapBondMgrChangeState_5
// 1202   }
// 1203   return ( FALSE );
??gapBondMgrChangeState_0:
        MOV     R1,#0x0
??gapBondMgrChangeState_5:
        LJMP    ?Subroutine1 & 0xFFFF
          CFI EndBlock cfiBlock24
// 1204 }
// 1205 
// 1206 /*********************************************************************
// 1207  * @fn      gapBondMgrUpdateCharCfg
// 1208  *
// 1209  * @brief   Update the Characteristic Configuration of the bond record.
// 1210  *
// 1211  * @param   idx - Bond NV index
// 1212  * @param   attrHandle - attribute handle (0 means all handles)
// 1213  * @param   value - characteristic configuration value
// 1214  *
// 1215  * @return  TRUE if NV Record exists, FALSE if NV Record is empty
// 1216  */

        RSEG BANKED_CODE:CODE:NOROOT(0)
// 1217 static uint8 gapBondMgrUpdateCharCfg( uint8 idx, uint16 attrHandle, uint16 value )
gapBondMgrUpdateCharCfg:
          CFI Block cfiBlock25 Using cfiCommon0
          CFI Function gapBondMgrUpdateCharCfg
        CODE
// 1218 {
        FUNCALL gapBondMgrUpdateCharCfg, osal_snv_read
        LOCFRAME ISTACK, 0, STACK
        LOCFRAME PSTACK, 0, STACK
        LOCFRAME XSTACK, 40, STACK
        LOCFRAME IOVERLAY, 0, STATIC
        LOCFRAME DOVERLAY, 0, STATIC
        ARGFRAME ISTACK, 0, STACK
        ARGFRAME PSTACK, 0, STACK
        ARGFRAME XSTACK, 40, STACK
        ARGFRAME IOVERLAY, 0, STATIC
        ARGFRAME DOVERLAY, 0, STATIC
        FUNCALL gapBondMgrUpdateCharCfg, osal_isbufset
        LOCFRAME ISTACK, 0, STACK
        LOCFRAME PSTACK, 0, STACK
        LOCFRAME XSTACK, 40, STACK
        LOCFRAME IOVERLAY, 0, STATIC
        LOCFRAME DOVERLAY, 0, STATIC
        ARGFRAME ISTACK, 0, STACK
        ARGFRAME PSTACK, 0, STACK
        ARGFRAME XSTACK, 40, STACK
        ARGFRAME IOVERLAY, 0, STATIC
        ARGFRAME DOVERLAY, 0, STATIC
        FUNCALL gapBondMgrUpdateCharCfg, osal_snv_read
        LOCFRAME ISTACK, 0, STACK
        LOCFRAME PSTACK, 0, STACK
        LOCFRAME XSTACK, 40, STACK
        LOCFRAME IOVERLAY, 0, STATIC
        LOCFRAME DOVERLAY, 0, STATIC
        ARGFRAME ISTACK, 0, STACK
        ARGFRAME PSTACK, 0, STACK
        ARGFRAME XSTACK, 40, STACK
        ARGFRAME IOVERLAY, 0, STATIC
        ARGFRAME DOVERLAY, 0, STATIC
        FUNCALL gapBondMgrUpdateCharCfg, gapBondMgrInvertCharCfgItem
        LOCFRAME ISTACK, 0, STACK
        LOCFRAME PSTACK, 0, STACK
        LOCFRAME XSTACK, 40, STACK
        LOCFRAME IOVERLAY, 0, STATIC
        LOCFRAME DOVERLAY, 0, STATIC
        ARGFRAME ISTACK, 0, STACK
        ARGFRAME PSTACK, 0, STACK
        ARGFRAME XSTACK, 40, STACK
        ARGFRAME IOVERLAY, 0, STATIC
        ARGFRAME DOVERLAY, 0, STATIC
        FUNCALL gapBondMgrUpdateCharCfg, osal_isbufset
        LOCFRAME ISTACK, 0, STACK
        LOCFRAME PSTACK, 0, STACK
        LOCFRAME XSTACK, 40, STACK
        LOCFRAME IOVERLAY, 0, STATIC
        LOCFRAME DOVERLAY, 0, STATIC
        ARGFRAME ISTACK, 0, STACK
        ARGFRAME PSTACK, 0, STACK
        ARGFRAME XSTACK, 40, STACK
        ARGFRAME IOVERLAY, 0, STATIC
        ARGFRAME DOVERLAY, 0, STATIC
        FUNCALL gapBondMgrUpdateCharCfg, osal_memset
        LOCFRAME ISTACK, 0, STACK
        LOCFRAME PSTACK, 0, STACK
        LOCFRAME XSTACK, 40, STACK
        LOCFRAME IOVERLAY, 0, STATIC
        LOCFRAME DOVERLAY, 0, STATIC
        ARGFRAME ISTACK, 0, STACK
        ARGFRAME PSTACK, 0, STACK
        ARGFRAME XSTACK, 40, STACK
        ARGFRAME IOVERLAY, 0, STATIC
        ARGFRAME DOVERLAY, 0, STATIC
        FUNCALL gapBondMgrUpdateCharCfg, gapBondMgrFindCharCfgItem
        LOCFRAME ISTACK, 0, STACK
        LOCFRAME PSTACK, 0, STACK
        LOCFRAME XSTACK, 40, STACK
        LOCFRAME IOVERLAY, 0, STATIC
        LOCFRAME DOVERLAY, 0, STATIC
        ARGFRAME ISTACK, 0, STACK
        ARGFRAME PSTACK, 0, STACK
        ARGFRAME XSTACK, 40, STACK
        ARGFRAME IOVERLAY, 0, STATIC
        ARGFRAME DOVERLAY, 0, STATIC
        FUNCALL gapBondMgrUpdateCharCfg, gapBondMgrFindCharCfgItem
        LOCFRAME ISTACK, 0, STACK
        LOCFRAME PSTACK, 0, STACK
        LOCFRAME XSTACK, 40, STACK
        LOCFRAME IOVERLAY, 0, STATIC
        LOCFRAME DOVERLAY, 0, STATIC
        ARGFRAME ISTACK, 0, STACK
        ARGFRAME PSTACK, 0, STACK
        ARGFRAME XSTACK, 40, STACK
        ARGFRAME IOVERLAY, 0, STATIC
        ARGFRAME DOVERLAY, 0, STATIC
        FUNCALL gapBondMgrUpdateCharCfg, gapBondMgrInvertCharCfgItem
        LOCFRAME ISTACK, 0, STACK
        LOCFRAME PSTACK, 0, STACK
        LOCFRAME XSTACK, 40, STACK
        LOCFRAME IOVERLAY, 0, STATIC
        LOCFRAME DOVERLAY, 0, STATIC
        ARGFRAME ISTACK, 0, STACK
        ARGFRAME PSTACK, 0, STACK
        ARGFRAME XSTACK, 40, STACK
        ARGFRAME IOVERLAY, 0, STATIC
        ARGFRAME DOVERLAY, 0, STATIC
        FUNCALL gapBondMgrUpdateCharCfg, osal_snv_write
        LOCFRAME ISTACK, 0, STACK
        LOCFRAME PSTACK, 0, STACK
        LOCFRAME XSTACK, 40, STACK
        LOCFRAME IOVERLAY, 0, STATIC
        LOCFRAME DOVERLAY, 0, STATIC
        ARGFRAME ISTACK, 0, STACK
        ARGFRAME PSTACK, 0, STACK
        ARGFRAME XSTACK, 40, STACK
        ARGFRAME IOVERLAY, 0, STATIC
        ARGFRAME DOVERLAY, 0, STATIC
        REQUIRE ?V0
        REQUIRE ?V1
        REQUIRE ?V2
        REQUIRE ?V3
        REQUIRE ?V4
        REQUIRE ?V5
        MOV     A,#-0xe
        LCALL   ?BANKED_ENTER_XDATA
          CFI DPH0 load(1, XDATA, add(CFA_XSP16, literal(-1)))
          CFI DPL0 load(1, XDATA, add(CFA_XSP16, literal(-2)))
          CFI ?BRET_EXT load(1, XDATA, add(CFA_XSP16, literal(-3)))
          CFI ?RET_HIGH load(1, XDATA, add(CFA_XSP16, literal(-4)))
          CFI ?RET_LOW load(1, XDATA, add(CFA_XSP16, literal(-5)))
          CFI R7 load(1, XDATA, add(CFA_XSP16, literal(-6)))
          CFI V5 load(1, XDATA, add(CFA_XSP16, literal(-7)))
          CFI V4 load(1, XDATA, add(CFA_XSP16, literal(-8)))
          CFI V3 load(1, XDATA, add(CFA_XSP16, literal(-9)))
          CFI V2 load(1, XDATA, add(CFA_XSP16, literal(-10)))
          CFI V1 load(1, XDATA, add(CFA_XSP16, literal(-11)))
          CFI V0 load(1, XDATA, add(CFA_XSP16, literal(-12)))
          CFI VB load(1, XDATA, add(CFA_XSP16, literal(-13)))
          CFI R6 load(1, XDATA, add(CFA_XSP16, literal(-14)))
          CFI CFA_SP SP+0
          CFI CFA_XSP16 add(XSP16, 14)
        ; Saved register size: 14
        ; Auto size: 26
        MOV     A,#-0x1a
        LCALL   ?ALLOC_XSTACK8
          CFI CFA_XSP16 add(XSP16, 40)
        MOV     ?V1,R1
        MOV     ?V4,R2
        MOV     ?V5,R3
        MOV     A,R4
        MOV     R6,A
        MOV     A,R5
        MOV     R7,A
// 1219   gapBondRec_t bondRec;   // Space to read a Bond record from NV
// 1220 
// 1221   // Look for public address that is used (not all 0xFF's)
// 1222   if ( ( osal_snv_read( mainRecordNvID(idx), sizeof ( gapBondRec_t ), &bondRec ) == SUCCESS )
// 1223        && ( osal_isbufset( bondRec.publicAddr, 0xFF, B_ADDR_LEN ) == FALSE ) )
        ; Setup parameters for call to function osal_snv_read
        MOV     A,#0xc
        LCALL   ?XSTACK_DISP102_8
        MOV     R2,#0xe
        MOV     B,#0x6
        MOV     A,R1
        MUL     AB
        ADD     A,#0x20
        MOV     R1,A
        LCALL   ??osal_snv_read?relay; Banked call to: osal_snv_read
        MOV     A,R1
        JZ      $+5
        LJMP    ??gapBondMgrUpdateCharCfg_0 & 0xFFFF
        ; Setup parameters for call to function osal_isbufset
        MOV     R4,#0x6
        MOV     R1,#-0x1
        MOV     A,#0xc
        LCALL   ?XSTACK_DISP101_8
        LCALL   ??osal_isbufset?relay; Banked call to: osal_isbufset
        MOV     A,R1
        JZ      $+5
        LJMP    ??gapBondMgrUpdateCharCfg_0 & 0xFFFF
// 1224   {
// 1225     gapBondCharCfg_t charCfg[GAP_CHAR_CFG_MAX]; // Space to read a char cfg record from NV
// 1226 
// 1227     if ( osal_snv_read( gattCfgNvID(idx), sizeof ( charCfg ), charCfg ) == SUCCESS )
        MOV     A,#0x70
        ADD     A,?V1
        MOV     ?V0,A
        ; Setup parameters for call to function osal_snv_read
        MOV     R4,?XSP + 0
        MOV     R5,?XSP + 1
        MOV     R2,#0xc
        MOV     R1,A
        LCALL   ??osal_snv_read?relay; Banked call to: osal_snv_read
        MOV     A,R1
        JZ      $+5
        LJMP    ??gapBondMgrUpdateCharCfg_1 & 0xFFFF
// 1228     {
// 1229       uint8 update = FALSE;
// 1230 
// 1231       gapBondMgrInvertCharCfgItem( charCfg );
        ; Setup parameters for call to function gapBondMgrInvertCharCfgItem
        MOV     R2,?XSP + 0
        MOV     R3,?XSP + 1
        LCALL   ??gapBondMgrInvertCharCfgItem?relay; Banked call to: gapBondMgrInvertCharCfgItem
// 1232 
// 1233       if ( attrHandle == GATT_INVALID_HANDLE )
        MOV     A,?V4
        ORL     A,?V5
        JNZ     ??gapBondMgrUpdateCharCfg_2
// 1234       {
// 1235         if ( osal_isbufset( (uint8 *)charCfg, 0x00, sizeof ( charCfg ) ) == FALSE )
        ; Setup parameters for call to function osal_isbufset
        MOV     R4,#0xc
        MOV     R1,#0x0
        MOV     R2,?XSP + 0
        MOV     R3,?XSP + 1
        LCALL   ??osal_isbufset?relay; Banked call to: osal_isbufset
        MOV     A,R1
        JNZ     ??gapBondMgrUpdateCharCfg_1
// 1236         {
// 1237           // Clear all characteristic configuration for this device
// 1238           VOID osal_memset( (void *)charCfg, 0x00, sizeof ( charCfg ) );
        ; Setup parameters for call to function osal_memset
        MOV     R4,#0xc
        MOV     R5,#0x0
        MOV     R1,#0x0
        MOV     R2,?XSP + 0
        MOV     R3,?XSP + 1
        LCALL   ??osal_memset?relay  ; Banked call to: osal_memset
// 1239           update = TRUE;
        SJMP    ??gapBondMgrUpdateCharCfg_3
// 1240         }
// 1241       }
// 1242       else
// 1243       {
// 1244         gapBondCharCfg_t *pItem = gapBondMgrFindCharCfgItem( attrHandle, charCfg );
??gapBondMgrUpdateCharCfg_2:
        ; Setup parameters for call to function gapBondMgrFindCharCfgItem
        MOV     R4,?XSP + 0
        MOV     R5,?XSP + 1
        MOV     R2,?V4
        MOV     R3,?V5
        LCALL   ??gapBondMgrFindCharCfgItem?relay; Banked call to: gapBondMgrFindCharCfgItem
        MOV     ?V2,R2
        MOV     ?V3,R3
        MOV     R0,?V2
        MOV     R1,?V3
// 1245         if ( pItem == NULL )
        MOV     A,R0
        ORL     A,R1
        JNZ     ??gapBondMgrUpdateCharCfg_4
// 1246         {
// 1247           // Must be a new item; ignore if the value is no operation (default)
// 1248           if ( ( value == GATT_CFG_NO_OPERATION ) ||
// 1249                ( ( pItem = gapBondMgrFindCharCfgItem( GATT_INVALID_HANDLE, charCfg ) ) == NULL ) )
        MOV     A,R6
        ORL     A,R7
        JZ      ??gapBondMgrUpdateCharCfg_0
        ; Setup parameters for call to function gapBondMgrFindCharCfgItem
        MOV     R4,?XSP + 0
        MOV     R5,?XSP + 1
        MOV     R2,#0x0
        MOV     R3,#0x0
        LCALL   ??gapBondMgrFindCharCfgItem?relay; Banked call to: gapBondMgrFindCharCfgItem
        MOV     A,R2
        MOV     R0,A
        MOV     A,R3
        MOV     R1,A
        MOV     A,R2
        ORL     A,R3
        JZ      ??gapBondMgrUpdateCharCfg_0
// 1250           {
// 1251             return ( FALSE ); // No empty entry found
// 1252           }
// 1253 
// 1254           pItem->attrHandle = attrHandle;
        MOV     DPL,R0
        MOV     DPH,R1
        MOV     A,?V4
        MOVX    @DPTR,A
        INC     DPTR
        MOV     A,?V5
        MOVX    @DPTR,A
// 1255         }
// 1256 
// 1257         if ( pItem->value != value )
??gapBondMgrUpdateCharCfg_4:
        LCALL   ?Subroutine20 & 0xFFFF
??CrossCallReturnLabel_32:
        MOV     R2,A
        MOV     A,R6
        XRL     A,R2
        JNZ     ??gapBondMgrUpdateCharCfg_5
        MOV     A,R7
??gapBondMgrUpdateCharCfg_5:
        JZ      ??gapBondMgrUpdateCharCfg_1
// 1258         {
// 1259           // Update characteristic configuration
// 1260           pItem->value = (uint8)value;
        MOV     A,R6
        MOVX    @DPTR,A
// 1261           if ( value == GATT_CFG_NO_OPERATION )
        ORL     A,R7
        JNZ     ??gapBondMgrUpdateCharCfg_3
// 1262           {
// 1263             // Erease the item
// 1264             pItem->attrHandle = GATT_INVALID_HANDLE;
        MOV     DPL,R0
        MOV     DPH,R1
        CLR     A
        MOVX    @DPTR,A
        INC     DPTR
        MOVX    @DPTR,A
// 1265           }
// 1266 
// 1267           update = TRUE;
// 1268         }
// 1269       }
// 1270 
// 1271       // Update the characteristic configuration of the bonded device.
// 1272       if ( update )
// 1273       {
// 1274         gapBondMgrInvertCharCfgItem( charCfg );
??gapBondMgrUpdateCharCfg_3:
        ; Setup parameters for call to function gapBondMgrInvertCharCfgItem
        MOV     R2,?XSP + 0
        MOV     R3,?XSP + 1
        LCALL   ??gapBondMgrInvertCharCfgItem?relay; Banked call to: gapBondMgrInvertCharCfgItem
// 1275         VOID osal_snv_write( gattCfgNvID(idx), sizeof( charCfg ), charCfg );
        ; Setup parameters for call to function osal_snv_write
        MOV     R4,?XSP + 0
        MOV     R5,?XSP + 1
        MOV     R2,#0xc
        MOV     R1,?V0
        LCALL   ??osal_snv_write?relay; Banked call to: osal_snv_write
// 1276       }
// 1277     }
// 1278 
// 1279     return ( TRUE );
??gapBondMgrUpdateCharCfg_1:
        MOV     R1,#0x1
        SJMP    ??gapBondMgrUpdateCharCfg_6
// 1280   }
// 1281 
// 1282   return ( FALSE );
??gapBondMgrUpdateCharCfg_0:
        MOV     R1,#0x0
??gapBondMgrUpdateCharCfg_6:
        MOV     A,#0x1a
        LCALL   ?DEALLOC_XSTACK8
          CFI CFA_XSP16 add(XSP16, 14)
        LJMP    ?Subroutine3 & 0xFFFF
          CFI EndBlock cfiBlock25
// 1283 }
// 1284 
// 1285 /*********************************************************************
// 1286  * @fn      gapBondMgrFindCharCfgItem
// 1287  *
// 1288  * @brief   Find the Characteristic Configuration for a given attribute.
// 1289  *          Uses the attribute handle to search the charactersitic
// 1290  *          configuration table of a bonded device.
// 1291  *
// 1292  * @param   attrHandle - attribute handle.
// 1293  * @param   charCfgTbl - characteristic configuration table.
// 1294  *
// 1295  * @return  pointer to the found item. NULL, otherwise.
// 1296  */

        RSEG BANKED_CODE:CODE:NOROOT(0)
// 1297 static gapBondCharCfg_t *gapBondMgrFindCharCfgItem( uint16 attrHandle,
gapBondMgrFindCharCfgItem:
          CFI Block cfiBlock26 Using cfiCommon0
          CFI Function gapBondMgrFindCharCfgItem
        CODE
// 1298                                                     gapBondCharCfg_t *charCfgTbl )
// 1299 {
        MOV     A,#-0x9
        LCALL   ?BANKED_ENTER_XDATA
          CFI DPH0 load(1, XDATA, add(CFA_XSP16, literal(-1)))
          CFI DPL0 load(1, XDATA, add(CFA_XSP16, literal(-2)))
          CFI ?BRET_EXT load(1, XDATA, add(CFA_XSP16, literal(-3)))
          CFI ?RET_HIGH load(1, XDATA, add(CFA_XSP16, literal(-4)))
          CFI ?RET_LOW load(1, XDATA, add(CFA_XSP16, literal(-5)))
          CFI R7 load(1, XDATA, add(CFA_XSP16, literal(-6)))
          CFI V0 load(1, XDATA, add(CFA_XSP16, literal(-7)))
          CFI VB load(1, XDATA, add(CFA_XSP16, literal(-8)))
          CFI R6 load(1, XDATA, add(CFA_XSP16, literal(-9)))
          CFI CFA_SP SP+0
          CFI CFA_XSP16 add(XSP16, 9)
        ; Saved register size: 9
        ; Auto size: 0
// 1300   for ( uint8 i = 0; i < GAP_CHAR_CFG_MAX; i++ )
        MOV     R7,#0x0
// 1301   {
// 1302     if ( charCfgTbl[i].attrHandle == attrHandle )
??gapBondMgrFindCharCfgItem_0:
        MOV     A,R7
        MOV     B,#0x3
        MUL     AB
        MOV     R0,A
        MOV     R1,B
        MOV     A,R4
        ADD     A,R0
        MOV     R0,A
        MOV     A,R5
        LCALL   ?Subroutine18 & 0xFFFF
??CrossCallReturnLabel_28:
        MOVX    A,@DPTR
        XRL     A,R2
        JNZ     ??gapBondMgrFindCharCfgItem_1
        INC     DPTR
        MOVX    A,@DPTR
        XRL     A,R3
??gapBondMgrFindCharCfgItem_1:
        JNZ     ??gapBondMgrFindCharCfgItem_2
// 1303     {
// 1304       return ( &(charCfgTbl[i]) );
        MOV     A,R0
        MOV     R2,A
        MOV     A,R1
        MOV     R3,A
        SJMP    ??gapBondMgrFindCharCfgItem_3
// 1305     }
// 1306   }
??gapBondMgrFindCharCfgItem_2:
        INC     R7
        MOV     A,R7
        CLR     C
        SUBB    A,#0x4
        JC      ??gapBondMgrFindCharCfgItem_0
// 1307 
// 1308   return ( (gapBondCharCfg_t *)NULL );
        MOV     R2,#0x0
        MOV     R3,#0x0
??gapBondMgrFindCharCfgItem_3:
        LJMP    ?Subroutine5 & 0xFFFF
          CFI EndBlock cfiBlock26
// 1309 }

        RSEG BANKED_CODE:CODE:NOROOT(0)
?Subroutine18:
          CFI Block cfiCond27 Using cfiCommon0
          CFI Function GAPBondMgr_LinkEst
          CFI Conditional ??CrossCallReturnLabel_27
          CFI R6 load(1, XDATA, add(CFA_XSP16, literal(-15)))
          CFI VB load(1, XDATA, add(CFA_XSP16, literal(-14)))
          CFI V0 load(1, XDATA, add(CFA_XSP16, literal(-13)))
          CFI V1 load(1, XDATA, add(CFA_XSP16, literal(-12)))
          CFI V2 load(1, XDATA, add(CFA_XSP16, literal(-11)))
          CFI V3 load(1, XDATA, add(CFA_XSP16, literal(-10)))
          CFI V4 load(1, XDATA, add(CFA_XSP16, literal(-9)))
          CFI V5 load(1, XDATA, add(CFA_XSP16, literal(-8)))
          CFI V6 load(1, XDATA, add(CFA_XSP16, literal(-7)))
          CFI R7 load(1, XDATA, add(CFA_XSP16, literal(-6)))
          CFI ?RET_LOW load(1, XDATA, add(CFA_XSP16, literal(-5)))
          CFI ?RET_HIGH load(1, XDATA, add(CFA_XSP16, literal(-4)))
          CFI ?BRET_EXT load(1, XDATA, add(CFA_XSP16, literal(-3)))
          CFI DPL0 load(1, XDATA, add(CFA_XSP16, literal(-2)))
          CFI DPH0 load(1, XDATA, add(CFA_XSP16, literal(-1)))
          CFI CFA_SP SP+-2
          CFI CFA_XSP16 add(XSP16, 53)
          CFI Block cfiCond28 Using cfiCommon0
          CFI (cfiCond28) Function gapBondMgrFindCharCfgItem
          CFI (cfiCond28) Conditional ??CrossCallReturnLabel_28
          CFI (cfiCond28) R6 load(1, XDATA, add(CFA_XSP16, literal(-9)))
          CFI (cfiCond28) VB load(1, XDATA, add(CFA_XSP16, literal(-8)))
          CFI (cfiCond28) V0 load(1, XDATA, add(CFA_XSP16, literal(-7)))
          CFI (cfiCond28) R7 load(1, XDATA, add(CFA_XSP16, literal(-6)))
          CFI (cfiCond28) ?RET_LOW load(1, XDATA, add(CFA_XSP16, literal(-5)))
          CFI (cfiCond28) ?RET_HIGH load(1, XDATA, add(CFA_XSP16, literal(-4)))
          CFI (cfiCond28) ?BRET_EXT load(1, XDATA, add(CFA_XSP16, literal(-3)))
          CFI (cfiCond28) DPL0 load(1, XDATA, add(CFA_XSP16, literal(-2)))
          CFI (cfiCond28) DPH0 load(1, XDATA, add(CFA_XSP16, literal(-1)))
          CFI (cfiCond28) CFA_SP SP+-2
          CFI (cfiCond28) CFA_XSP16 add(XSP16, 9)
          CFI Block cfiCond29 Using cfiCommon0
          CFI (cfiCond29) Function gapBondMgrInvertCharCfgItem
          CFI (cfiCond29) Conditional ??CrossCallReturnLabel_29
          CFI (cfiCond29) R6 load(1, XDATA, add(CFA_XSP16, literal(-9)))
          CFI (cfiCond29) VB load(1, XDATA, add(CFA_XSP16, literal(-8)))
          CFI (cfiCond29) V0 load(1, XDATA, add(CFA_XSP16, literal(-7)))
          CFI (cfiCond29) R7 load(1, XDATA, add(CFA_XSP16, literal(-6)))
          CFI (cfiCond29) ?RET_LOW load(1, XDATA, add(CFA_XSP16, literal(-5)))
          CFI (cfiCond29) ?RET_HIGH load(1, XDATA, add(CFA_XSP16, literal(-4)))
          CFI (cfiCond29) ?BRET_EXT load(1, XDATA, add(CFA_XSP16, literal(-3)))
          CFI (cfiCond29) DPL0 load(1, XDATA, add(CFA_XSP16, literal(-2)))
          CFI (cfiCond29) DPH0 load(1, XDATA, add(CFA_XSP16, literal(-1)))
          CFI (cfiCond29) CFA_SP SP+-2
          CFI (cfiCond29) CFA_XSP16 add(XSP16, 9)
          CFI Block cfiPicker30 Using cfiCommon1
          CFI (cfiPicker30) NoFunction
          CFI (cfiPicker30) Picker
        ADDC    A,R1
        MOV     R1,A
        MOV     DPL,R0
        MOV     DPH,R1
        RET
          CFI EndBlock cfiCond27
          CFI EndBlock cfiCond28
          CFI EndBlock cfiCond29
          CFI EndBlock cfiPicker30
// 1310 
// 1311 /*********************************************************************
// 1312  * @fn      gapBondMgrFindCharCfgItem
// 1313  *
// 1314  * @brief   Invert the Characteristic Configuration for a given client.
// 1315  *
// 1316  * @param   charCfgTbl - characteristic configuration table.
// 1317  *
// 1318  * @return  none.
// 1319  */

        RSEG BANKED_CODE:CODE:NOROOT(0)
// 1320 static void gapBondMgrInvertCharCfgItem( gapBondCharCfg_t *charCfgTbl )
gapBondMgrInvertCharCfgItem:
          CFI Block cfiBlock31 Using cfiCommon0
          CFI Function gapBondMgrInvertCharCfgItem
        CODE
// 1321 {
        MOV     A,#-0x9
        LCALL   ?BANKED_ENTER_XDATA
          CFI DPH0 load(1, XDATA, add(CFA_XSP16, literal(-1)))
          CFI DPL0 load(1, XDATA, add(CFA_XSP16, literal(-2)))
          CFI ?BRET_EXT load(1, XDATA, add(CFA_XSP16, literal(-3)))
          CFI ?RET_HIGH load(1, XDATA, add(CFA_XSP16, literal(-4)))
          CFI ?RET_LOW load(1, XDATA, add(CFA_XSP16, literal(-5)))
          CFI R7 load(1, XDATA, add(CFA_XSP16, literal(-6)))
          CFI V0 load(1, XDATA, add(CFA_XSP16, literal(-7)))
          CFI VB load(1, XDATA, add(CFA_XSP16, literal(-8)))
          CFI R6 load(1, XDATA, add(CFA_XSP16, literal(-9)))
          CFI CFA_SP SP+0
          CFI CFA_XSP16 add(XSP16, 9)
        ; Saved register size: 9
        ; Auto size: 0
// 1322   for ( uint8 i = 0; i < GAP_CHAR_CFG_MAX; i++ )
        MOV     R6,#0x0
// 1323   {
// 1324     charCfgTbl[i].attrHandle = ~(charCfgTbl[i].attrHandle);
??gapBondMgrInvertCharCfgItem_0:
        MOV     A,R6
        MOV     B,#0x3
        MUL     AB
        MOV     R0,A
        MOV     R1,B
        MOV     A,R2
        ADD     A,R0
        MOV     R0,A
        MOV     A,R3
        LCALL   ?Subroutine18 & 0xFFFF
??CrossCallReturnLabel_29:
        MOVX    A,@DPTR
        CPL     A
        MOV     R4,A
        INC     DPTR
        MOVX    A,@DPTR
        CPL     A
        MOV     R5,A
        MOV     DPL,R0
        MOV     DPH,R1
        MOV     A,R4
        MOVX    @DPTR,A
        INC     DPTR
        MOV     A,R5
        MOVX    @DPTR,A
// 1325     charCfgTbl[i].value = ~(charCfgTbl[i].value);
        LCALL   ?Subroutine20 & 0xFFFF
// 1326   }
??CrossCallReturnLabel_33:
        CPL     A
        MOVX    @DPTR,A
        INC     R6
        MOV     A,R6
        CLR     C
        SUBB    A,#0x4
        JC      ??gapBondMgrInvertCharCfgItem_0
// 1327 }
        LJMP    ?Subroutine5 & 0xFFFF
          CFI EndBlock cfiBlock31

        RSEG BANKED_CODE:CODE:NOROOT(0)
?Subroutine20:
          CFI Block cfiCond32 Using cfiCommon0
          CFI Function gapBondMgrUpdateCharCfg
          CFI Conditional ??CrossCallReturnLabel_32
          CFI R6 load(1, XDATA, add(CFA_XSP16, literal(-14)))
          CFI VB load(1, XDATA, add(CFA_XSP16, literal(-13)))
          CFI V0 load(1, XDATA, add(CFA_XSP16, literal(-12)))
          CFI V1 load(1, XDATA, add(CFA_XSP16, literal(-11)))
          CFI V2 load(1, XDATA, add(CFA_XSP16, literal(-10)))
          CFI V3 load(1, XDATA, add(CFA_XSP16, literal(-9)))
          CFI V4 load(1, XDATA, add(CFA_XSP16, literal(-8)))
          CFI V5 load(1, XDATA, add(CFA_XSP16, literal(-7)))
          CFI R7 load(1, XDATA, add(CFA_XSP16, literal(-6)))
          CFI ?RET_LOW load(1, XDATA, add(CFA_XSP16, literal(-5)))
          CFI ?RET_HIGH load(1, XDATA, add(CFA_XSP16, literal(-4)))
          CFI ?BRET_EXT load(1, XDATA, add(CFA_XSP16, literal(-3)))
          CFI DPL0 load(1, XDATA, add(CFA_XSP16, literal(-2)))
          CFI DPH0 load(1, XDATA, add(CFA_XSP16, literal(-1)))
          CFI CFA_SP SP+-2
          CFI CFA_XSP16 add(XSP16, 40)
          CFI Block cfiCond33 Using cfiCommon0
          CFI (cfiCond33) Function gapBondMgrInvertCharCfgItem
          CFI (cfiCond33) Conditional ??CrossCallReturnLabel_33
          CFI (cfiCond33) R6 load(1, XDATA, add(CFA_XSP16, literal(-9)))
          CFI (cfiCond33) VB load(1, XDATA, add(CFA_XSP16, literal(-8)))
          CFI (cfiCond33) V0 load(1, XDATA, add(CFA_XSP16, literal(-7)))
          CFI (cfiCond33) R7 load(1, XDATA, add(CFA_XSP16, literal(-6)))
          CFI (cfiCond33) ?RET_LOW load(1, XDATA, add(CFA_XSP16, literal(-5)))
          CFI (cfiCond33) ?RET_HIGH load(1, XDATA, add(CFA_XSP16, literal(-4)))
          CFI (cfiCond33) ?BRET_EXT load(1, XDATA, add(CFA_XSP16, literal(-3)))
          CFI (cfiCond33) DPL0 load(1, XDATA, add(CFA_XSP16, literal(-2)))
          CFI (cfiCond33) DPH0 load(1, XDATA, add(CFA_XSP16, literal(-1)))
          CFI (cfiCond33) CFA_SP SP+-2
          CFI (cfiCond33) CFA_XSP16 add(XSP16, 9)
          CFI Block cfiPicker34 Using cfiCommon1
          CFI (cfiPicker34) NoFunction
          CFI (cfiPicker34) Picker
        MOV     A,R0
        ADD     A,#0x2
        MOV     DPL,A
        CLR     A
        ADDC    A,R1
        MOV     DPH,A
        MOVX    A,@DPTR
        RET
          CFI EndBlock cfiCond32
          CFI EndBlock cfiCond33
          CFI EndBlock cfiPicker34
// 1328 
// 1329 /*********************************************************************
// 1330  * @fn      gapBondMgrAddBond
// 1331  *
// 1332  * @brief   Save a bond from a GAP Auth Complete Event
// 1333  *
// 1334  * @param   pBondRec - basic bond record
// 1335  * @param   pLocalLTK - LTK used by this device during pairing
// 1336  * @param   pDevLTK - LTK used by the connected device during pairing
// 1337  * @param   pIRK - IRK used by the connected device during pairing
// 1338  * @param   pSRK - SRK used by the connected device during pairing
// 1339  * @param   signCounter - Sign counter used by the connected device during pairing
// 1340  *
// 1341  * @return  TRUE, if done processing bond record. FALSE, otherwise.
// 1342  */

        RSEG BANKED_CODE:CODE:NOROOT(0)
// 1343 static uint8 gapBondMgrAddBond( gapBondRec_t *pBondRec, gapAuthCompleteEvent_t *pPkt )
gapBondMgrAddBond:
          CFI Block cfiBlock35 Using cfiCommon0
          CFI Function gapBondMgrAddBond
        CODE
// 1344 { 
        FUNCALL gapBondMgrAddBond, gapBondMgrFindAddr
        LOCFRAME ISTACK, 0, STACK
        LOCFRAME PSTACK, 0, STACK
        LOCFRAME XSTACK, 24, STACK
        LOCFRAME IOVERLAY, 0, STATIC
        LOCFRAME DOVERLAY, 0, STATIC
        ARGFRAME ISTACK, 0, STACK
        ARGFRAME PSTACK, 0, STACK
        ARGFRAME XSTACK, 24, STACK
        ARGFRAME IOVERLAY, 0, STATIC
        ARGFRAME DOVERLAY, 0, STATIC
        FUNCALL gapBondMgrAddBond, osal_isbufset
        LOCFRAME ISTACK, 0, STACK
        LOCFRAME PSTACK, 0, STACK
        LOCFRAME XSTACK, 24, STACK
        LOCFRAME IOVERLAY, 0, STATIC
        LOCFRAME DOVERLAY, 0, STATIC
        ARGFRAME ISTACK, 0, STACK
        ARGFRAME PSTACK, 0, STACK
        ARGFRAME XSTACK, 24, STACK
        ARGFRAME IOVERLAY, 0, STATIC
        ARGFRAME DOVERLAY, 0, STATIC
        FUNCALL gapBondMgrAddBond, osal_snv_write
        LOCFRAME ISTACK, 0, STACK
        LOCFRAME PSTACK, 0, STACK
        LOCFRAME XSTACK, 24, STACK
        LOCFRAME IOVERLAY, 0, STATIC
        LOCFRAME DOVERLAY, 0, STATIC
        ARGFRAME ISTACK, 0, STACK
        ARGFRAME PSTACK, 0, STACK
        ARGFRAME XSTACK, 24, STACK
        ARGFRAME IOVERLAY, 0, STATIC
        ARGFRAME DOVERLAY, 0, STATIC
        FUNCALL gapBondMgrAddBond, osal_memset
        LOCFRAME ISTACK, 0, STACK
        LOCFRAME PSTACK, 0, STACK
        LOCFRAME XSTACK, 24, STACK
        LOCFRAME IOVERLAY, 0, STATIC
        LOCFRAME DOVERLAY, 0, STATIC
        ARGFRAME ISTACK, 0, STACK
        ARGFRAME PSTACK, 0, STACK
        ARGFRAME XSTACK, 24, STACK
        ARGFRAME IOVERLAY, 0, STATIC
        ARGFRAME DOVERLAY, 0, STATIC
        FUNCALL gapBondMgrAddBond, osal_snv_write
        LOCFRAME ISTACK, 0, STACK
        LOCFRAME PSTACK, 0, STACK
        LOCFRAME XSTACK, 24, STACK
        LOCFRAME IOVERLAY, 0, STATIC
        LOCFRAME DOVERLAY, 0, STATIC
        ARGFRAME ISTACK, 0, STACK
        ARGFRAME PSTACK, 0, STACK
        ARGFRAME XSTACK, 24, STACK
        ARGFRAME IOVERLAY, 0, STATIC
        ARGFRAME DOVERLAY, 0, STATIC
        FUNCALL gapBondMgrAddBond, osal_memcpy
        LOCFRAME ISTACK, 0, STACK
        LOCFRAME PSTACK, 0, STACK
        LOCFRAME XSTACK, 26, STACK
        LOCFRAME IOVERLAY, 0, STATIC
        LOCFRAME DOVERLAY, 0, STATIC
        ARGFRAME ISTACK, 0, STACK
        ARGFRAME PSTACK, 0, STACK
        ARGFRAME XSTACK, 26, STACK
        ARGFRAME IOVERLAY, 0, STATIC
        ARGFRAME DOVERLAY, 0, STATIC
        FUNCALL gapBondMgrAddBond, osal_snv_write
        LOCFRAME ISTACK, 0, STACK
        LOCFRAME PSTACK, 0, STACK
        LOCFRAME XSTACK, 24, STACK
        LOCFRAME IOVERLAY, 0, STATIC
        LOCFRAME DOVERLAY, 0, STATIC
        ARGFRAME ISTACK, 0, STACK
        ARGFRAME PSTACK, 0, STACK
        ARGFRAME XSTACK, 24, STACK
        ARGFRAME IOVERLAY, 0, STATIC
        ARGFRAME DOVERLAY, 0, STATIC
        FUNCALL gapBondMgrAddBond, osal_snv_write
        LOCFRAME ISTACK, 0, STACK
        LOCFRAME PSTACK, 0, STACK
        LOCFRAME XSTACK, 24, STACK
        LOCFRAME IOVERLAY, 0, STATIC
        LOCFRAME DOVERLAY, 0, STATIC
        ARGFRAME ISTACK, 0, STACK
        ARGFRAME PSTACK, 0, STACK
        ARGFRAME XSTACK, 24, STACK
        ARGFRAME IOVERLAY, 0, STATIC
        ARGFRAME DOVERLAY, 0, STATIC
        FUNCALL gapBondMgrAddBond, osal_snv_write
        LOCFRAME ISTACK, 0, STACK
        LOCFRAME PSTACK, 0, STACK
        LOCFRAME XSTACK, 24, STACK
        LOCFRAME IOVERLAY, 0, STATIC
        LOCFRAME DOVERLAY, 0, STATIC
        ARGFRAME ISTACK, 0, STACK
        ARGFRAME PSTACK, 0, STACK
        ARGFRAME XSTACK, 24, STACK
        ARGFRAME IOVERLAY, 0, STATIC
        ARGFRAME DOVERLAY, 0, STATIC
        FUNCALL gapBondMgrAddBond, osal_snv_write
        LOCFRAME ISTACK, 0, STACK
        LOCFRAME PSTACK, 0, STACK
        LOCFRAME XSTACK, 24, STACK
        LOCFRAME IOVERLAY, 0, STATIC
        LOCFRAME DOVERLAY, 0, STATIC
        ARGFRAME ISTACK, 0, STACK
        ARGFRAME PSTACK, 0, STACK
        ARGFRAME XSTACK, 24, STACK
        ARGFRAME IOVERLAY, 0, STATIC
        ARGFRAME DOVERLAY, 0, STATIC
        FUNCALL gapBondMgrAddBond, osal_snv_write
        LOCFRAME ISTACK, 0, STACK
        LOCFRAME PSTACK, 0, STACK
        LOCFRAME XSTACK, 24, STACK
        LOCFRAME IOVERLAY, 0, STATIC
        LOCFRAME DOVERLAY, 0, STATIC
        ARGFRAME ISTACK, 0, STACK
        ARGFRAME PSTACK, 0, STACK
        ARGFRAME XSTACK, 24, STACK
        ARGFRAME IOVERLAY, 0, STATIC
        ARGFRAME DOVERLAY, 0, STATIC
        FUNCALL gapBondMgrAddBond, gapBondMgr_SyncWhiteList
        LOCFRAME ISTACK, 0, STACK
        LOCFRAME PSTACK, 0, STACK
        LOCFRAME XSTACK, 24, STACK
        LOCFRAME IOVERLAY, 0, STATIC
        LOCFRAME DOVERLAY, 0, STATIC
        ARGFRAME ISTACK, 0, STACK
        ARGFRAME PSTACK, 0, STACK
        ARGFRAME XSTACK, 24, STACK
        ARGFRAME IOVERLAY, 0, STATIC
        ARGFRAME DOVERLAY, 0, STATIC
        FUNCALL gapBondMgrAddBond, gapBondSetupPrivFlag
        LOCFRAME ISTACK, 0, STACK
        LOCFRAME PSTACK, 0, STACK
        LOCFRAME XSTACK, 24, STACK
        LOCFRAME IOVERLAY, 0, STATIC
        LOCFRAME DOVERLAY, 0, STATIC
        ARGFRAME ISTACK, 0, STACK
        ARGFRAME PSTACK, 0, STACK
        ARGFRAME XSTACK, 24, STACK
        ARGFRAME IOVERLAY, 0, STATIC
        ARGFRAME DOVERLAY, 0, STATIC
        REQUIRE ?V0
        REQUIRE ?V1
        REQUIRE ?V2
        REQUIRE ?V3
        MOV     A,#-0xc
        LCALL   ?BANKED_ENTER_XDATA
          CFI DPH0 load(1, XDATA, add(CFA_XSP16, literal(-1)))
          CFI DPL0 load(1, XDATA, add(CFA_XSP16, literal(-2)))
          CFI ?BRET_EXT load(1, XDATA, add(CFA_XSP16, literal(-3)))
          CFI ?RET_HIGH load(1, XDATA, add(CFA_XSP16, literal(-4)))
          CFI ?RET_LOW load(1, XDATA, add(CFA_XSP16, literal(-5)))
          CFI R7 load(1, XDATA, add(CFA_XSP16, literal(-6)))
          CFI V3 load(1, XDATA, add(CFA_XSP16, literal(-7)))
          CFI V2 load(1, XDATA, add(CFA_XSP16, literal(-8)))
          CFI V1 load(1, XDATA, add(CFA_XSP16, literal(-9)))
          CFI V0 load(1, XDATA, add(CFA_XSP16, literal(-10)))
          CFI VB load(1, XDATA, add(CFA_XSP16, literal(-11)))
          CFI R6 load(1, XDATA, add(CFA_XSP16, literal(-12)))
          CFI CFA_SP SP+0
          CFI CFA_XSP16 add(XSP16, 12)
        ; Saved register size: 12
        ; Auto size: 12
        MOV     A,#-0xc
        LCALL   ?ALLOC_XSTACK8
          CFI CFA_XSP16 add(XSP16, 24)
        MOV     A,R2
        MOV     R6,A
        MOV     A,R3
        MOV     R7,A
        MOV     ?V2,R4
        MOV     ?V3,R5
// 1345   // See if this is a new bond record
// 1346   if ( pAuthEvt == NULL )
        MOV     DPTR,#pAuthEvt
        LCALL   ??Subroutine31_0 & 0xFFFF
??CrossCallReturnLabel_66:
        JNZ     ??gapBondMgrAddBond_0
// 1347   {
// 1348     // Make sure we have bonding info
// 1349     if ( ( pBondRec == NULL ) || ( pPkt == NULL ) )
        MOV     A,R6
        ORL     A,R7
        JNZ     $+5
        LJMP    ??gapBondMgrAddBond_1 & 0xFFFF
        MOV     A,R4
        ORL     A,?V3
        JNZ     $+5
        LJMP    ??gapBondMgrAddBond_1 & 0xFFFF
// 1350     {
// 1351       return ( TRUE );
// 1352     }
// 1353 
// 1354     // First see if we already have an existing bond for this device
// 1355     bondIdx = gapBondMgrFindAddr( pBondRec->publicAddr );
        ; Setup parameters for call to function gapBondMgrFindAddr
        LCALL   ??gapBondMgrFindAddr?relay; Banked call to: gapBondMgrFindAddr
        MOV     A,R1
        MOV     DPTR,#bondIdx
        MOVX    @DPTR,A
// 1356     if ( bondIdx >= GAP_BONDINGS_MAX )
        CLR     C
        SUBB    A,#0xa
        JC      ??gapBondMgrAddBond_0
// 1357     {
// 1358       bondIdx = gapBondMgrFindEmpty();
        MOV     ?V0,#0x0
??gapBondMgrAddBond_2:
        ; Setup parameters for call to function osal_isbufset
        MOV     R4,#0x6
        MOV     R1,#-0x1
        MOV     A,?V0
        MOV     B,#0xe
        MUL     AB
        MOV     R2,A
        MOV     R3,B
        MOV     A,#bonds & 0xff
        ADD     A,R2
        MOV     R2,A
        MOV     A,#(bonds >> 8) & 0xff
        ADDC    A,R3
        MOV     R3,A
        LCALL   ??osal_isbufset?relay; Banked call to: osal_isbufset
        MOV     A,R1
        JZ      $+5
        LJMP    ??gapBondMgrAddBond_3 & 0xFFFF
        INC     ?V0
        MOV     A,?V0
        CLR     C
        SUBB    A,#0xa
        JC      ??gapBondMgrAddBond_2
        MOV     ?V1,#0xa
??gapBondMgrAddBond_4:
        MOV     A,?V1
        MOV     DPTR,#bondIdx
        MOVX    @DPTR,A
// 1359     }
// 1360   }
// 1361 
// 1362   if ( bondIdx < GAP_BONDINGS_MAX )
??gapBondMgrAddBond_0:
        MOV     DPTR,#bondIdx
        MOVX    A,@DPTR
        CLR     C
        SUBB    A,#0xa
        JC      $+5
        LJMP    ??gapBondMgrAddBond_1 & 0xFFFF
// 1363   { 
// 1364     // See if this is a new bond record
// 1365     if ( pAuthEvt == NULL )
        MOV     B,#0x6
        MOVX    A,@DPTR
        MUL     AB
        MOV     R0,A
        MOV     DPTR,#pAuthEvt
        LCALL   ??Subroutine28_0 & 0xFFFF
??CrossCallReturnLabel_52:
        MOV     A,R2
        ORL     A,R3
        JNZ     ??gapBondMgrAddBond_5
// 1366     {
// 1367       gapBondCharCfg_t charCfg[GAP_CHAR_CFG_MAX];
// 1368       
// 1369       // Save the main information
// 1370       VOID osal_snv_write( mainRecordNvID(bondIdx), sizeof ( gapBondRec_t ), pBondRec );
        ; Setup parameters for call to function osal_snv_write
        MOV     A,R6
        MOV     R4,A
        MOV     A,R7
        MOV     R5,A
        MOV     R2,#0xe
        MOV     A,#0x20
        ADD     A,R0
        MOV     R1,A
        LCALL   ??osal_snv_write?relay; Banked call to: osal_snv_write
// 1371     
// 1372       // Write out FF's over the charactersitic configuration entry, to overwrite
// 1373       // any previous bond data that may have been stored
// 1374       VOID osal_memset( charCfg, 0xFF, sizeof ( charCfg ) );
        ; Setup parameters for call to function osal_memset
        MOV     R4,#0xc
        MOV     R5,#0x0
        MOV     R1,#-0x1
        MOV     R2,?XSP + 0
        MOV     R3,?XSP + 1
        LCALL   ??osal_memset?relay  ; Banked call to: osal_memset
// 1375 
// 1376       VOID osal_snv_write( gattCfgNvID(bondIdx), sizeof ( charCfg ), charCfg );
        ; Setup parameters for call to function osal_snv_write
        MOV     R4,?XSP + 0
        MOV     R5,?XSP + 1
        MOV     R2,#0xc
        MOV     DPTR,#bondIdx
        MOVX    A,@DPTR
        ADD     A,#0x70
        MOV     R1,A
        LCALL   ??osal_snv_write?relay; Banked call to: osal_snv_write
// 1377 
// 1378       // Update Bond RAM Shadow just with the newly added bond entry
// 1379       VOID osal_memcpy( &(bonds[bondIdx]), pBondRec, sizeof ( gapBondRec_t ) );
        ; Setup parameters for call to function osal_memcpy
        MOV     ?V0,#0xe
        MOV     ?V1,#0x0
        MOV     R0,#?V0
        LCALL   ?PUSH_XSTACK_I_TWO
          CFI CFA_XSP16 add(XSP16, 26)
        MOV     A,R6
        MOV     R4,A
        MOV     A,R7
        MOV     R5,A
        MOV     DPTR,#bondIdx
        MOVX    A,@DPTR
        MOV     B,#0xe
        MUL     AB
        MOV     R0,A
        MOV     R1,B
        MOV     A,#bonds & 0xff
        ADD     A,R0
        MOV     R2,A
        MOV     A,#(bonds >> 8) & 0xff
        ADDC    A,R1
        MOV     R3,A
        LCALL   ??osal_memcpy?relay  ; Banked call to: osal_memcpy
        MOV     A,#0x2
        LCALL   ?DEALLOC_XSTACK8
          CFI CFA_XSP16 add(XSP16, 24)
// 1380       
// 1381       // Keep the OSAL message to store the security keys later - will be freed then
// 1382       pAuthEvt = pPkt;
        MOV     DPTR,#pAuthEvt
        MOV     A,?V2
        MOVX    @DPTR,A
        INC     DPTR
        MOV     A,?V3
??gapBondMgrAddBond_6:
        MOVX    @DPTR,A
// 1383     }
// 1384     else
// 1385     {
// 1386       // If available, save the LTK information
// 1387       if ( pAuthEvt->pSecurityInfo )
// 1388       {
// 1389         VOID osal_snv_write( localLTKNvID(bondIdx), sizeof ( gapBondLTK_t ), pAuthEvt->pSecurityInfo );
// 1390         pAuthEvt->pSecurityInfo = NULL;
// 1391       }
// 1392       // If availabe, save the connected device's LTK information
// 1393       else if ( pAuthEvt->pDevSecInfo )
// 1394       {
// 1395         VOID osal_snv_write( devLTKNvID(bondIdx), sizeof ( gapBondLTK_t ), pAuthEvt->pDevSecInfo );
// 1396         pAuthEvt->pDevSecInfo = NULL;
// 1397       }
// 1398       // If available, save the connected device's IRK
// 1399       else if ( pAuthEvt->pIdentityInfo )
// 1400       {
// 1401         VOID osal_snv_write( devIRKNvID(bondIdx), KEYLEN, pAuthEvt->pIdentityInfo->irk );
// 1402         pAuthEvt->pIdentityInfo = NULL;
// 1403       }
// 1404       // If available, save the connected device's Signature information
// 1405       else if ( pAuthEvt->pSigningInfo )
// 1406       {
// 1407         VOID osal_snv_write( devCSRKNvID(bondIdx), KEYLEN, pAuthEvt->pSigningInfo->srk );    
// 1408         VOID osal_snv_write( devSignCounterNvID(bondIdx), sizeof ( uint32 ), &(pAuthEvt->pSigningInfo->signCounter) );
// 1409         pAuthEvt->pSigningInfo = NULL;
// 1410       }
// 1411       else
// 1412       {
// 1413         if ( autoSyncWhiteList )
// 1414         {
// 1415           gapBondMgr_SyncWhiteList();
// 1416         }
// 1417 
// 1418         // Update the GAP Privacy Flag Properties
// 1419         gapBondSetupPrivFlag();
// 1420         
// 1421         return ( TRUE );
// 1422       }
// 1423     }
// 1424     
// 1425     // We have more info to store
// 1426     return ( FALSE );
        MOV     R1,#0x0
        LJMP    ??gapBondMgrAddBond_7 & 0xFFFF
??gapBondMgrAddBond_3:
        MOV     ?V1,?V0
        LJMP    ??gapBondMgrAddBond_4 & 0xFFFF
??gapBondMgrAddBond_5:
        LCALL   ?Subroutine15 & 0xFFFF
??CrossCallReturnLabel_16:
        ADD     A,#0x6
        LCALL   ?Subroutine9 & 0xFFFF
??CrossCallReturnLabel_41:
        JZ      ??gapBondMgrAddBond_8
        ; Setup parameters for call to function osal_snv_write
        MOV     R2,#0x1b
        MOV     A,#0x21
        ADD     A,R0
        MOV     R1,A
        LCALL   ??osal_snv_write?relay; Banked call to: osal_snv_write
        LCALL   ?Subroutine13 & 0xFFFF
??CrossCallReturnLabel_7:
        ADD     A,#0x6
??gapBondMgrAddBond_9:
        MOV     DPL,A
        CLR     A
        ADDC    A,R0
        MOV     DPH,A
        CLR     A
        MOVX    @DPTR,A
        INC     DPTR
        SJMP    ??gapBondMgrAddBond_6
??gapBondMgrAddBond_8:
        LCALL   ?Subroutine15 & 0xFFFF
??CrossCallReturnLabel_17:
        ADD     A,#0xa
        LCALL   ?Subroutine9 & 0xFFFF
??CrossCallReturnLabel_42:
        JZ      ??gapBondMgrAddBond_10
        ; Setup parameters for call to function osal_snv_write
        MOV     R2,#0x1b
        MOV     A,#0x22
        ADD     A,R0
        MOV     R1,A
        LCALL   ??osal_snv_write?relay; Banked call to: osal_snv_write
        LCALL   ?Subroutine13 & 0xFFFF
??CrossCallReturnLabel_8:
        ADD     A,#0xa
        SJMP    ??gapBondMgrAddBond_9
??gapBondMgrAddBond_10:
        LCALL   ?Subroutine15 & 0xFFFF
??CrossCallReturnLabel_18:
        ADD     A,#0xc
        LCALL   ?Subroutine9 & 0xFFFF
??CrossCallReturnLabel_43:
        JZ      ??gapBondMgrAddBond_11
        ; Setup parameters for call to function osal_snv_write
        MOV     R2,#0x10
        MOV     A,#0x23
        ADD     A,R0
        MOV     R1,A
        LCALL   ??osal_snv_write?relay; Banked call to: osal_snv_write
        LCALL   ?Subroutine13 & 0xFFFF
??CrossCallReturnLabel_9:
        ADD     A,#0xc
        SJMP    ??gapBondMgrAddBond_9
??gapBondMgrAddBond_11:
        LCALL   ?Subroutine15 & 0xFFFF
??CrossCallReturnLabel_19:
        ADD     A,#0x8
        LCALL   ?Subroutine9 & 0xFFFF
??CrossCallReturnLabel_44:
        JZ      ??gapBondMgrAddBond_12
        ; Setup parameters for call to function osal_snv_write
        MOV     R2,#0x10
        MOV     A,#0x24
        ADD     A,R0
        MOV     R1,A
        LCALL   ??osal_snv_write?relay; Banked call to: osal_snv_write
        ; Setup parameters for call to function osal_snv_write
        LCALL   ?Subroutine13 & 0xFFFF
??CrossCallReturnLabel_10:
        ADD     A,#0x8
        MOV     DPL,A
        CLR     A
        ADDC    A,R0
        MOV     DPH,A
        MOVX    A,@DPTR
        ADD     A,#0x10
        MOV     R4,A
        INC     DPTR
        MOVX    A,@DPTR
        ADDC    A,#0x0
        MOV     R5,A
        MOV     R2,#0x4
        MOV     B,#0x6
        MOV     DPTR,#bondIdx
        MOVX    A,@DPTR
        MUL     AB
        ADD     A,#0x25
        MOV     R1,A
        LCALL   ??osal_snv_write?relay; Banked call to: osal_snv_write
        LCALL   ?Subroutine13 & 0xFFFF
??CrossCallReturnLabel_11:
        ADD     A,#0x8
        SJMP    ??gapBondMgrAddBond_9
??gapBondMgrAddBond_12:
        MOV     DPTR,#autoSyncWhiteList
        MOVX    A,@DPTR
        JZ      ??gapBondMgrAddBond_13
        ; Setup parameters for call to function gapBondMgr_SyncWhiteList
        LCALL   ??gapBondMgr_SyncWhiteList?relay; Banked call to: gapBondMgr_SyncWhiteList
??gapBondMgrAddBond_13:
        ; Setup parameters for call to function gapBondSetupPrivFlag
        LCALL   ??gapBondSetupPrivFlag?relay; Banked call to: gapBondSetupPrivFlag
// 1427   }
// 1428 
// 1429   return ( TRUE );
??gapBondMgrAddBond_1:
        MOV     R1,#0x1
??gapBondMgrAddBond_7:
        MOV     A,#0xc
        LJMP    ??Subroutine29_0 & 0xFFFF
          CFI EndBlock cfiBlock35
// 1430 }

        RSEG BANKED_CODE:CODE:NOROOT(0)
?Subroutine15:
          CFI Block cfiCond36 Using cfiCommon0
          CFI Function gapBondMgrAddBond
          CFI Conditional ??CrossCallReturnLabel_16
          CFI R6 load(1, XDATA, add(CFA_XSP16, literal(-12)))
          CFI VB load(1, XDATA, add(CFA_XSP16, literal(-11)))
          CFI V0 load(1, XDATA, add(CFA_XSP16, literal(-10)))
          CFI V1 load(1, XDATA, add(CFA_XSP16, literal(-9)))
          CFI V2 load(1, XDATA, add(CFA_XSP16, literal(-8)))
          CFI V3 load(1, XDATA, add(CFA_XSP16, literal(-7)))
          CFI R7 load(1, XDATA, add(CFA_XSP16, literal(-6)))
          CFI ?RET_LOW load(1, XDATA, add(CFA_XSP16, literal(-5)))
          CFI ?RET_HIGH load(1, XDATA, add(CFA_XSP16, literal(-4)))
          CFI ?BRET_EXT load(1, XDATA, add(CFA_XSP16, literal(-3)))
          CFI DPL0 load(1, XDATA, add(CFA_XSP16, literal(-2)))
          CFI DPH0 load(1, XDATA, add(CFA_XSP16, literal(-1)))
          CFI CFA_SP SP+-2
          CFI CFA_XSP16 add(XSP16, 24)
          CFI Block cfiCond37 Using cfiCommon0
          CFI (cfiCond37) Function gapBondMgrAddBond
          CFI (cfiCond37) Conditional ??CrossCallReturnLabel_17
          CFI (cfiCond37) R6 load(1, XDATA, add(CFA_XSP16, literal(-12)))
          CFI (cfiCond37) VB load(1, XDATA, add(CFA_XSP16, literal(-11)))
          CFI (cfiCond37) V0 load(1, XDATA, add(CFA_XSP16, literal(-10)))
          CFI (cfiCond37) V1 load(1, XDATA, add(CFA_XSP16, literal(-9)))
          CFI (cfiCond37) V2 load(1, XDATA, add(CFA_XSP16, literal(-8)))
          CFI (cfiCond37) V3 load(1, XDATA, add(CFA_XSP16, literal(-7)))
          CFI (cfiCond37) R7 load(1, XDATA, add(CFA_XSP16, literal(-6)))
          CFI (cfiCond37) ?RET_LOW load(1, XDATA, add(CFA_XSP16, literal(-5)))
          CFI (cfiCond37) ?RET_HIGH load(1, XDATA, add(CFA_XSP16, literal(-4)))
          CFI (cfiCond37) ?BRET_EXT load(1, XDATA, add(CFA_XSP16, literal(-3)))
          CFI (cfiCond37) DPL0 load(1, XDATA, add(CFA_XSP16, literal(-2)))
          CFI (cfiCond37) DPH0 load(1, XDATA, add(CFA_XSP16, literal(-1)))
          CFI (cfiCond37) CFA_SP SP+-2
          CFI (cfiCond37) CFA_XSP16 add(XSP16, 24)
          CFI Block cfiCond38 Using cfiCommon0
          CFI (cfiCond38) Function gapBondMgrAddBond
          CFI (cfiCond38) Conditional ??CrossCallReturnLabel_18
          CFI (cfiCond38) R6 load(1, XDATA, add(CFA_XSP16, literal(-12)))
          CFI (cfiCond38) VB load(1, XDATA, add(CFA_XSP16, literal(-11)))
          CFI (cfiCond38) V0 load(1, XDATA, add(CFA_XSP16, literal(-10)))
          CFI (cfiCond38) V1 load(1, XDATA, add(CFA_XSP16, literal(-9)))
          CFI (cfiCond38) V2 load(1, XDATA, add(CFA_XSP16, literal(-8)))
          CFI (cfiCond38) V3 load(1, XDATA, add(CFA_XSP16, literal(-7)))
          CFI (cfiCond38) R7 load(1, XDATA, add(CFA_XSP16, literal(-6)))
          CFI (cfiCond38) ?RET_LOW load(1, XDATA, add(CFA_XSP16, literal(-5)))
          CFI (cfiCond38) ?RET_HIGH load(1, XDATA, add(CFA_XSP16, literal(-4)))
          CFI (cfiCond38) ?BRET_EXT load(1, XDATA, add(CFA_XSP16, literal(-3)))
          CFI (cfiCond38) DPL0 load(1, XDATA, add(CFA_XSP16, literal(-2)))
          CFI (cfiCond38) DPH0 load(1, XDATA, add(CFA_XSP16, literal(-1)))
          CFI (cfiCond38) CFA_SP SP+-2
          CFI (cfiCond38) CFA_XSP16 add(XSP16, 24)
          CFI Block cfiCond39 Using cfiCommon0
          CFI (cfiCond39) Function gapBondMgrAddBond
          CFI (cfiCond39) Conditional ??CrossCallReturnLabel_19
          CFI (cfiCond39) R6 load(1, XDATA, add(CFA_XSP16, literal(-12)))
          CFI (cfiCond39) VB load(1, XDATA, add(CFA_XSP16, literal(-11)))
          CFI (cfiCond39) V0 load(1, XDATA, add(CFA_XSP16, literal(-10)))
          CFI (cfiCond39) V1 load(1, XDATA, add(CFA_XSP16, literal(-9)))
          CFI (cfiCond39) V2 load(1, XDATA, add(CFA_XSP16, literal(-8)))
          CFI (cfiCond39) V3 load(1, XDATA, add(CFA_XSP16, literal(-7)))
          CFI (cfiCond39) R7 load(1, XDATA, add(CFA_XSP16, literal(-6)))
          CFI (cfiCond39) ?RET_LOW load(1, XDATA, add(CFA_XSP16, literal(-5)))
          CFI (cfiCond39) ?RET_HIGH load(1, XDATA, add(CFA_XSP16, literal(-4)))
          CFI (cfiCond39) ?BRET_EXT load(1, XDATA, add(CFA_XSP16, literal(-3)))
          CFI (cfiCond39) DPL0 load(1, XDATA, add(CFA_XSP16, literal(-2)))
          CFI (cfiCond39) DPH0 load(1, XDATA, add(CFA_XSP16, literal(-1)))
          CFI (cfiCond39) CFA_SP SP+-2
          CFI (cfiCond39) CFA_XSP16 add(XSP16, 24)
          CFI Block cfiPicker40 Using cfiCommon1
          CFI (cfiPicker40) NoFunction
          CFI (cfiPicker40) Picker
        MOV     DPTR,#pAuthEvt
        MOVX    A,@DPTR
        MOV     R1,A
        INC     DPTR
        MOVX    A,@DPTR
        XCH     A,R1
        RET
          CFI EndBlock cfiCond36
          CFI EndBlock cfiCond37
          CFI EndBlock cfiCond38
          CFI EndBlock cfiCond39
          CFI EndBlock cfiPicker40

        RSEG BANKED_CODE:CODE:NOROOT(0)
?Subroutine13:
          CFI Block cfiCond41 Using cfiCommon0
          CFI Function gapBondMgrAddBond
          CFI Conditional ??CrossCallReturnLabel_7
          CFI R6 load(1, XDATA, add(CFA_XSP16, literal(-12)))
          CFI VB load(1, XDATA, add(CFA_XSP16, literal(-11)))
          CFI V0 load(1, XDATA, add(CFA_XSP16, literal(-10)))
          CFI V1 load(1, XDATA, add(CFA_XSP16, literal(-9)))
          CFI V2 load(1, XDATA, add(CFA_XSP16, literal(-8)))
          CFI V3 load(1, XDATA, add(CFA_XSP16, literal(-7)))
          CFI R7 load(1, XDATA, add(CFA_XSP16, literal(-6)))
          CFI ?RET_LOW load(1, XDATA, add(CFA_XSP16, literal(-5)))
          CFI ?RET_HIGH load(1, XDATA, add(CFA_XSP16, literal(-4)))
          CFI ?BRET_EXT load(1, XDATA, add(CFA_XSP16, literal(-3)))
          CFI DPL0 load(1, XDATA, add(CFA_XSP16, literal(-2)))
          CFI DPH0 load(1, XDATA, add(CFA_XSP16, literal(-1)))
          CFI CFA_SP SP+-2
          CFI CFA_XSP16 add(XSP16, 24)
          CFI Block cfiCond42 Using cfiCommon0
          CFI (cfiCond42) Function gapBondMgrAddBond
          CFI (cfiCond42) Conditional ??CrossCallReturnLabel_8
          CFI (cfiCond42) R6 load(1, XDATA, add(CFA_XSP16, literal(-12)))
          CFI (cfiCond42) VB load(1, XDATA, add(CFA_XSP16, literal(-11)))
          CFI (cfiCond42) V0 load(1, XDATA, add(CFA_XSP16, literal(-10)))
          CFI (cfiCond42) V1 load(1, XDATA, add(CFA_XSP16, literal(-9)))
          CFI (cfiCond42) V2 load(1, XDATA, add(CFA_XSP16, literal(-8)))
          CFI (cfiCond42) V3 load(1, XDATA, add(CFA_XSP16, literal(-7)))
          CFI (cfiCond42) R7 load(1, XDATA, add(CFA_XSP16, literal(-6)))
          CFI (cfiCond42) ?RET_LOW load(1, XDATA, add(CFA_XSP16, literal(-5)))
          CFI (cfiCond42) ?RET_HIGH load(1, XDATA, add(CFA_XSP16, literal(-4)))
          CFI (cfiCond42) ?BRET_EXT load(1, XDATA, add(CFA_XSP16, literal(-3)))
          CFI (cfiCond42) DPL0 load(1, XDATA, add(CFA_XSP16, literal(-2)))
          CFI (cfiCond42) DPH0 load(1, XDATA, add(CFA_XSP16, literal(-1)))
          CFI (cfiCond42) CFA_SP SP+-2
          CFI (cfiCond42) CFA_XSP16 add(XSP16, 24)
          CFI Block cfiCond43 Using cfiCommon0
          CFI (cfiCond43) Function gapBondMgrAddBond
          CFI (cfiCond43) Conditional ??CrossCallReturnLabel_9
          CFI (cfiCond43) R6 load(1, XDATA, add(CFA_XSP16, literal(-12)))
          CFI (cfiCond43) VB load(1, XDATA, add(CFA_XSP16, literal(-11)))
          CFI (cfiCond43) V0 load(1, XDATA, add(CFA_XSP16, literal(-10)))
          CFI (cfiCond43) V1 load(1, XDATA, add(CFA_XSP16, literal(-9)))
          CFI (cfiCond43) V2 load(1, XDATA, add(CFA_XSP16, literal(-8)))
          CFI (cfiCond43) V3 load(1, XDATA, add(CFA_XSP16, literal(-7)))
          CFI (cfiCond43) R7 load(1, XDATA, add(CFA_XSP16, literal(-6)))
          CFI (cfiCond43) ?RET_LOW load(1, XDATA, add(CFA_XSP16, literal(-5)))
          CFI (cfiCond43) ?RET_HIGH load(1, XDATA, add(CFA_XSP16, literal(-4)))
          CFI (cfiCond43) ?BRET_EXT load(1, XDATA, add(CFA_XSP16, literal(-3)))
          CFI (cfiCond43) DPL0 load(1, XDATA, add(CFA_XSP16, literal(-2)))
          CFI (cfiCond43) DPH0 load(1, XDATA, add(CFA_XSP16, literal(-1)))
          CFI (cfiCond43) CFA_SP SP+-2
          CFI (cfiCond43) CFA_XSP16 add(XSP16, 24)
          CFI Block cfiCond44 Using cfiCommon0
          CFI (cfiCond44) Function gapBondMgrAddBond
          CFI (cfiCond44) Conditional ??CrossCallReturnLabel_10
          CFI (cfiCond44) R6 load(1, XDATA, add(CFA_XSP16, literal(-12)))
          CFI (cfiCond44) VB load(1, XDATA, add(CFA_XSP16, literal(-11)))
          CFI (cfiCond44) V0 load(1, XDATA, add(CFA_XSP16, literal(-10)))
          CFI (cfiCond44) V1 load(1, XDATA, add(CFA_XSP16, literal(-9)))
          CFI (cfiCond44) V2 load(1, XDATA, add(CFA_XSP16, literal(-8)))
          CFI (cfiCond44) V3 load(1, XDATA, add(CFA_XSP16, literal(-7)))
          CFI (cfiCond44) R7 load(1, XDATA, add(CFA_XSP16, literal(-6)))
          CFI (cfiCond44) ?RET_LOW load(1, XDATA, add(CFA_XSP16, literal(-5)))
          CFI (cfiCond44) ?RET_HIGH load(1, XDATA, add(CFA_XSP16, literal(-4)))
          CFI (cfiCond44) ?BRET_EXT load(1, XDATA, add(CFA_XSP16, literal(-3)))
          CFI (cfiCond44) DPL0 load(1, XDATA, add(CFA_XSP16, literal(-2)))
          CFI (cfiCond44) DPH0 load(1, XDATA, add(CFA_XSP16, literal(-1)))
          CFI (cfiCond44) CFA_SP SP+-2
          CFI (cfiCond44) CFA_XSP16 add(XSP16, 24)
          CFI Block cfiCond45 Using cfiCommon0
          CFI (cfiCond45) Function gapBondMgrAddBond
          CFI (cfiCond45) Conditional ??CrossCallReturnLabel_11
          CFI (cfiCond45) R6 load(1, XDATA, add(CFA_XSP16, literal(-12)))
          CFI (cfiCond45) VB load(1, XDATA, add(CFA_XSP16, literal(-11)))
          CFI (cfiCond45) V0 load(1, XDATA, add(CFA_XSP16, literal(-10)))
          CFI (cfiCond45) V1 load(1, XDATA, add(CFA_XSP16, literal(-9)))
          CFI (cfiCond45) V2 load(1, XDATA, add(CFA_XSP16, literal(-8)))
          CFI (cfiCond45) V3 load(1, XDATA, add(CFA_XSP16, literal(-7)))
          CFI (cfiCond45) R7 load(1, XDATA, add(CFA_XSP16, literal(-6)))
          CFI (cfiCond45) ?RET_LOW load(1, XDATA, add(CFA_XSP16, literal(-5)))
          CFI (cfiCond45) ?RET_HIGH load(1, XDATA, add(CFA_XSP16, literal(-4)))
          CFI (cfiCond45) ?BRET_EXT load(1, XDATA, add(CFA_XSP16, literal(-3)))
          CFI (cfiCond45) DPL0 load(1, XDATA, add(CFA_XSP16, literal(-2)))
          CFI (cfiCond45) DPH0 load(1, XDATA, add(CFA_XSP16, literal(-1)))
          CFI (cfiCond45) CFA_SP SP+-2
          CFI (cfiCond45) CFA_XSP16 add(XSP16, 24)
          CFI Block cfiPicker46 Using cfiCommon1
          CFI (cfiPicker46) NoFunction
          CFI (cfiPicker46) Picker
        MOV     DPTR,#pAuthEvt
        MOVX    A,@DPTR
        MOV     R0,A
        INC     DPTR
        MOVX    A,@DPTR
        XCH     A,R0
        RET
          CFI EndBlock cfiCond41
          CFI EndBlock cfiCond42
          CFI EndBlock cfiCond43
          CFI EndBlock cfiCond44
          CFI EndBlock cfiCond45
          CFI EndBlock cfiPicker46

        RSEG BANKED_CODE:CODE:NOROOT(0)
?Subroutine9:
          CFI Block cfiCond47 Using cfiCommon0
          CFI Function gapBondMgrAddBond
          CFI Conditional ??CrossCallReturnLabel_41
          CFI R6 load(1, XDATA, add(CFA_XSP16, literal(-12)))
          CFI VB load(1, XDATA, add(CFA_XSP16, literal(-11)))
          CFI V0 load(1, XDATA, add(CFA_XSP16, literal(-10)))
          CFI V1 load(1, XDATA, add(CFA_XSP16, literal(-9)))
          CFI V2 load(1, XDATA, add(CFA_XSP16, literal(-8)))
          CFI V3 load(1, XDATA, add(CFA_XSP16, literal(-7)))
          CFI R7 load(1, XDATA, add(CFA_XSP16, literal(-6)))
          CFI ?RET_LOW load(1, XDATA, add(CFA_XSP16, literal(-5)))
          CFI ?RET_HIGH load(1, XDATA, add(CFA_XSP16, literal(-4)))
          CFI ?BRET_EXT load(1, XDATA, add(CFA_XSP16, literal(-3)))
          CFI DPL0 load(1, XDATA, add(CFA_XSP16, literal(-2)))
          CFI DPH0 load(1, XDATA, add(CFA_XSP16, literal(-1)))
          CFI CFA_SP SP+-2
          CFI CFA_XSP16 add(XSP16, 24)
          CFI Block cfiCond48 Using cfiCommon0
          CFI (cfiCond48) Function gapBondMgrAddBond
          CFI (cfiCond48) Conditional ??CrossCallReturnLabel_42
          CFI (cfiCond48) R6 load(1, XDATA, add(CFA_XSP16, literal(-12)))
          CFI (cfiCond48) VB load(1, XDATA, add(CFA_XSP16, literal(-11)))
          CFI (cfiCond48) V0 load(1, XDATA, add(CFA_XSP16, literal(-10)))
          CFI (cfiCond48) V1 load(1, XDATA, add(CFA_XSP16, literal(-9)))
          CFI (cfiCond48) V2 load(1, XDATA, add(CFA_XSP16, literal(-8)))
          CFI (cfiCond48) V3 load(1, XDATA, add(CFA_XSP16, literal(-7)))
          CFI (cfiCond48) R7 load(1, XDATA, add(CFA_XSP16, literal(-6)))
          CFI (cfiCond48) ?RET_LOW load(1, XDATA, add(CFA_XSP16, literal(-5)))
          CFI (cfiCond48) ?RET_HIGH load(1, XDATA, add(CFA_XSP16, literal(-4)))
          CFI (cfiCond48) ?BRET_EXT load(1, XDATA, add(CFA_XSP16, literal(-3)))
          CFI (cfiCond48) DPL0 load(1, XDATA, add(CFA_XSP16, literal(-2)))
          CFI (cfiCond48) DPH0 load(1, XDATA, add(CFA_XSP16, literal(-1)))
          CFI (cfiCond48) CFA_SP SP+-2
          CFI (cfiCond48) CFA_XSP16 add(XSP16, 24)
          CFI Block cfiCond49 Using cfiCommon0
          CFI (cfiCond49) Function gapBondMgrAddBond
          CFI (cfiCond49) Conditional ??CrossCallReturnLabel_43
          CFI (cfiCond49) R6 load(1, XDATA, add(CFA_XSP16, literal(-12)))
          CFI (cfiCond49) VB load(1, XDATA, add(CFA_XSP16, literal(-11)))
          CFI (cfiCond49) V0 load(1, XDATA, add(CFA_XSP16, literal(-10)))
          CFI (cfiCond49) V1 load(1, XDATA, add(CFA_XSP16, literal(-9)))
          CFI (cfiCond49) V2 load(1, XDATA, add(CFA_XSP16, literal(-8)))
          CFI (cfiCond49) V3 load(1, XDATA, add(CFA_XSP16, literal(-7)))
          CFI (cfiCond49) R7 load(1, XDATA, add(CFA_XSP16, literal(-6)))
          CFI (cfiCond49) ?RET_LOW load(1, XDATA, add(CFA_XSP16, literal(-5)))
          CFI (cfiCond49) ?RET_HIGH load(1, XDATA, add(CFA_XSP16, literal(-4)))
          CFI (cfiCond49) ?BRET_EXT load(1, XDATA, add(CFA_XSP16, literal(-3)))
          CFI (cfiCond49) DPL0 load(1, XDATA, add(CFA_XSP16, literal(-2)))
          CFI (cfiCond49) DPH0 load(1, XDATA, add(CFA_XSP16, literal(-1)))
          CFI (cfiCond49) CFA_SP SP+-2
          CFI (cfiCond49) CFA_XSP16 add(XSP16, 24)
          CFI Block cfiCond50 Using cfiCommon0
          CFI (cfiCond50) Function gapBondMgrAddBond
          CFI (cfiCond50) Conditional ??CrossCallReturnLabel_44
          CFI (cfiCond50) R6 load(1, XDATA, add(CFA_XSP16, literal(-12)))
          CFI (cfiCond50) VB load(1, XDATA, add(CFA_XSP16, literal(-11)))
          CFI (cfiCond50) V0 load(1, XDATA, add(CFA_XSP16, literal(-10)))
          CFI (cfiCond50) V1 load(1, XDATA, add(CFA_XSP16, literal(-9)))
          CFI (cfiCond50) V2 load(1, XDATA, add(CFA_XSP16, literal(-8)))
          CFI (cfiCond50) V3 load(1, XDATA, add(CFA_XSP16, literal(-7)))
          CFI (cfiCond50) R7 load(1, XDATA, add(CFA_XSP16, literal(-6)))
          CFI (cfiCond50) ?RET_LOW load(1, XDATA, add(CFA_XSP16, literal(-5)))
          CFI (cfiCond50) ?RET_HIGH load(1, XDATA, add(CFA_XSP16, literal(-4)))
          CFI (cfiCond50) ?BRET_EXT load(1, XDATA, add(CFA_XSP16, literal(-3)))
          CFI (cfiCond50) DPL0 load(1, XDATA, add(CFA_XSP16, literal(-2)))
          CFI (cfiCond50) DPH0 load(1, XDATA, add(CFA_XSP16, literal(-1)))
          CFI (cfiCond50) CFA_SP SP+-2
          CFI (cfiCond50) CFA_XSP16 add(XSP16, 24)
          CFI Block cfiPicker51 Using cfiCommon1
          CFI (cfiPicker51) NoFunction
          CFI (cfiPicker51) Picker
        MOV     DPL,A
        CLR     A
        ADDC    A,R1
        MOV     DPH,A
          CFI EndBlock cfiCond47
          CFI EndBlock cfiCond48
          CFI EndBlock cfiCond49
          CFI EndBlock cfiCond50
          CFI EndBlock cfiPicker51
        REQUIRE ??Subroutine25_0
        ; // Fall through to label ??Subroutine25_0

        RSEG BANKED_CODE:CODE:NOROOT(0)
??Subroutine25_0:
          CFI Block cfiCond52 Using cfiCommon0
          CFI Function GAPBondMgr_LinkEst
          CFI Conditional ??CrossCallReturnLabel_40
          CFI R6 load(1, XDATA, add(CFA_XSP16, literal(-15)))
          CFI VB load(1, XDATA, add(CFA_XSP16, literal(-14)))
          CFI V0 load(1, XDATA, add(CFA_XSP16, literal(-13)))
          CFI V1 load(1, XDATA, add(CFA_XSP16, literal(-12)))
          CFI V2 load(1, XDATA, add(CFA_XSP16, literal(-11)))
          CFI V3 load(1, XDATA, add(CFA_XSP16, literal(-10)))
          CFI V4 load(1, XDATA, add(CFA_XSP16, literal(-9)))
          CFI V5 load(1, XDATA, add(CFA_XSP16, literal(-8)))
          CFI V6 load(1, XDATA, add(CFA_XSP16, literal(-7)))
          CFI R7 load(1, XDATA, add(CFA_XSP16, literal(-6)))
          CFI ?RET_LOW load(1, XDATA, add(CFA_XSP16, literal(-5)))
          CFI ?RET_HIGH load(1, XDATA, add(CFA_XSP16, literal(-4)))
          CFI ?BRET_EXT load(1, XDATA, add(CFA_XSP16, literal(-3)))
          CFI DPL0 load(1, XDATA, add(CFA_XSP16, literal(-2)))
          CFI DPH0 load(1, XDATA, add(CFA_XSP16, literal(-1)))
          CFI CFA_SP SP+-2
          CFI CFA_XSP16 add(XSP16, 53)
          CFI Block cfiCond53 Using cfiCommon0
          CFI (cfiCond53) Function gapBondMgrAddBond
          CFI (cfiCond53) Conditional ??CrossCallReturnLabel_41
          CFI (cfiCond53) R6 load(1, XDATA, add(CFA_XSP16, literal(-12)))
          CFI (cfiCond53) VB load(1, XDATA, add(CFA_XSP16, literal(-11)))
          CFI (cfiCond53) V0 load(1, XDATA, add(CFA_XSP16, literal(-10)))
          CFI (cfiCond53) V1 load(1, XDATA, add(CFA_XSP16, literal(-9)))
          CFI (cfiCond53) V2 load(1, XDATA, add(CFA_XSP16, literal(-8)))
          CFI (cfiCond53) V3 load(1, XDATA, add(CFA_XSP16, literal(-7)))
          CFI (cfiCond53) R7 load(1, XDATA, add(CFA_XSP16, literal(-6)))
          CFI (cfiCond53) ?RET_LOW load(1, XDATA, add(CFA_XSP16, literal(-5)))
          CFI (cfiCond53) ?RET_HIGH load(1, XDATA, add(CFA_XSP16, literal(-4)))
          CFI (cfiCond53) ?BRET_EXT load(1, XDATA, add(CFA_XSP16, literal(-3)))
          CFI (cfiCond53) DPL0 load(1, XDATA, add(CFA_XSP16, literal(-2)))
          CFI (cfiCond53) DPH0 load(1, XDATA, add(CFA_XSP16, literal(-1)))
          CFI (cfiCond53) CFA_SP SP+-2
          CFI (cfiCond53) CFA_XSP16 add(XSP16, 24)
          CFI Block cfiCond54 Using cfiCommon0
          CFI (cfiCond54) Function gapBondMgrAddBond
          CFI (cfiCond54) Conditional ??CrossCallReturnLabel_42
          CFI (cfiCond54) R6 load(1, XDATA, add(CFA_XSP16, literal(-12)))
          CFI (cfiCond54) VB load(1, XDATA, add(CFA_XSP16, literal(-11)))
          CFI (cfiCond54) V0 load(1, XDATA, add(CFA_XSP16, literal(-10)))
          CFI (cfiCond54) V1 load(1, XDATA, add(CFA_XSP16, literal(-9)))
          CFI (cfiCond54) V2 load(1, XDATA, add(CFA_XSP16, literal(-8)))
          CFI (cfiCond54) V3 load(1, XDATA, add(CFA_XSP16, literal(-7)))
          CFI (cfiCond54) R7 load(1, XDATA, add(CFA_XSP16, literal(-6)))
          CFI (cfiCond54) ?RET_LOW load(1, XDATA, add(CFA_XSP16, literal(-5)))
          CFI (cfiCond54) ?RET_HIGH load(1, XDATA, add(CFA_XSP16, literal(-4)))
          CFI (cfiCond54) ?BRET_EXT load(1, XDATA, add(CFA_XSP16, literal(-3)))
          CFI (cfiCond54) DPL0 load(1, XDATA, add(CFA_XSP16, literal(-2)))
          CFI (cfiCond54) DPH0 load(1, XDATA, add(CFA_XSP16, literal(-1)))
          CFI (cfiCond54) CFA_SP SP+-2
          CFI (cfiCond54) CFA_XSP16 add(XSP16, 24)
          CFI Block cfiCond55 Using cfiCommon0
          CFI (cfiCond55) Function gapBondMgrAddBond
          CFI (cfiCond55) Conditional ??CrossCallReturnLabel_43
          CFI (cfiCond55) R6 load(1, XDATA, add(CFA_XSP16, literal(-12)))
          CFI (cfiCond55) VB load(1, XDATA, add(CFA_XSP16, literal(-11)))
          CFI (cfiCond55) V0 load(1, XDATA, add(CFA_XSP16, literal(-10)))
          CFI (cfiCond55) V1 load(1, XDATA, add(CFA_XSP16, literal(-9)))
          CFI (cfiCond55) V2 load(1, XDATA, add(CFA_XSP16, literal(-8)))
          CFI (cfiCond55) V3 load(1, XDATA, add(CFA_XSP16, literal(-7)))
          CFI (cfiCond55) R7 load(1, XDATA, add(CFA_XSP16, literal(-6)))
          CFI (cfiCond55) ?RET_LOW load(1, XDATA, add(CFA_XSP16, literal(-5)))
          CFI (cfiCond55) ?RET_HIGH load(1, XDATA, add(CFA_XSP16, literal(-4)))
          CFI (cfiCond55) ?BRET_EXT load(1, XDATA, add(CFA_XSP16, literal(-3)))
          CFI (cfiCond55) DPL0 load(1, XDATA, add(CFA_XSP16, literal(-2)))
          CFI (cfiCond55) DPH0 load(1, XDATA, add(CFA_XSP16, literal(-1)))
          CFI (cfiCond55) CFA_SP SP+-2
          CFI (cfiCond55) CFA_XSP16 add(XSP16, 24)
          CFI Block cfiCond56 Using cfiCommon0
          CFI (cfiCond56) Function gapBondMgrAddBond
          CFI (cfiCond56) Conditional ??CrossCallReturnLabel_44
          CFI (cfiCond56) R6 load(1, XDATA, add(CFA_XSP16, literal(-12)))
          CFI (cfiCond56) VB load(1, XDATA, add(CFA_XSP16, literal(-11)))
          CFI (cfiCond56) V0 load(1, XDATA, add(CFA_XSP16, literal(-10)))
          CFI (cfiCond56) V1 load(1, XDATA, add(CFA_XSP16, literal(-9)))
          CFI (cfiCond56) V2 load(1, XDATA, add(CFA_XSP16, literal(-8)))
          CFI (cfiCond56) V3 load(1, XDATA, add(CFA_XSP16, literal(-7)))
          CFI (cfiCond56) R7 load(1, XDATA, add(CFA_XSP16, literal(-6)))
          CFI (cfiCond56) ?RET_LOW load(1, XDATA, add(CFA_XSP16, literal(-5)))
          CFI (cfiCond56) ?RET_HIGH load(1, XDATA, add(CFA_XSP16, literal(-4)))
          CFI (cfiCond56) ?BRET_EXT load(1, XDATA, add(CFA_XSP16, literal(-3)))
          CFI (cfiCond56) DPL0 load(1, XDATA, add(CFA_XSP16, literal(-2)))
          CFI (cfiCond56) DPH0 load(1, XDATA, add(CFA_XSP16, literal(-1)))
          CFI (cfiCond56) CFA_SP SP+-2
          CFI (cfiCond56) CFA_XSP16 add(XSP16, 24)
          CFI Block cfiPicker57 Using cfiCommon1
          CFI (cfiPicker57) NoFunction
          CFI (cfiPicker57) Picker
        LCALL   ?Subroutine24 & 0xFFFF
??CrossCallReturnLabel_49:
        MOV     A,R4
        ORL     A,R5
        RET
          CFI EndBlock cfiCond52
          CFI EndBlock cfiCond53
          CFI EndBlock cfiCond54
          CFI EndBlock cfiCond55
          CFI EndBlock cfiCond56
          CFI EndBlock cfiPicker57

        RSEG BANKED_CODE:CODE:NOROOT(0)
?Subroutine24:
          CFI Block cfiCond58 Using cfiCommon0
          CFI Function GAPBondMgr_SetParameter
          CFI Conditional ??CrossCallReturnLabel_45
          CFI R6 load(1, XDATA, add(CFA_XSP16, literal(-16)))
          CFI VB load(1, XDATA, add(CFA_XSP16, literal(-15)))
          CFI V0 load(1, XDATA, add(CFA_XSP16, literal(-14)))
          CFI V1 load(1, XDATA, add(CFA_XSP16, literal(-13)))
          CFI V2 load(1, XDATA, add(CFA_XSP16, literal(-12)))
          CFI V3 load(1, XDATA, add(CFA_XSP16, literal(-11)))
          CFI V4 load(1, XDATA, add(CFA_XSP16, literal(-10)))
          CFI V5 load(1, XDATA, add(CFA_XSP16, literal(-9)))
          CFI V6 load(1, XDATA, add(CFA_XSP16, literal(-8)))
          CFI V7 load(1, XDATA, add(CFA_XSP16, literal(-7)))
          CFI R7 load(1, XDATA, add(CFA_XSP16, literal(-6)))
          CFI ?RET_LOW load(1, XDATA, add(CFA_XSP16, literal(-5)))
          CFI ?RET_HIGH load(1, XDATA, add(CFA_XSP16, literal(-4)))
          CFI ?BRET_EXT load(1, XDATA, add(CFA_XSP16, literal(-3)))
          CFI DPL0 load(1, XDATA, add(CFA_XSP16, literal(-2)))
          CFI DPH0 load(1, XDATA, add(CFA_XSP16, literal(-1)))
          CFI CFA_SP SP+-2
          CFI CFA_XSP16 add(XSP16, 22)
          CFI Block cfiCond59 Using cfiCommon0
          CFI (cfiCond59) Function GAPBondMgr_ProcessGAPMsg
          CFI (cfiCond59) Conditional ??CrossCallReturnLabel_46
          CFI (cfiCond59) R6 load(1, XDATA, add(CFA_XSP16, literal(-16)))
          CFI (cfiCond59) VB load(1, XDATA, add(CFA_XSP16, literal(-15)))
          CFI (cfiCond59) V0 load(1, XDATA, add(CFA_XSP16, literal(-14)))
          CFI (cfiCond59) V1 load(1, XDATA, add(CFA_XSP16, literal(-13)))
          CFI (cfiCond59) V2 load(1, XDATA, add(CFA_XSP16, literal(-12)))
          CFI (cfiCond59) V3 load(1, XDATA, add(CFA_XSP16, literal(-11)))
          CFI (cfiCond59) V4 load(1, XDATA, add(CFA_XSP16, literal(-10)))
          CFI (cfiCond59) V5 load(1, XDATA, add(CFA_XSP16, literal(-9)))
          CFI (cfiCond59) V6 load(1, XDATA, add(CFA_XSP16, literal(-8)))
          CFI (cfiCond59) V7 load(1, XDATA, add(CFA_XSP16, literal(-7)))
          CFI (cfiCond59) R7 load(1, XDATA, add(CFA_XSP16, literal(-6)))
          CFI (cfiCond59) ?RET_LOW load(1, XDATA, add(CFA_XSP16, literal(-5)))
          CFI (cfiCond59) ?RET_HIGH load(1, XDATA, add(CFA_XSP16, literal(-4)))
          CFI (cfiCond59) ?BRET_EXT load(1, XDATA, add(CFA_XSP16, literal(-3)))
          CFI (cfiCond59) DPL0 load(1, XDATA, add(CFA_XSP16, literal(-2)))
          CFI (cfiCond59) DPH0 load(1, XDATA, add(CFA_XSP16, literal(-1)))
          CFI (cfiCond59) CFA_SP SP+-2
          CFI (cfiCond59) CFA_XSP16 add(XSP16, 37)
          CFI Block cfiCond60 Using cfiCommon0
          CFI (cfiCond60) Function gapBondMgrAddBond
          CFI (cfiCond60) Conditional ??CrossCallReturnLabel_49, ??CrossCallReturnLabel_41
          CFI (cfiCond60) R6 load(1, XDATA, add(CFA_XSP16, literal(-12)))
          CFI (cfiCond60) VB load(1, XDATA, add(CFA_XSP16, literal(-11)))
          CFI (cfiCond60) V0 load(1, XDATA, add(CFA_XSP16, literal(-10)))
          CFI (cfiCond60) V1 load(1, XDATA, add(CFA_XSP16, literal(-9)))
          CFI (cfiCond60) V2 load(1, XDATA, add(CFA_XSP16, literal(-8)))
          CFI (cfiCond60) V3 load(1, XDATA, add(CFA_XSP16, literal(-7)))
          CFI (cfiCond60) R7 load(1, XDATA, add(CFA_XSP16, literal(-6)))
          CFI (cfiCond60) ?RET_LOW load(1, XDATA, add(CFA_XSP16, literal(-5)))
          CFI (cfiCond60) ?RET_HIGH load(1, XDATA, add(CFA_XSP16, literal(-4)))
          CFI (cfiCond60) ?BRET_EXT load(1, XDATA, add(CFA_XSP16, literal(-3)))
          CFI (cfiCond60) DPL0 load(1, XDATA, add(CFA_XSP16, literal(-2)))
          CFI (cfiCond60) DPH0 load(1, XDATA, add(CFA_XSP16, literal(-1)))
          CFI (cfiCond60) CFA_SP SP+-4
          CFI (cfiCond60) CFA_XSP16 add(XSP16, 24)
          CFI Block cfiCond61 Using cfiCommon0
          CFI (cfiCond61) Function gapBondMgrAddBond
          CFI (cfiCond61) Conditional ??CrossCallReturnLabel_49, ??CrossCallReturnLabel_42
          CFI (cfiCond61) R6 load(1, XDATA, add(CFA_XSP16, literal(-12)))
          CFI (cfiCond61) VB load(1, XDATA, add(CFA_XSP16, literal(-11)))
          CFI (cfiCond61) V0 load(1, XDATA, add(CFA_XSP16, literal(-10)))
          CFI (cfiCond61) V1 load(1, XDATA, add(CFA_XSP16, literal(-9)))
          CFI (cfiCond61) V2 load(1, XDATA, add(CFA_XSP16, literal(-8)))
          CFI (cfiCond61) V3 load(1, XDATA, add(CFA_XSP16, literal(-7)))
          CFI (cfiCond61) R7 load(1, XDATA, add(CFA_XSP16, literal(-6)))
          CFI (cfiCond61) ?RET_LOW load(1, XDATA, add(CFA_XSP16, literal(-5)))
          CFI (cfiCond61) ?RET_HIGH load(1, XDATA, add(CFA_XSP16, literal(-4)))
          CFI (cfiCond61) ?BRET_EXT load(1, XDATA, add(CFA_XSP16, literal(-3)))
          CFI (cfiCond61) DPL0 load(1, XDATA, add(CFA_XSP16, literal(-2)))
          CFI (cfiCond61) DPH0 load(1, XDATA, add(CFA_XSP16, literal(-1)))
          CFI (cfiCond61) CFA_SP SP+-4
          CFI (cfiCond61) CFA_XSP16 add(XSP16, 24)
          CFI Block cfiCond62 Using cfiCommon0
          CFI (cfiCond62) Function gapBondMgrAddBond
          CFI (cfiCond62) Conditional ??CrossCallReturnLabel_49, ??CrossCallReturnLabel_43
          CFI (cfiCond62) R6 load(1, XDATA, add(CFA_XSP16, literal(-12)))
          CFI (cfiCond62) VB load(1, XDATA, add(CFA_XSP16, literal(-11)))
          CFI (cfiCond62) V0 load(1, XDATA, add(CFA_XSP16, literal(-10)))
          CFI (cfiCond62) V1 load(1, XDATA, add(CFA_XSP16, literal(-9)))
          CFI (cfiCond62) V2 load(1, XDATA, add(CFA_XSP16, literal(-8)))
          CFI (cfiCond62) V3 load(1, XDATA, add(CFA_XSP16, literal(-7)))
          CFI (cfiCond62) R7 load(1, XDATA, add(CFA_XSP16, literal(-6)))
          CFI (cfiCond62) ?RET_LOW load(1, XDATA, add(CFA_XSP16, literal(-5)))
          CFI (cfiCond62) ?RET_HIGH load(1, XDATA, add(CFA_XSP16, literal(-4)))
          CFI (cfiCond62) ?BRET_EXT load(1, XDATA, add(CFA_XSP16, literal(-3)))
          CFI (cfiCond62) DPL0 load(1, XDATA, add(CFA_XSP16, literal(-2)))
          CFI (cfiCond62) DPH0 load(1, XDATA, add(CFA_XSP16, literal(-1)))
          CFI (cfiCond62) CFA_SP SP+-4
          CFI (cfiCond62) CFA_XSP16 add(XSP16, 24)
          CFI Block cfiCond63 Using cfiCommon0
          CFI (cfiCond63) Function gapBondMgrAddBond
          CFI (cfiCond63) Conditional ??CrossCallReturnLabel_49, ??CrossCallReturnLabel_44
          CFI (cfiCond63) R6 load(1, XDATA, add(CFA_XSP16, literal(-12)))
          CFI (cfiCond63) VB load(1, XDATA, add(CFA_XSP16, literal(-11)))
          CFI (cfiCond63) V0 load(1, XDATA, add(CFA_XSP16, literal(-10)))
          CFI (cfiCond63) V1 load(1, XDATA, add(CFA_XSP16, literal(-9)))
          CFI (cfiCond63) V2 load(1, XDATA, add(CFA_XSP16, literal(-8)))
          CFI (cfiCond63) V3 load(1, XDATA, add(CFA_XSP16, literal(-7)))
          CFI (cfiCond63) R7 load(1, XDATA, add(CFA_XSP16, literal(-6)))
          CFI (cfiCond63) ?RET_LOW load(1, XDATA, add(CFA_XSP16, literal(-5)))
          CFI (cfiCond63) ?RET_HIGH load(1, XDATA, add(CFA_XSP16, literal(-4)))
          CFI (cfiCond63) ?BRET_EXT load(1, XDATA, add(CFA_XSP16, literal(-3)))
          CFI (cfiCond63) DPL0 load(1, XDATA, add(CFA_XSP16, literal(-2)))
          CFI (cfiCond63) DPH0 load(1, XDATA, add(CFA_XSP16, literal(-1)))
          CFI (cfiCond63) CFA_SP SP+-4
          CFI (cfiCond63) CFA_XSP16 add(XSP16, 24)
          CFI Block cfiCond64 Using cfiCommon0
          CFI (cfiCond64) Function GAPBondMgr_LinkEst
          CFI (cfiCond64) Conditional ??CrossCallReturnLabel_49, ??CrossCallReturnLabel_40
          CFI (cfiCond64) R6 load(1, XDATA, add(CFA_XSP16, literal(-15)))
          CFI (cfiCond64) VB load(1, XDATA, add(CFA_XSP16, literal(-14)))
          CFI (cfiCond64) V0 load(1, XDATA, add(CFA_XSP16, literal(-13)))
          CFI (cfiCond64) V1 load(1, XDATA, add(CFA_XSP16, literal(-12)))
          CFI (cfiCond64) V2 load(1, XDATA, add(CFA_XSP16, literal(-11)))
          CFI (cfiCond64) V3 load(1, XDATA, add(CFA_XSP16, literal(-10)))
          CFI (cfiCond64) V4 load(1, XDATA, add(CFA_XSP16, literal(-9)))
          CFI (cfiCond64) V5 load(1, XDATA, add(CFA_XSP16, literal(-8)))
          CFI (cfiCond64) V6 load(1, XDATA, add(CFA_XSP16, literal(-7)))
          CFI (cfiCond64) R7 load(1, XDATA, add(CFA_XSP16, literal(-6)))
          CFI (cfiCond64) ?RET_LOW load(1, XDATA, add(CFA_XSP16, literal(-5)))
          CFI (cfiCond64) ?RET_HIGH load(1, XDATA, add(CFA_XSP16, literal(-4)))
          CFI (cfiCond64) ?BRET_EXT load(1, XDATA, add(CFA_XSP16, literal(-3)))
          CFI (cfiCond64) DPL0 load(1, XDATA, add(CFA_XSP16, literal(-2)))
          CFI (cfiCond64) DPH0 load(1, XDATA, add(CFA_XSP16, literal(-1)))
          CFI (cfiCond64) CFA_SP SP+-4
          CFI (cfiCond64) CFA_XSP16 add(XSP16, 53)
          CFI Block cfiCond65 Using cfiCommon0
          CFI (cfiCond65) Function GAPBondMgr_ProcessEvent
          CFI (cfiCond65) Conditional ??CrossCallReturnLabel_47
          CFI (cfiCond65) R6 load(1, XDATA, add(CFA_XSP16, literal(-12)))
          CFI (cfiCond65) VB load(1, XDATA, add(CFA_XSP16, literal(-11)))
          CFI (cfiCond65) V0 load(1, XDATA, add(CFA_XSP16, literal(-10)))
          CFI (cfiCond65) V1 load(1, XDATA, add(CFA_XSP16, literal(-9)))
          CFI (cfiCond65) V2 load(1, XDATA, add(CFA_XSP16, literal(-8)))
          CFI (cfiCond65) V3 load(1, XDATA, add(CFA_XSP16, literal(-7)))
          CFI (cfiCond65) R7 load(1, XDATA, add(CFA_XSP16, literal(-6)))
          CFI (cfiCond65) ?RET_LOW load(1, XDATA, add(CFA_XSP16, literal(-5)))
          CFI (cfiCond65) ?RET_HIGH load(1, XDATA, add(CFA_XSP16, literal(-4)))
          CFI (cfiCond65) ?BRET_EXT load(1, XDATA, add(CFA_XSP16, literal(-3)))
          CFI (cfiCond65) DPL0 load(1, XDATA, add(CFA_XSP16, literal(-2)))
          CFI (cfiCond65) DPH0 load(1, XDATA, add(CFA_XSP16, literal(-1)))
          CFI (cfiCond65) CFA_SP SP+-2
          CFI (cfiCond65) CFA_XSP16 add(XSP16, 14)
          CFI Block cfiCond66 Using cfiCommon0
          CFI (cfiCond66) Function gapBondMgr_SyncCharCfg
          CFI (cfiCond66) Conditional ??CrossCallReturnLabel_48, ??CrossCallReturnLabel_20
          CFI (cfiCond66) R6 load(1, XDATA, add(CFA_XSP16, literal(-10)))
          CFI (cfiCond66) VB load(1, XDATA, add(CFA_XSP16, literal(-9)))
          CFI (cfiCond66) V0 load(1, XDATA, add(CFA_XSP16, literal(-8)))
          CFI (cfiCond66) V1 load(1, XDATA, add(CFA_XSP16, literal(-7)))
          CFI (cfiCond66) R7 load(1, XDATA, add(CFA_XSP16, literal(-6)))
          CFI (cfiCond66) ?RET_LOW load(1, XDATA, add(CFA_XSP16, literal(-5)))
          CFI (cfiCond66) ?RET_HIGH load(1, XDATA, add(CFA_XSP16, literal(-4)))
          CFI (cfiCond66) ?BRET_EXT load(1, XDATA, add(CFA_XSP16, literal(-3)))
          CFI (cfiCond66) DPL0 load(1, XDATA, add(CFA_XSP16, literal(-2)))
          CFI (cfiCond66) DPH0 load(1, XDATA, add(CFA_XSP16, literal(-1)))
          CFI (cfiCond66) CFA_SP SP+-4
          CFI (cfiCond66) CFA_XSP16 add(XSP16, 21)
          CFI Block cfiCond67 Using cfiCommon0
          CFI (cfiCond67) Function gapBondMgr_SyncCharCfg
          CFI (cfiCond67) Conditional ??CrossCallReturnLabel_48, ??CrossCallReturnLabel_21
          CFI (cfiCond67) R6 load(1, XDATA, add(CFA_XSP16, literal(-10)))
          CFI (cfiCond67) VB load(1, XDATA, add(CFA_XSP16, literal(-9)))
          CFI (cfiCond67) V0 load(1, XDATA, add(CFA_XSP16, literal(-8)))
          CFI (cfiCond67) V1 load(1, XDATA, add(CFA_XSP16, literal(-7)))
          CFI (cfiCond67) R7 load(1, XDATA, add(CFA_XSP16, literal(-6)))
          CFI (cfiCond67) ?RET_LOW load(1, XDATA, add(CFA_XSP16, literal(-5)))
          CFI (cfiCond67) ?RET_HIGH load(1, XDATA, add(CFA_XSP16, literal(-4)))
          CFI (cfiCond67) ?BRET_EXT load(1, XDATA, add(CFA_XSP16, literal(-3)))
          CFI (cfiCond67) DPL0 load(1, XDATA, add(CFA_XSP16, literal(-2)))
          CFI (cfiCond67) DPH0 load(1, XDATA, add(CFA_XSP16, literal(-1)))
          CFI (cfiCond67) CFA_SP SP+-4
          CFI (cfiCond67) CFA_XSP16 add(XSP16, 15)
          CFI Block cfiPicker68 Using cfiCommon1
          CFI (cfiPicker68) NoFunction
          CFI (cfiPicker68) Picker
        MOVX    A,@DPTR
        MOV     R4,A
        INC     DPTR
        MOVX    A,@DPTR
        MOV     R5,A
        RET
          CFI EndBlock cfiCond58
          CFI EndBlock cfiCond59
          CFI EndBlock cfiCond60
          CFI EndBlock cfiCond61
          CFI EndBlock cfiCond62
          CFI EndBlock cfiCond63
          CFI EndBlock cfiCond64
          CFI EndBlock cfiCond65
          CFI EndBlock cfiCond66
          CFI EndBlock cfiCond67
          CFI EndBlock cfiPicker68
// 1431 
// 1432 /*********************************************************************
// 1433  * @fn      gapBondMgrGetStateFlags
// 1434  *
// 1435  * @brief   Gets the state flags field of a bond record in NV
// 1436  *
// 1437  * @param   idx
// 1438  *
// 1439  * @return  stateFlags field
// 1440  */

        RSEG BANKED_CODE:CODE:NOROOT(0)
// 1441 static uint8 gapBondMgrGetStateFlags( uint8 idx )
gapBondMgrGetStateFlags:
          CFI Block cfiBlock69 Using cfiCommon0
          CFI Function gapBondMgrGetStateFlags
        CODE
// 1442 {
        FUNCALL gapBondMgrGetStateFlags, osal_snv_read
        LOCFRAME ISTACK, 0, STACK
        LOCFRAME PSTACK, 0, STACK
        LOCFRAME XSTACK, 23, STACK
        LOCFRAME IOVERLAY, 0, STATIC
        LOCFRAME DOVERLAY, 0, STATIC
        ARGFRAME ISTACK, 0, STACK
        ARGFRAME PSTACK, 0, STACK
        ARGFRAME XSTACK, 23, STACK
        ARGFRAME IOVERLAY, 0, STATIC
        ARGFRAME DOVERLAY, 0, STATIC
        MOV     A,#-0x9
        LCALL   ?BANKED_ENTER_XDATA
          CFI DPH0 load(1, XDATA, add(CFA_XSP16, literal(-1)))
          CFI DPL0 load(1, XDATA, add(CFA_XSP16, literal(-2)))
          CFI ?BRET_EXT load(1, XDATA, add(CFA_XSP16, literal(-3)))
          CFI ?RET_HIGH load(1, XDATA, add(CFA_XSP16, literal(-4)))
          CFI ?RET_LOW load(1, XDATA, add(CFA_XSP16, literal(-5)))
          CFI R7 load(1, XDATA, add(CFA_XSP16, literal(-6)))
          CFI V0 load(1, XDATA, add(CFA_XSP16, literal(-7)))
          CFI VB load(1, XDATA, add(CFA_XSP16, literal(-8)))
          CFI R6 load(1, XDATA, add(CFA_XSP16, literal(-9)))
          CFI CFA_SP SP+0
          CFI CFA_XSP16 add(XSP16, 9)
        ; Saved register size: 9
        ; Auto size: 14
        MOV     A,#-0xe
        LCALL   ?ALLOC_XSTACK8
          CFI CFA_XSP16 add(XSP16, 23)
        MOV     A,R1
// 1443   gapBondRec_t bondRec;
// 1444 
// 1445   if ( osal_snv_read( mainRecordNvID(idx), sizeof ( gapBondRec_t ), &bondRec ) == SUCCESS )
        ; Setup parameters for call to function osal_snv_read
        MOV     R4,?XSP + 0
        MOV     R5,?XSP + 1
        MOV     R2,#0xe
        MOV     B,#0x6
        MUL     AB
        ADD     A,#0x20
        MOV     R1,A
        LCALL   ??osal_snv_read?relay; Banked call to: osal_snv_read
        MOV     A,R1
        JNZ     ??gapBondMgrGetStateFlags_0
// 1446   {
// 1447     return ( bondRec.stateFlags );
        MOV     A,#0xc
        LCALL   ?XSTACK_DISP0_8
        MOVX    A,@DPTR
        MOV     R1,A
        SJMP    ??gapBondMgrGetStateFlags_1
// 1448   }
// 1449 
// 1450   return ( 0 );
??gapBondMgrGetStateFlags_0:
        MOV     R1,#0x0
??gapBondMgrGetStateFlags_1:
        MOV     A,#0xe
        LCALL   ?DEALLOC_XSTACK8
          CFI CFA_XSP16 add(XSP16, 9)
        LJMP    ?Subroutine5 & 0xFFFF
          CFI EndBlock cfiBlock69
// 1451 }
// 1452 
// 1453 /*********************************************************************
// 1454  * @fn      gapBondMgrGetPublicAddr
// 1455  *
// 1456  * @brief   Copy the public Address from a bonding record
// 1457  *
// 1458  * @param   idx - Bond record index
// 1459  * @param   pAddr - a place to put the public address from NV
// 1460  *
// 1461  * @return  SUCCESS if successful.
// 1462  *          Otherwise failure.
// 1463  */

        RSEG BANKED_CODE:CODE:NOROOT(0)
// 1464 static bStatus_t gapBondMgrGetPublicAddr( uint8 idx, uint8 *pAddr )
gapBondMgrGetPublicAddr:
          CFI Block cfiBlock70 Using cfiCommon0
          CFI Function gapBondMgrGetPublicAddr
        CODE
// 1465 {
        FUNCALL gapBondMgrGetPublicAddr, osal_snv_read
        LOCFRAME ISTACK, 0, STACK
        LOCFRAME PSTACK, 0, STACK
        LOCFRAME XSTACK, 26, STACK
        LOCFRAME IOVERLAY, 0, STATIC
        LOCFRAME DOVERLAY, 0, STATIC
        ARGFRAME ISTACK, 0, STACK
        ARGFRAME PSTACK, 0, STACK
        ARGFRAME XSTACK, 26, STACK
        ARGFRAME IOVERLAY, 0, STATIC
        ARGFRAME DOVERLAY, 0, STATIC
        FUNCALL gapBondMgrGetPublicAddr, osal_memcpy
        LOCFRAME ISTACK, 0, STACK
        LOCFRAME PSTACK, 0, STACK
        LOCFRAME XSTACK, 28, STACK
        LOCFRAME IOVERLAY, 0, STATIC
        LOCFRAME DOVERLAY, 0, STATIC
        ARGFRAME ISTACK, 0, STACK
        ARGFRAME PSTACK, 0, STACK
        ARGFRAME XSTACK, 28, STACK
        ARGFRAME IOVERLAY, 0, STATIC
        ARGFRAME DOVERLAY, 0, STATIC
        REQUIRE ?V0
        REQUIRE ?V1
        REQUIRE ?V2
        REQUIRE ?V3
        MOV     A,#-0xc
        LCALL   ?BANKED_ENTER_XDATA
          CFI DPH0 load(1, XDATA, add(CFA_XSP16, literal(-1)))
          CFI DPL0 load(1, XDATA, add(CFA_XSP16, literal(-2)))
          CFI ?BRET_EXT load(1, XDATA, add(CFA_XSP16, literal(-3)))
          CFI ?RET_HIGH load(1, XDATA, add(CFA_XSP16, literal(-4)))
          CFI ?RET_LOW load(1, XDATA, add(CFA_XSP16, literal(-5)))
          CFI R7 load(1, XDATA, add(CFA_XSP16, literal(-6)))
          CFI V3 load(1, XDATA, add(CFA_XSP16, literal(-7)))
          CFI V2 load(1, XDATA, add(CFA_XSP16, literal(-8)))
          CFI V1 load(1, XDATA, add(CFA_XSP16, literal(-9)))
          CFI V0 load(1, XDATA, add(CFA_XSP16, literal(-10)))
          CFI VB load(1, XDATA, add(CFA_XSP16, literal(-11)))
          CFI R6 load(1, XDATA, add(CFA_XSP16, literal(-12)))
          CFI CFA_SP SP+0
          CFI CFA_XSP16 add(XSP16, 12)
        ; Saved register size: 12
        ; Auto size: 14
        MOV     A,#-0xe
        LCALL   ?ALLOC_XSTACK8
          CFI CFA_XSP16 add(XSP16, 26)
        MOV     A,R2
        MOV     R6,A
        MOV     A,R3
        MOV     R7,A
// 1466   bStatus_t stat;         // return value
// 1467   gapBondRec_t bondRec;   // Work space for main bond record
// 1468 
// 1469   // Check parameters
// 1470   if ( (idx >= GAP_BONDINGS_MAX) || (pAddr == NULL) )
        MOV     A,R1
        CLR     C
        SUBB    A,#0xa
        JNC     ??gapBondMgrGetPublicAddr_0
        MOV     A,R6
        ORL     A,R7
        JNZ     ??gapBondMgrGetPublicAddr_1
// 1471   {
// 1472     return ( INVALIDPARAMETER );
??gapBondMgrGetPublicAddr_0:
        MOV     R1,#0x2
        SJMP    ??gapBondMgrGetPublicAddr_2
// 1473   }
// 1474 
// 1475   stat = osal_snv_read( mainRecordNvID(idx), sizeof ( gapBondRec_t ), &bondRec );
??gapBondMgrGetPublicAddr_1:
        ; Setup parameters for call to function osal_snv_read
        MOV     R4,?XSP + 0
        MOV     R5,?XSP + 1
        MOV     R2,#0xe
        MOV     B,#0x6
        MOV     A,R1
        MUL     AB
        ADD     A,#0x20
        MOV     R1,A
        LCALL   ??osal_snv_read?relay; Banked call to: osal_snv_read
        MOV     A,R1
        MOV     ?V0,A
// 1476 
// 1477   if ( stat == SUCCESS )
        JNZ     ??gapBondMgrGetPublicAddr_3
// 1478   {
// 1479     VOID osal_memcpy( pAddr, bondRec.publicAddr, B_ADDR_LEN );
        ; Setup parameters for call to function osal_memcpy
        MOV     ?V2,#0x6
        MOV     ?V3,#0x0
        MOV     R0,#?V2
        LCALL   ?PUSH_XSTACK_I_TWO
          CFI CFA_XSP16 add(XSP16, 28)
        MOV     A,#0x2
        LCALL   ?XSTACK_DISP102_8
        MOV     A,R6
        MOV     R2,A
        MOV     A,R7
        MOV     R3,A
        LCALL   ??osal_memcpy?relay  ; Banked call to: osal_memcpy
        MOV     A,#0x2
        LCALL   ?DEALLOC_XSTACK8
          CFI CFA_XSP16 add(XSP16, 26)
// 1480   }
// 1481 
// 1482   return ( stat );
??gapBondMgrGetPublicAddr_3:
        MOV     R1,?V0
??gapBondMgrGetPublicAddr_2:
        LJMP    ?Subroutine1 & 0xFFFF
          CFI EndBlock cfiBlock70
// 1483 }
// 1484 
// 1485 /*********************************************************************
// 1486  * @fn      gapBondMgrFindReconnectAddr
// 1487  *
// 1488  * @brief   Look through the bonding entries to find a
// 1489  *          reconnection address.
// 1490  *
// 1491  * @param   pReconnectAddr - device address to look for
// 1492  *
// 1493  * @return  index to found bonding (0 - (GAP_BONDINGS_MAX-1),
// 1494  *          GAP_BONDINGS_MAX if no empty entries
// 1495  */
// 1496 static uint8 gapBondMgrFindReconnectAddr( uint8 *pReconnectAddr )
// 1497 {
// 1498   // Item doesn't exist, so create all the items
// 1499   for ( uint8 idx = 0; idx < GAP_BONDINGS_MAX; idx++ )
// 1500   {
// 1501     // compare reconnection address
// 1502     if ( osal_memcmp( bonds[idx].reconnectAddr, pReconnectAddr, B_ADDR_LEN ) )
// 1503     {
// 1504       return ( idx ); // Found it
// 1505     }
// 1506   }
// 1507 
// 1508   return ( GAP_BONDINGS_MAX );
// 1509 }
// 1510 
// 1511 /*********************************************************************
// 1512  * @fn      gapBondMgrFindAddr
// 1513  *
// 1514  * @brief   Look through the bonding entries to find an address.
// 1515  *
// 1516  * @param   pDevAddr - device address to look for
// 1517  *
// 1518  * @return  index to empty bonding (0 - (GAP_BONDINGS_MAX-1),
// 1519  *          GAP_BONDINGS_MAX if no empty entries
// 1520  */

        RSEG BANKED_CODE:CODE:NOROOT(0)
// 1521 static uint8 gapBondMgrFindAddr( uint8 *pDevAddr )
gapBondMgrFindAddr:
          CFI Block cfiBlock71 Using cfiCommon0
          CFI Function gapBondMgrFindAddr
        CODE
// 1522 {
        FUNCALL gapBondMgrFindAddr, osal_memcmp
        LOCFRAME ISTACK, 0, STACK
        LOCFRAME PSTACK, 0, STACK
        LOCFRAME XSTACK, 14, STACK
        LOCFRAME IOVERLAY, 0, STATIC
        LOCFRAME DOVERLAY, 0, STATIC
        ARGFRAME ISTACK, 0, STACK
        ARGFRAME PSTACK, 0, STACK
        ARGFRAME XSTACK, 14, STACK
        ARGFRAME IOVERLAY, 0, STATIC
        ARGFRAME DOVERLAY, 0, STATIC
        REQUIRE ?V0
        REQUIRE ?V2
        REQUIRE ?V3
        MOV     A,#-0xc
        LCALL   ?BANKED_ENTER_XDATA
          CFI DPH0 load(1, XDATA, add(CFA_XSP16, literal(-1)))
          CFI DPL0 load(1, XDATA, add(CFA_XSP16, literal(-2)))
          CFI ?BRET_EXT load(1, XDATA, add(CFA_XSP16, literal(-3)))
          CFI ?RET_HIGH load(1, XDATA, add(CFA_XSP16, literal(-4)))
          CFI ?RET_LOW load(1, XDATA, add(CFA_XSP16, literal(-5)))
          CFI R7 load(1, XDATA, add(CFA_XSP16, literal(-6)))
          CFI V3 load(1, XDATA, add(CFA_XSP16, literal(-7)))
          CFI V2 load(1, XDATA, add(CFA_XSP16, literal(-8)))
          CFI V1 load(1, XDATA, add(CFA_XSP16, literal(-9)))
          CFI V0 load(1, XDATA, add(CFA_XSP16, literal(-10)))
          CFI VB load(1, XDATA, add(CFA_XSP16, literal(-11)))
          CFI R6 load(1, XDATA, add(CFA_XSP16, literal(-12)))
          CFI CFA_SP SP+0
          CFI CFA_XSP16 add(XSP16, 12)
        ; Saved register size: 12
        ; Auto size: 0
        MOV     A,R2
        MOV     R6,A
        MOV     A,R3
        MOV     R7,A
// 1523   // Item doesn't exist, so create all the items
// 1524   for ( uint8 idx = 0; idx < GAP_BONDINGS_MAX; idx++ )
        MOV     ?V0,#0x0
// 1525   {
// 1526     // Read in NV Main Bond Record and compare public address
// 1527     if ( osal_memcmp( bonds[idx].publicAddr, pDevAddr, B_ADDR_LEN ) )
??gapBondMgrFindAddr_0:
        ; Setup parameters for call to function osal_memcmp
        MOV     ?V2,#0x6
        MOV     ?V3,#0x0
        MOV     R0,#?V2
        LCALL   ?PUSH_XSTACK_I_TWO
          CFI CFA_XSP16 add(XSP16, 14)
        MOV     A,R6
        MOV     R4,A
        MOV     A,R7
        MOV     R5,A
        MOV     A,?V0
        MOV     B,#0xe
        MUL     AB
        MOV     R0,A
        MOV     R1,B
        MOV     A,#bonds & 0xff
        ADD     A,R0
        MOV     R2,A
        MOV     A,#(bonds >> 8) & 0xff
        ADDC    A,R1
        MOV     R3,A
        LCALL   ??osal_memcmp?relay  ; Banked call to: osal_memcmp
        MOV     A,#0x2
        LCALL   ?DEALLOC_XSTACK8
          CFI CFA_XSP16 add(XSP16, 12)
        MOV     A,R1
        JZ      ??gapBondMgrFindAddr_1
// 1528     {
// 1529       return ( idx ); // Found it
        MOV     R1,?V0
        SJMP    ??gapBondMgrFindAddr_2
// 1530     }
// 1531   }
??gapBondMgrFindAddr_1:
        INC     ?V0
        MOV     A,?V0
        CLR     C
        SUBB    A,#0xa
        JC      ??gapBondMgrFindAddr_0
// 1532 
// 1533   return ( GAP_BONDINGS_MAX );
        MOV     R1,#0xa
??gapBondMgrFindAddr_2:
        LJMP    ??Subroutine30_0 & 0xFFFF
          CFI EndBlock cfiBlock71
// 1534 }
// 1535 
// 1536 /*********************************************************************
// 1537  * @fn      gapBondMgrResolvePrivateAddr
// 1538  *
// 1539  * @brief   Look through the NV bonding entries to resolve a private
// 1540  *          address.
// 1541  *
// 1542  * @param   pDevAddr - device address to look for
// 1543  *
// 1544  * @return  index to found bonding (0 - (GAP_BONDINGS_MAX-1),
// 1545  *          GAP_BONDINGS_MAX if no entry found
// 1546  */
// 1547 static uint8 gapBondMgrResolvePrivateAddr( uint8 *pDevAddr )
// 1548 {
// 1549   for ( uint8 idx = 0; idx < GAP_BONDINGS_MAX; idx++ )
// 1550   {
// 1551     uint8 IRK[KEYLEN];
// 1552 
// 1553     // Read in NV IRK Record and compare resovable address
// 1554     if ( osal_snv_read( devIRKNvID(idx), KEYLEN, IRK ) == SUCCESS )
// 1555     {
// 1556       if ( ( osal_isbufset( IRK, 0xFF, KEYLEN ) == FALSE ) &&
// 1557            ( GAP_ResolvePrivateAddr( IRK, pDevAddr ) == SUCCESS ) )
// 1558       {
// 1559         return ( idx ); // Found it
// 1560       }
// 1561     }
// 1562   }
// 1563 
// 1564   return ( GAP_BONDINGS_MAX );
// 1565 }
// 1566 
// 1567 /*********************************************************************
// 1568  * @fn      gapBondMgrReadBonds
// 1569  *
// 1570  * @brief   Read through NV and store them in RAM.
// 1571  *
// 1572  * @param   none
// 1573  *
// 1574  * @return  none
// 1575  */

        RSEG BANKED_CODE:CODE:NOROOT(0)
// 1576 static void gapBondMgrReadBonds( void )
gapBondMgrReadBonds:
          CFI Block cfiBlock72 Using cfiCommon0
          CFI Function gapBondMgrReadBonds
        CODE
// 1577 {
        FUNCALL gapBondMgrReadBonds, osal_snv_read
        LOCFRAME ISTACK, 0, STACK
        LOCFRAME PSTACK, 0, STACK
        LOCFRAME XSTACK, 9, STACK
        LOCFRAME IOVERLAY, 0, STATIC
        LOCFRAME DOVERLAY, 0, STATIC
        ARGFRAME ISTACK, 0, STACK
        ARGFRAME PSTACK, 0, STACK
        ARGFRAME XSTACK, 9, STACK
        ARGFRAME IOVERLAY, 0, STATIC
        ARGFRAME DOVERLAY, 0, STATIC
        FUNCALL gapBondMgrReadBonds, osal_memset
        LOCFRAME ISTACK, 0, STACK
        LOCFRAME PSTACK, 0, STACK
        LOCFRAME XSTACK, 9, STACK
        LOCFRAME IOVERLAY, 0, STATIC
        LOCFRAME DOVERLAY, 0, STATIC
        ARGFRAME ISTACK, 0, STACK
        ARGFRAME PSTACK, 0, STACK
        ARGFRAME XSTACK, 9, STACK
        ARGFRAME IOVERLAY, 0, STATIC
        ARGFRAME DOVERLAY, 0, STATIC
        FUNCALL gapBondMgrReadBonds, osal_memset
        LOCFRAME ISTACK, 0, STACK
        LOCFRAME PSTACK, 0, STACK
        LOCFRAME XSTACK, 9, STACK
        LOCFRAME IOVERLAY, 0, STATIC
        LOCFRAME DOVERLAY, 0, STATIC
        ARGFRAME ISTACK, 0, STACK
        ARGFRAME PSTACK, 0, STACK
        ARGFRAME XSTACK, 9, STACK
        ARGFRAME IOVERLAY, 0, STATIC
        ARGFRAME DOVERLAY, 0, STATIC
        FUNCALL gapBondMgrReadBonds, gapBondMgr_SyncWhiteList
        LOCFRAME ISTACK, 0, STACK
        LOCFRAME PSTACK, 0, STACK
        LOCFRAME XSTACK, 9, STACK
        LOCFRAME IOVERLAY, 0, STATIC
        LOCFRAME DOVERLAY, 0, STATIC
        ARGFRAME ISTACK, 0, STACK
        ARGFRAME PSTACK, 0, STACK
        ARGFRAME XSTACK, 9, STACK
        ARGFRAME IOVERLAY, 0, STATIC
        ARGFRAME DOVERLAY, 0, STATIC
        FUNCALL gapBondMgrReadBonds, gapBondSetupPrivFlag
        LOCFRAME ISTACK, 0, STACK
        LOCFRAME PSTACK, 0, STACK
        LOCFRAME XSTACK, 9, STACK
        LOCFRAME IOVERLAY, 0, STATIC
        LOCFRAME DOVERLAY, 0, STATIC
        ARGFRAME ISTACK, 0, STACK
        ARGFRAME PSTACK, 0, STACK
        ARGFRAME XSTACK, 9, STACK
        ARGFRAME IOVERLAY, 0, STATIC
        ARGFRAME DOVERLAY, 0, STATIC
        REQUIRE ?V0
        MOV     A,#-0x9
        LCALL   ?BANKED_ENTER_XDATA
          CFI DPH0 load(1, XDATA, add(CFA_XSP16, literal(-1)))
          CFI DPL0 load(1, XDATA, add(CFA_XSP16, literal(-2)))
          CFI ?BRET_EXT load(1, XDATA, add(CFA_XSP16, literal(-3)))
          CFI ?RET_HIGH load(1, XDATA, add(CFA_XSP16, literal(-4)))
          CFI ?RET_LOW load(1, XDATA, add(CFA_XSP16, literal(-5)))
          CFI R7 load(1, XDATA, add(CFA_XSP16, literal(-6)))
          CFI V0 load(1, XDATA, add(CFA_XSP16, literal(-7)))
          CFI VB load(1, XDATA, add(CFA_XSP16, literal(-8)))
          CFI R6 load(1, XDATA, add(CFA_XSP16, literal(-9)))
          CFI CFA_SP SP+0
          CFI CFA_XSP16 add(XSP16, 9)
        ; Saved register size: 9
        ; Auto size: 0
// 1578   for ( uint8 idx = 0; idx < GAP_BONDINGS_MAX; idx++ )
        MOV     ?V0,#0x0
// 1579   {
// 1580     // See if the entry exists in NV
// 1581     if ( osal_snv_read( mainRecordNvID(idx), sizeof( gapBondRec_t ), &(bonds[idx]) ) != SUCCESS )
??gapBondMgrReadBonds_0:
        MOV     A,?V0
        MOV     B,#0xe
        MUL     AB
        MOV     R0,A
        MOV     R1,B
        MOV     A,#bonds & 0xff
        ADD     A,R0
        MOV     R6,A
        MOV     A,#(bonds >> 8) & 0xff
        ADDC    A,R1
        MOV     R7,A
        ; Setup parameters for call to function osal_snv_read
        MOV     A,R6
        MOV     R4,A
        MOV     A,R7
        MOV     R5,A
        MOV     R2,#0xe
        MOV     B,#0x6
        MOV     A,?V0
        MUL     AB
        ADD     A,#0x20
        MOV     R1,A
        LCALL   ??osal_snv_read?relay; Banked call to: osal_snv_read
        MOV     A,R1
        JZ      ??gapBondMgrReadBonds_1
// 1582     {
// 1583       // Can't read the entry, assume that it doesn't exist
// 1584       VOID osal_memset( bonds[idx].publicAddr, 0xFF, B_ADDR_LEN );
        ; Setup parameters for call to function osal_memset
        MOV     R4,#0x6
        MOV     R5,#0x0
        MOV     R1,#-0x1
        MOV     A,R6
        MOV     R2,A
        MOV     A,R7
        MOV     R3,A
        LCALL   ??osal_memset?relay  ; Banked call to: osal_memset
// 1585       VOID osal_memset( bonds[idx].reconnectAddr, 0xFF, B_ADDR_LEN );
        ; Setup parameters for call to function osal_memset
        MOV     R4,#0x6
        MOV     R5,#0x0
        MOV     R1,#-0x1
        MOV     A,R6
        ADD     A,R4
        MOV     R2,A
        CLR     A
        ADDC    A,R7
        MOV     R3,A
        LCALL   ??osal_memset?relay  ; Banked call to: osal_memset
// 1586       bonds[idx].stateFlags = 0;
        MOV     A,R6
        ADD     A,#0xc
        MOV     DPL,A
        CLR     A
        ADDC    A,R7
        MOV     DPH,A
        CLR     A
        MOVX    @DPTR,A
        INC     DPTR
        MOVX    @DPTR,A
// 1587     }
// 1588   }
??gapBondMgrReadBonds_1:
        INC     ?V0
        MOV     A,?V0
        CLR     C
        SUBB    A,#0xa
        JC      ??gapBondMgrReadBonds_0
// 1589 
// 1590   if ( autoSyncWhiteList )
        MOV     DPTR,#autoSyncWhiteList
        MOVX    A,@DPTR
        JZ      ??gapBondMgrReadBonds_2
// 1591   {
// 1592     gapBondMgr_SyncWhiteList();
        ; Setup parameters for call to function gapBondMgr_SyncWhiteList
        LCALL   ??gapBondMgr_SyncWhiteList?relay; Banked call to: gapBondMgr_SyncWhiteList
// 1593   }
// 1594 
// 1595   // Update the GAP Privacy Flag Properties
// 1596   gapBondSetupPrivFlag();
??gapBondMgrReadBonds_2:
        ; Setup parameters for call to function gapBondSetupPrivFlag
        LCALL   ??gapBondSetupPrivFlag?relay; Banked call to: gapBondSetupPrivFlag
// 1597 }
        SJMP    ?Subroutine5
          CFI EndBlock cfiBlock72
// 1598 
// 1599 /*********************************************************************
// 1600  * @fn      gapBondMgrFindEmpty
// 1601  *
// 1602  * @brief   Look through the bonding NV entries to find an empty.
// 1603  *
// 1604  * @param   none
// 1605  *
// 1606  * @return  index to empty bonding (0 - (GAP_BONDINGS_MAX-1),
// 1607  *          GAP_BONDINGS_MAX if no empty entries
// 1608  */
// 1609 static uint8 gapBondMgrFindEmpty( void )
// 1610 {
// 1611   // Item doesn't exist, so create all the items
// 1612   for ( uint8 idx = 0; idx < GAP_BONDINGS_MAX; idx++ )
// 1613   {
// 1614     // Look for public address of all 0xFF's
// 1615     if ( osal_isbufset( bonds[idx].publicAddr, 0xFF, B_ADDR_LEN ) )
// 1616     {
// 1617       return ( idx ); // Found one
// 1618     }
// 1619   }
// 1620 
// 1621   return ( GAP_BONDINGS_MAX );
// 1622 }
// 1623 
// 1624 /*********************************************************************
// 1625  * @fn      gapBondMgrBondTotal
// 1626  *
// 1627  * @brief   Look through the bonding NV entries calculate the number
// 1628  *          entries.
// 1629  *
// 1630  * @param   none
// 1631  *
// 1632  * @return  total number of bonds found
// 1633  */

        RSEG BANKED_CODE:CODE:NOROOT(0)
// 1634 static uint8 gapBondMgrBondTotal( void )
gapBondMgrBondTotal:
          CFI Block cfiBlock73 Using cfiCommon0
          CFI Function gapBondMgrBondTotal
        CODE
// 1635 {
        FUNCALL gapBondMgrBondTotal, osal_isbufset
        LOCFRAME ISTACK, 0, STACK
        LOCFRAME PSTACK, 0, STACK
        LOCFRAME XSTACK, 9, STACK
        LOCFRAME IOVERLAY, 0, STATIC
        LOCFRAME DOVERLAY, 0, STATIC
        ARGFRAME ISTACK, 0, STACK
        ARGFRAME PSTACK, 0, STACK
        ARGFRAME XSTACK, 9, STACK
        ARGFRAME IOVERLAY, 0, STATIC
        ARGFRAME DOVERLAY, 0, STATIC
        MOV     A,#-0x9
        LCALL   ?BANKED_ENTER_XDATA
          CFI DPH0 load(1, XDATA, add(CFA_XSP16, literal(-1)))
          CFI DPL0 load(1, XDATA, add(CFA_XSP16, literal(-2)))
          CFI ?BRET_EXT load(1, XDATA, add(CFA_XSP16, literal(-3)))
          CFI ?RET_HIGH load(1, XDATA, add(CFA_XSP16, literal(-4)))
          CFI ?RET_LOW load(1, XDATA, add(CFA_XSP16, literal(-5)))
          CFI R7 load(1, XDATA, add(CFA_XSP16, literal(-6)))
          CFI V0 load(1, XDATA, add(CFA_XSP16, literal(-7)))
          CFI VB load(1, XDATA, add(CFA_XSP16, literal(-8)))
          CFI R6 load(1, XDATA, add(CFA_XSP16, literal(-9)))
          CFI CFA_SP SP+0
          CFI CFA_XSP16 add(XSP16, 9)
        ; Saved register size: 9
        ; Auto size: 0
// 1636   uint8 numBonds = 0;
        MOV     R6,#0x0
// 1637 
// 1638   // Item doesn't exist, so create all the items
// 1639   for ( uint8 idx = 0; idx < GAP_BONDINGS_MAX; idx++ )
        MOV     R7,#0x0
// 1640   {
// 1641     // Look for public address that are not 0xFF's
// 1642     if ( osal_isbufset( bonds[idx].publicAddr, 0xFF, B_ADDR_LEN ) == FALSE )
??gapBondMgrBondTotal_0:
        ; Setup parameters for call to function osal_isbufset
        MOV     R4,#0x6
        MOV     R1,#-0x1
        MOV     A,R7
        MOV     B,#0xe
        MUL     AB
        MOV     R2,A
        MOV     R3,B
        MOV     A,#bonds & 0xff
        ADD     A,R2
        MOV     R2,A
        MOV     A,#(bonds >> 8) & 0xff
        ADDC    A,R3
        MOV     R3,A
        LCALL   ??osal_isbufset?relay; Banked call to: osal_isbufset
        MOV     A,R1
        JNZ     ??gapBondMgrBondTotal_1
// 1643     {
// 1644       numBonds++; // Found one
        INC     R6
// 1645     }
// 1646   }
??gapBondMgrBondTotal_1:
        INC     R7
        MOV     A,R7
        CLR     C
        SUBB    A,#0xa
        JC      ??gapBondMgrBondTotal_0
// 1647 
// 1648   return ( numBonds );
        MOV     A,R6
        MOV     R1,A
          CFI EndBlock cfiBlock73
        REQUIRE ?Subroutine5
        ; // Fall through to label ?Subroutine5
// 1649 }

        RSEG BANKED_CODE:CODE:NOROOT(0)
?Subroutine5:
          CFI Block cfiBlock74 Using cfiCommon0
          CFI NoFunction
          CFI CFA_SP SP+0
          CFI CFA_XSP16 add(XSP16, 9)
          CFI VB load(1, XDATA, add(CFA_XSP16, literal(-8)))
          CFI DPL0 load(1, XDATA, add(CFA_XSP16, literal(-2)))
          CFI DPH0 load(1, XDATA, add(CFA_XSP16, literal(-1)))
          CFI R6 load(1, XDATA, add(CFA_XSP16, literal(-9)))
          CFI R7 load(1, XDATA, add(CFA_XSP16, literal(-6)))
          CFI V0 load(1, XDATA, add(CFA_XSP16, literal(-7)))
          CFI ?BRET_EXT load(1, XDATA, add(CFA_XSP16, literal(-3)))
          CFI ?RET_HIGH load(1, XDATA, add(CFA_XSP16, literal(-4)))
          CFI ?RET_LOW load(1, XDATA, add(CFA_XSP16, literal(-5)))
        MOV     R7,#0x1
        LJMP    ?BANKED_LEAVE_XDATA
          CFI EndBlock cfiBlock74
// 1650 
// 1651 /*********************************************************************
// 1652  * @fn      gapBondMgrEraseAllBondings
// 1653  *
// 1654  * @brief   Write all 0xFF's to all of the bonding entries
// 1655  *
// 1656  * @param   none
// 1657  *
// 1658  * @return  SUCCESS if successful.
// 1659  *          Otherwise, NV_OPER_FAILED for failure.
// 1660  */

        RSEG BANKED_CODE:CODE:NOROOT(0)
// 1661 static bStatus_t gapBondMgrEraseAllBondings( void )
gapBondMgrEraseAllBondings:
          CFI Block cfiBlock75 Using cfiCommon0
          CFI Function gapBondMgrEraseAllBondings
        CODE
// 1662 {
        FUNCALL gapBondMgrEraseAllBondings, gapBondMgrEraseBonding
        LOCFRAME ISTACK, 0, STACK
        LOCFRAME PSTACK, 0, STACK
        LOCFRAME XSTACK, 9, STACK
        LOCFRAME IOVERLAY, 0, STATIC
        LOCFRAME DOVERLAY, 0, STATIC
        ARGFRAME ISTACK, 0, STACK
        ARGFRAME PSTACK, 0, STACK
        ARGFRAME XSTACK, 9, STACK
        ARGFRAME IOVERLAY, 0, STATIC
        ARGFRAME DOVERLAY, 0, STATIC
        MOV     A,#-0x9
        LCALL   ?BANKED_ENTER_XDATA
          CFI DPH0 load(1, XDATA, add(CFA_XSP16, literal(-1)))
          CFI DPL0 load(1, XDATA, add(CFA_XSP16, literal(-2)))
          CFI ?BRET_EXT load(1, XDATA, add(CFA_XSP16, literal(-3)))
          CFI ?RET_HIGH load(1, XDATA, add(CFA_XSP16, literal(-4)))
          CFI ?RET_LOW load(1, XDATA, add(CFA_XSP16, literal(-5)))
          CFI R7 load(1, XDATA, add(CFA_XSP16, literal(-6)))
          CFI V0 load(1, XDATA, add(CFA_XSP16, literal(-7)))
          CFI VB load(1, XDATA, add(CFA_XSP16, literal(-8)))
          CFI R6 load(1, XDATA, add(CFA_XSP16, literal(-9)))
          CFI CFA_SP SP+0
          CFI CFA_XSP16 add(XSP16, 9)
        ; Saved register size: 9
        ; Auto size: 0
// 1663   bStatus_t stat = SUCCESS;  // return value
// 1664 
// 1665   // Item doesn't exist, so create all the items
// 1666   for ( uint8 idx = 0; (idx < GAP_BONDINGS_MAX) && (stat == SUCCESS); idx++ )
        MOV     R6,#0x0
// 1667   {
// 1668     // Erasing will write/create a bonding entry
// 1669     stat = gapBondMgrEraseBonding( idx );
??gapBondMgrEraseAllBondings_0:
        ; Setup parameters for call to function gapBondMgrEraseBonding
        MOV     A,R6
        MOV     R1,A
        LCALL   ??gapBondMgrEraseBonding?relay; Banked call to: gapBondMgrEraseBonding
// 1670   }
        INC     R6
        MOV     A,R6
        CLR     C
        SUBB    A,#0xa
        JNC     ??gapBondMgrEraseAllBondings_1
        MOV     A,R1
        JZ      ??gapBondMgrEraseAllBondings_0
// 1671 
// 1672   return ( stat );
??gapBondMgrEraseAllBondings_1:
        SJMP    ?Subroutine5
          CFI EndBlock cfiBlock75
// 1673 }
// 1674 
// 1675 /*********************************************************************
// 1676  * @fn      gapBondMgrEraseBonding
// 1677  *
// 1678  * @brief   Write all 0xFF's to the complete bonding record
// 1679  *
// 1680  * @param   idx - bonding index
// 1681  *
// 1682  * @return  SUCCESS if successful.
// 1683  *          Otherwise, NV_OPER_FAILED for failure.
// 1684  */

        RSEG BANKED_CODE:CODE:NOROOT(0)
// 1685 static bStatus_t gapBondMgrEraseBonding( uint8 idx )
gapBondMgrEraseBonding:
          CFI Block cfiBlock76 Using cfiCommon0
          CFI Function gapBondMgrEraseBonding
        CODE
// 1686 {
        FUNCALL gapBondMgrEraseBonding, osal_clear_event
        LOCFRAME ISTACK, 0, STACK
        LOCFRAME PSTACK, 0, STACK
        LOCFRAME XSTACK, 66, STACK
        LOCFRAME IOVERLAY, 0, STATIC
        LOCFRAME DOVERLAY, 0, STATIC
        ARGFRAME ISTACK, 0, STACK
        ARGFRAME PSTACK, 0, STACK
        ARGFRAME XSTACK, 66, STACK
        ARGFRAME IOVERLAY, 0, STATIC
        ARGFRAME DOVERLAY, 0, STATIC
        FUNCALL gapBondMgrEraseBonding, osal_clear_event
        LOCFRAME ISTACK, 0, STACK
        LOCFRAME PSTACK, 0, STACK
        LOCFRAME XSTACK, 66, STACK
        LOCFRAME IOVERLAY, 0, STATIC
        LOCFRAME DOVERLAY, 0, STATIC
        ARGFRAME ISTACK, 0, STACK
        ARGFRAME PSTACK, 0, STACK
        ARGFRAME XSTACK, 66, STACK
        ARGFRAME IOVERLAY, 0, STATIC
        ARGFRAME DOVERLAY, 0, STATIC
        FUNCALL gapBondMgrEraseBonding, gapBondFreeAuthEvt
        LOCFRAME ISTACK, 0, STACK
        LOCFRAME PSTACK, 0, STACK
        LOCFRAME XSTACK, 66, STACK
        LOCFRAME IOVERLAY, 0, STATIC
        LOCFRAME DOVERLAY, 0, STATIC
        ARGFRAME ISTACK, 0, STACK
        ARGFRAME PSTACK, 0, STACK
        ARGFRAME XSTACK, 66, STACK
        ARGFRAME IOVERLAY, 0, STATIC
        ARGFRAME DOVERLAY, 0, STATIC
        FUNCALL gapBondMgrEraseBonding, osal_snv_read
        LOCFRAME ISTACK, 0, STACK
        LOCFRAME PSTACK, 0, STACK
        LOCFRAME XSTACK, 66, STACK
        LOCFRAME IOVERLAY, 0, STATIC
        LOCFRAME DOVERLAY, 0, STATIC
        ARGFRAME ISTACK, 0, STACK
        ARGFRAME PSTACK, 0, STACK
        ARGFRAME XSTACK, 66, STACK
        ARGFRAME IOVERLAY, 0, STATIC
        ARGFRAME DOVERLAY, 0, STATIC
        FUNCALL gapBondMgrEraseBonding, osal_isbufset
        LOCFRAME ISTACK, 0, STACK
        LOCFRAME PSTACK, 0, STACK
        LOCFRAME XSTACK, 66, STACK
        LOCFRAME IOVERLAY, 0, STATIC
        LOCFRAME DOVERLAY, 0, STATIC
        ARGFRAME ISTACK, 0, STACK
        ARGFRAME PSTACK, 0, STACK
        ARGFRAME XSTACK, 66, STACK
        ARGFRAME IOVERLAY, 0, STATIC
        ARGFRAME DOVERLAY, 0, STATIC
        FUNCALL gapBondMgrEraseBonding, osal_memset
        LOCFRAME ISTACK, 0, STACK
        LOCFRAME PSTACK, 0, STACK
        LOCFRAME XSTACK, 66, STACK
        LOCFRAME IOVERLAY, 0, STATIC
        LOCFRAME DOVERLAY, 0, STATIC
        ARGFRAME ISTACK, 0, STACK
        ARGFRAME PSTACK, 0, STACK
        ARGFRAME XSTACK, 66, STACK
        ARGFRAME IOVERLAY, 0, STATIC
        ARGFRAME DOVERLAY, 0, STATIC
        FUNCALL gapBondMgrEraseBonding, osal_memset
        LOCFRAME ISTACK, 0, STACK
        LOCFRAME PSTACK, 0, STACK
        LOCFRAME XSTACK, 66, STACK
        LOCFRAME IOVERLAY, 0, STATIC
        LOCFRAME DOVERLAY, 0, STATIC
        ARGFRAME ISTACK, 0, STACK
        ARGFRAME PSTACK, 0, STACK
        ARGFRAME XSTACK, 66, STACK
        ARGFRAME IOVERLAY, 0, STATIC
        ARGFRAME DOVERLAY, 0, STATIC
        FUNCALL gapBondMgrEraseBonding, osal_memset
        LOCFRAME ISTACK, 0, STACK
        LOCFRAME PSTACK, 0, STACK
        LOCFRAME XSTACK, 66, STACK
        LOCFRAME IOVERLAY, 0, STATIC
        LOCFRAME DOVERLAY, 0, STATIC
        ARGFRAME ISTACK, 0, STACK
        ARGFRAME PSTACK, 0, STACK
        ARGFRAME XSTACK, 66, STACK
        ARGFRAME IOVERLAY, 0, STATIC
        ARGFRAME DOVERLAY, 0, STATIC
        FUNCALL gapBondMgrEraseBonding, osal_snv_write
        LOCFRAME ISTACK, 0, STACK
        LOCFRAME PSTACK, 0, STACK
        LOCFRAME XSTACK, 66, STACK
        LOCFRAME IOVERLAY, 0, STATIC
        LOCFRAME DOVERLAY, 0, STATIC
        ARGFRAME ISTACK, 0, STACK
        ARGFRAME PSTACK, 0, STACK
        ARGFRAME XSTACK, 66, STACK
        ARGFRAME IOVERLAY, 0, STATIC
        ARGFRAME DOVERLAY, 0, STATIC
        FUNCALL gapBondMgrEraseBonding, osal_snv_write
        LOCFRAME ISTACK, 0, STACK
        LOCFRAME PSTACK, 0, STACK
        LOCFRAME XSTACK, 66, STACK
        LOCFRAME IOVERLAY, 0, STATIC
        LOCFRAME DOVERLAY, 0, STATIC
        ARGFRAME ISTACK, 0, STACK
        ARGFRAME PSTACK, 0, STACK
        ARGFRAME XSTACK, 66, STACK
        ARGFRAME IOVERLAY, 0, STATIC
        ARGFRAME DOVERLAY, 0, STATIC
        FUNCALL gapBondMgrEraseBonding, osal_snv_write
        LOCFRAME ISTACK, 0, STACK
        LOCFRAME PSTACK, 0, STACK
        LOCFRAME XSTACK, 66, STACK
        LOCFRAME IOVERLAY, 0, STATIC
        LOCFRAME DOVERLAY, 0, STATIC
        ARGFRAME ISTACK, 0, STACK
        ARGFRAME PSTACK, 0, STACK
        ARGFRAME XSTACK, 66, STACK
        ARGFRAME IOVERLAY, 0, STATIC
        ARGFRAME DOVERLAY, 0, STATIC
        FUNCALL gapBondMgrEraseBonding, osal_snv_write
        LOCFRAME ISTACK, 0, STACK
        LOCFRAME PSTACK, 0, STACK
        LOCFRAME XSTACK, 66, STACK
        LOCFRAME IOVERLAY, 0, STATIC
        LOCFRAME DOVERLAY, 0, STATIC
        ARGFRAME ISTACK, 0, STACK
        ARGFRAME PSTACK, 0, STACK
        ARGFRAME XSTACK, 66, STACK
        ARGFRAME IOVERLAY, 0, STATIC
        ARGFRAME DOVERLAY, 0, STATIC
        FUNCALL gapBondMgrEraseBonding, osal_snv_write
        LOCFRAME ISTACK, 0, STACK
        LOCFRAME PSTACK, 0, STACK
        LOCFRAME XSTACK, 66, STACK
        LOCFRAME IOVERLAY, 0, STATIC
        LOCFRAME DOVERLAY, 0, STATIC
        ARGFRAME ISTACK, 0, STACK
        ARGFRAME PSTACK, 0, STACK
        ARGFRAME XSTACK, 66, STACK
        ARGFRAME IOVERLAY, 0, STATIC
        ARGFRAME DOVERLAY, 0, STATIC
        FUNCALL gapBondMgrEraseBonding, osal_snv_write
        LOCFRAME ISTACK, 0, STACK
        LOCFRAME PSTACK, 0, STACK
        LOCFRAME XSTACK, 66, STACK
        LOCFRAME IOVERLAY, 0, STATIC
        LOCFRAME DOVERLAY, 0, STATIC
        ARGFRAME ISTACK, 0, STACK
        ARGFRAME PSTACK, 0, STACK
        ARGFRAME XSTACK, 66, STACK
        ARGFRAME IOVERLAY, 0, STATIC
        ARGFRAME DOVERLAY, 0, STATIC
        FUNCALL gapBondMgrEraseBonding, osal_snv_write
        LOCFRAME ISTACK, 0, STACK
        LOCFRAME PSTACK, 0, STACK
        LOCFRAME XSTACK, 66, STACK
        LOCFRAME IOVERLAY, 0, STATIC
        LOCFRAME DOVERLAY, 0, STATIC
        ARGFRAME ISTACK, 0, STACK
        ARGFRAME PSTACK, 0, STACK
        ARGFRAME XSTACK, 66, STACK
        ARGFRAME IOVERLAY, 0, STATIC
        ARGFRAME DOVERLAY, 0, STATIC
        REQUIRE ?V0
        REQUIRE ?V1
        REQUIRE ?V2
        REQUIRE ?V3
        REQUIRE ?V4
        MOV     A,#-0xd
        LCALL   ?BANKED_ENTER_XDATA
          CFI DPH0 load(1, XDATA, add(CFA_XSP16, literal(-1)))
          CFI DPL0 load(1, XDATA, add(CFA_XSP16, literal(-2)))
          CFI ?BRET_EXT load(1, XDATA, add(CFA_XSP16, literal(-3)))
          CFI ?RET_HIGH load(1, XDATA, add(CFA_XSP16, literal(-4)))
          CFI ?RET_LOW load(1, XDATA, add(CFA_XSP16, literal(-5)))
          CFI R7 load(1, XDATA, add(CFA_XSP16, literal(-6)))
          CFI V4 load(1, XDATA, add(CFA_XSP16, literal(-7)))
          CFI V3 load(1, XDATA, add(CFA_XSP16, literal(-8)))
          CFI V2 load(1, XDATA, add(CFA_XSP16, literal(-9)))
          CFI V1 load(1, XDATA, add(CFA_XSP16, literal(-10)))
          CFI V0 load(1, XDATA, add(CFA_XSP16, literal(-11)))
          CFI VB load(1, XDATA, add(CFA_XSP16, literal(-12)))
          CFI R6 load(1, XDATA, add(CFA_XSP16, literal(-13)))
          CFI CFA_SP SP+0
          CFI CFA_XSP16 add(XSP16, 13)
        ; Saved register size: 13
        ; Auto size: 53
        MOV     A,#-0x35
        LCALL   ?ALLOC_XSTACK8
          CFI CFA_XSP16 add(XSP16, 66)
        MOV     A,R1
        MOV     R7,A
// 1687   bStatus_t ret;
// 1688   gapBondRec_t bondRec;
// 1689 
// 1690   if ( idx == bondIdx )
        MOV     DPTR,#bondIdx
        MOVX    A,@DPTR
        XRL     A,R7
        JNZ     ??gapBondMgrEraseBonding_0
// 1691   {
// 1692     // Stop ongoing bond store process to prevent any invalid data be written.
// 1693     osal_clear_event( gapBondMgr_TaskID, GAP_BOND_SYNC_CC_EVT );
        ; Setup parameters for call to function osal_clear_event
        MOV     R2,#0x1
        MOV     R3,#0x0
        MOV     DPTR,#gapBondMgr_TaskID
        MOVX    A,@DPTR
        MOV     R1,A
        LCALL   ??osal_clear_event?relay; Banked call to: osal_clear_event
// 1694     osal_clear_event( gapBondMgr_TaskID, GAP_BOND_SAVE_REC_EVT );
        ; Setup parameters for call to function osal_clear_event
        MOV     R2,#0x2
        MOV     R3,#0x0
        MOV     DPTR,#gapBondMgr_TaskID
        MOVX    A,@DPTR
        MOV     R1,A
        LCALL   ??osal_clear_event?relay; Banked call to: osal_clear_event
// 1695 
// 1696     gapBondFreeAuthEvt();
        ; Setup parameters for call to function gapBondFreeAuthEvt
        LCALL   ??gapBondFreeAuthEvt?relay; Banked call to: gapBondFreeAuthEvt
// 1697   }
// 1698   
// 1699   // First see if bonding record exists in NV, then write all 0xFF's to it
// 1700   if ( ( osal_snv_read( mainRecordNvID(idx), sizeof ( gapBondRec_t ), &bondRec ) == SUCCESS )
// 1701        && (osal_isbufset( bondRec.publicAddr, 0xFF, B_ADDR_LEN ) == FALSE) )
??gapBondMgrEraseBonding_0:
        MOV     B,#0x6
        MOV     A,R7
        MUL     AB
        MOV     R6,A
        MOV     A,#0x20
        ADD     A,R6
        MOV     ?V0,A
        ; Setup parameters for call to function osal_snv_read
        MOV     A,#0x27
        LCALL   ?XSTACK_DISP102_8
        MOV     R2,#0xe
        MOV     R1,?V0
        LCALL   ??osal_snv_read?relay; Banked call to: osal_snv_read
        MOV     A,R1
        JZ      $+5
        LJMP    ??gapBondMgrEraseBonding_1 & 0xFFFF
        ; Setup parameters for call to function osal_isbufset
        MOV     R4,#0x6
        MOV     R1,#-0x1
        MOV     A,#0x27
        LCALL   ?XSTACK_DISP101_8
        LCALL   ??osal_isbufset?relay; Banked call to: osal_isbufset
        MOV     A,R1
        JZ      $+5
        LJMP    ??gapBondMgrEraseBonding_1 & 0xFFFF
// 1702   {
// 1703     gapBondLTK_t ltk;
// 1704     gapBondCharCfg_t charCfg[GAP_CHAR_CFG_MAX];
// 1705 
// 1706     VOID osal_memset( &bondRec, 0xFF, sizeof ( gapBondRec_t ) );
        ; Setup parameters for call to function osal_memset
        MOV     R4,#0xe
        MOV     R5,#0x0
        MOV     R1,#-0x1
        MOV     A,#0x27
        LCALL   ?XSTACK_DISP101_8
        LCALL   ??osal_memset?relay  ; Banked call to: osal_memset
// 1707     VOID osal_memset( &ltk, 0xFF, sizeof ( gapBondLTK_t ) );
        ; Setup parameters for call to function osal_memset
        MOV     R4,#0x1b
        MOV     R5,#0x0
        MOV     R1,#-0x1
        MOV     A,#0xc
        LCALL   ?XSTACK_DISP101_8
        LCALL   ??osal_memset?relay  ; Banked call to: osal_memset
// 1708 
// 1709     VOID osal_memset( charCfg, 0xFF, sizeof ( charCfg ) );
        ; Setup parameters for call to function osal_memset
        MOV     R4,#0xc
        MOV     R5,#0x0
        MOV     R1,#-0x1
        MOV     R2,?XSP + 0
        MOV     R3,?XSP + 1
        LCALL   ??osal_memset?relay  ; Banked call to: osal_memset
// 1710 
// 1711     // Write out FF's over the entire bond entry.
// 1712     ret = osal_snv_write( mainRecordNvID(idx), sizeof ( gapBondRec_t ), &bondRec );
        ; Setup parameters for call to function osal_snv_write
        MOV     A,#0x27
        LCALL   ?XSTACK_DISP102_8
        MOV     R2,#0xe
        MOV     R1,?V0
        LCALL   ??osal_snv_write?relay; Banked call to: osal_snv_write
        MOV     A,R1
        MOV     ?V0,A
// 1713     ret |= osal_snv_write( localLTKNvID(idx), sizeof ( gapBondLTK_t ), &ltk );
        ; Setup parameters for call to function osal_snv_write
        MOV     A,#0xc
        LCALL   ?XSTACK_DISP102_8
        MOV     R2,#0x1b
        MOV     A,#0x21
        ADD     A,R6
        MOV     R1,A
        LCALL   ??osal_snv_write?relay; Banked call to: osal_snv_write
        MOV     A,R1
        MOV     ?V4,A
// 1714     ret |= osal_snv_write( devLTKNvID(idx), sizeof ( gapBondLTK_t ), &ltk );
        ; Setup parameters for call to function osal_snv_write
        MOV     A,#0xc
        LCALL   ?XSTACK_DISP102_8
        MOV     R2,#0x1b
        MOV     A,#0x22
        ADD     A,R6
        MOV     R1,A
        LCALL   ??osal_snv_write?relay; Banked call to: osal_snv_write
        MOV     A,R1
        MOV     ?V3,A
// 1715     ret |= osal_snv_write( devIRKNvID(idx), KEYLEN, ltk.LTK );
        ; Setup parameters for call to function osal_snv_write
        MOV     A,#0xc
        LCALL   ?XSTACK_DISP102_8
        MOV     R2,#0x10
        MOV     A,#0x23
        ADD     A,R6
        MOV     R1,A
        LCALL   ??osal_snv_write?relay; Banked call to: osal_snv_write
        MOV     A,R1
        MOV     ?V1,A
// 1716     ret |= osal_snv_write( devCSRKNvID(idx), KEYLEN, ltk.LTK );
        ; Setup parameters for call to function osal_snv_write
        MOV     A,#0xc
        LCALL   ?XSTACK_DISP102_8
        MOV     R2,#0x10
        MOV     A,#0x24
        ADD     A,R6
        MOV     R1,A
        LCALL   ??osal_snv_write?relay; Banked call to: osal_snv_write
        MOV     A,R1
        MOV     ?V2,A
// 1717     ret |= osal_snv_write( devSignCounterNvID(idx), sizeof ( uint32 ), ltk.LTK );
        ; Setup parameters for call to function osal_snv_write
        MOV     A,#0xc
        LCALL   ?XSTACK_DISP102_8
        MOV     R2,#0x4
        MOV     A,#0x25
        ADD     A,R6
        MOV     R1,A
        LCALL   ??osal_snv_write?relay; Banked call to: osal_snv_write
        MOV     A,R1
        MOV     R6,A
// 1718 
// 1719     // Write out FF's over the charactersitic configuration entry.
// 1720     ret |= osal_snv_write( gattCfgNvID(idx), sizeof ( charCfg ), charCfg );
        ; Setup parameters for call to function osal_snv_write
        MOV     R4,?XSP + 0
        MOV     R5,?XSP + 1
        MOV     R2,#0xc
        MOV     A,#0x70
        ADD     A,R7
        MOV     R1,A
        LCALL   ??osal_snv_write?relay; Banked call to: osal_snv_write
        MOV     A,R1
        MOV     R0,A
        MOV     A,?V4
        ORL     A,?V3
        ORL     A,?V1
        ORL     A,?V2
        ORL     A,R6
        ORL     A,R0
        ORL     ?V0,A
        SJMP    ??gapBondMgrEraseBonding_2
// 1721   }
// 1722   else
// 1723   {
// 1724     ret = SUCCESS;
??gapBondMgrEraseBonding_1:
        MOV     ?V0,#0x0
// 1725   }
// 1726 
// 1727   return ( ret );
??gapBondMgrEraseBonding_2:
        MOV     R1,?V0
        MOV     A,#0x35
        LCALL   ?DEALLOC_XSTACK8
          CFI CFA_XSP16 add(XSP16, 13)
        MOV     R7,#0x5
        LJMP    ?BANKED_LEAVE_XDATA
          CFI EndBlock cfiBlock76
// 1728 }
// 1729 
// 1730 /*********************************************************************
// 1731  * @brief   Task Initialization function.
// 1732  *
// 1733  * Internal function defined in gapbondmgr.h.
// 1734  */

        RSEG BANKED_CODE:CODE:NOROOT(0)
// 1735 void GAPBondMgr_Init( uint8 task_id )
GAPBondMgr_Init:
          CFI Block cfiBlock77 Using cfiCommon0
          CFI Function GAPBondMgr_Init
        CODE
// 1736 {
        FUNCALL GAPBondMgr_Init, gapBondMgrReadBonds
        LOCFRAME ISTACK, 0, STACK
        LOCFRAME PSTACK, 0, STACK
        LOCFRAME XSTACK, 9, STACK
        LOCFRAME IOVERLAY, 0, STATIC
        LOCFRAME DOVERLAY, 0, STATIC
        ARGFRAME ISTACK, 0, STACK
        ARGFRAME PSTACK, 0, STACK
        ARGFRAME XSTACK, 9, STACK
        ARGFRAME IOVERLAY, 0, STATIC
        ARGFRAME DOVERLAY, 0, STATIC
        MOV     A,#-0x9
        LCALL   ?BANKED_ENTER_XDATA
          CFI DPH0 load(1, XDATA, add(CFA_XSP16, literal(-1)))
          CFI DPL0 load(1, XDATA, add(CFA_XSP16, literal(-2)))
          CFI ?BRET_EXT load(1, XDATA, add(CFA_XSP16, literal(-3)))
          CFI ?RET_HIGH load(1, XDATA, add(CFA_XSP16, literal(-4)))
          CFI ?RET_LOW load(1, XDATA, add(CFA_XSP16, literal(-5)))
          CFI R7 load(1, XDATA, add(CFA_XSP16, literal(-6)))
          CFI V0 load(1, XDATA, add(CFA_XSP16, literal(-7)))
          CFI VB load(1, XDATA, add(CFA_XSP16, literal(-8)))
          CFI R6 load(1, XDATA, add(CFA_XSP16, literal(-9)))
          CFI CFA_SP SP+0
          CFI CFA_XSP16 add(XSP16, 9)
        ; Saved register size: 9
        ; Auto size: 0
        MOV     A,R1
// 1737   gapBondMgr_TaskID = task_id;  // Save task ID
        MOV     DPTR,#gapBondMgr_TaskID
        MOVX    @DPTR,A
// 1738 
// 1739   // Setup Bond RAM Shadow
// 1740   gapBondMgrReadBonds();
        ; Setup parameters for call to function gapBondMgrReadBonds
        LCALL   ??gapBondMgrReadBonds?relay; Banked call to: gapBondMgrReadBonds
// 1741 }
        LJMP    ?Subroutine5 & 0xFFFF
          CFI EndBlock cfiBlock77
// 1742 
// 1743 /*********************************************************************
// 1744  * @brief   Task Event Processor function.
// 1745  *
// 1746  * Internal function defined in gapbondmgr.h.
// 1747  */

        RSEG BANKED_CODE:CODE:NOROOT(0)
// 1748 uint16 GAPBondMgr_ProcessEvent( uint8 task_id, uint16 events )
GAPBondMgr_ProcessEvent:
          CFI Block cfiBlock78 Using cfiCommon0
          CFI Function GAPBondMgr_ProcessEvent
        CODE
// 1749 {
        FUNCALL GAPBondMgr_ProcessEvent, osal_msg_receive
        LOCFRAME ISTACK, 0, STACK
        LOCFRAME PSTACK, 0, STACK
        LOCFRAME XSTACK, 12, STACK
        LOCFRAME IOVERLAY, 0, STATIC
        LOCFRAME DOVERLAY, 0, STATIC
        ARGFRAME ISTACK, 0, STACK
        ARGFRAME PSTACK, 0, STACK
        ARGFRAME XSTACK, 12, STACK
        ARGFRAME IOVERLAY, 0, STATIC
        ARGFRAME DOVERLAY, 0, STATIC
        FUNCALL GAPBondMgr_ProcessEvent, GAPBondMgr_UpdateCharCfg
        LOCFRAME ISTACK, 0, STACK
        LOCFRAME PSTACK, 0, STACK
        LOCFRAME XSTACK, 14, STACK
        LOCFRAME IOVERLAY, 0, STATIC
        LOCFRAME DOVERLAY, 0, STATIC
        ARGFRAME ISTACK, 0, STACK
        ARGFRAME PSTACK, 0, STACK
        ARGFRAME XSTACK, 14, STACK
        ARGFRAME IOVERLAY, 0, STATIC
        ARGFRAME DOVERLAY, 0, STATIC
        FUNCALL GAPBondMgr_ProcessEvent, GAPBondMgr_ServiceChangeInd
        LOCFRAME ISTACK, 0, STACK
        LOCFRAME PSTACK, 0, STACK
        LOCFRAME XSTACK, 12, STACK
        LOCFRAME IOVERLAY, 0, STATIC
        LOCFRAME DOVERLAY, 0, STATIC
        ARGFRAME ISTACK, 0, STACK
        ARGFRAME PSTACK, 0, STACK
        ARGFRAME XSTACK, 12, STACK
        ARGFRAME IOVERLAY, 0, STATIC
        ARGFRAME DOVERLAY, 0, STATIC
        FUNCALL GAPBondMgr_ProcessEvent, GAPBondMgr_ProcessGAPMsg
        LOCFRAME ISTACK, 0, STACK
        LOCFRAME PSTACK, 0, STACK
        LOCFRAME XSTACK, 12, STACK
        LOCFRAME IOVERLAY, 0, STATIC
        LOCFRAME DOVERLAY, 0, STATIC
        ARGFRAME ISTACK, 0, STACK
        ARGFRAME PSTACK, 0, STACK
        ARGFRAME XSTACK, 12, STACK
        ARGFRAME IOVERLAY, 0, STATIC
        ARGFRAME DOVERLAY, 0, STATIC
        FUNCALL GAPBondMgr_ProcessEvent, osal_msg_deallocate
        LOCFRAME ISTACK, 0, STACK
        LOCFRAME PSTACK, 0, STACK
        LOCFRAME XSTACK, 12, STACK
        LOCFRAME IOVERLAY, 0, STATIC
        LOCFRAME DOVERLAY, 0, STATIC
        ARGFRAME ISTACK, 0, STACK
        ARGFRAME PSTACK, 0, STACK
        ARGFRAME XSTACK, 12, STACK
        ARGFRAME IOVERLAY, 0, STATIC
        ARGFRAME DOVERLAY, 0, STATIC
        FUNCALL GAPBondMgr_ProcessEvent, gapBondMgrAddBond
        LOCFRAME ISTACK, 0, STACK
        LOCFRAME PSTACK, 0, STACK
        LOCFRAME XSTACK, 12, STACK
        LOCFRAME IOVERLAY, 0, STATIC
        LOCFRAME DOVERLAY, 0, STATIC
        ARGFRAME ISTACK, 0, STACK
        ARGFRAME PSTACK, 0, STACK
        ARGFRAME XSTACK, 12, STACK
        ARGFRAME IOVERLAY, 0, STATIC
        ARGFRAME DOVERLAY, 0, STATIC
        FUNCALL GAPBondMgr_ProcessEvent, osal_set_event
        LOCFRAME ISTACK, 0, STACK
        LOCFRAME PSTACK, 0, STACK
        LOCFRAME XSTACK, 12, STACK
        LOCFRAME IOVERLAY, 0, STATIC
        LOCFRAME DOVERLAY, 0, STATIC
        ARGFRAME ISTACK, 0, STACK
        ARGFRAME PSTACK, 0, STACK
        ARGFRAME XSTACK, 12, STACK
        ARGFRAME IOVERLAY, 0, STATIC
        ARGFRAME DOVERLAY, 0, STATIC
        FUNCALL GAPBondMgr_ProcessEvent, gapBondMgr_SyncCharCfg
        LOCFRAME ISTACK, 0, STACK
        LOCFRAME PSTACK, 0, STACK
        LOCFRAME XSTACK, 12, STACK
        LOCFRAME IOVERLAY, 0, STATIC
        LOCFRAME DOVERLAY, 0, STATIC
        ARGFRAME ISTACK, 0, STACK
        ARGFRAME PSTACK, 0, STACK
        ARGFRAME XSTACK, 12, STACK
        ARGFRAME IOVERLAY, 0, STATIC
        ARGFRAME DOVERLAY, 0, STATIC
        FUNCALL GAPBondMgr_ProcessEvent, gapBondFreeAuthEvt
        LOCFRAME ISTACK, 0, STACK
        LOCFRAME PSTACK, 0, STACK
        LOCFRAME XSTACK, 12, STACK
        LOCFRAME IOVERLAY, 0, STATIC
        LOCFRAME DOVERLAY, 0, STATIC
        ARGFRAME ISTACK, 0, STACK
        ARGFRAME PSTACK, 0, STACK
        ARGFRAME XSTACK, 12, STACK
        ARGFRAME IOVERLAY, 0, STATIC
        ARGFRAME DOVERLAY, 0, STATIC
        REQUIRE ?V0
        REQUIRE ?V1
        REQUIRE ?V2
        REQUIRE ?V3
        MOV     A,#-0xc
        LCALL   ?BANKED_ENTER_XDATA
          CFI DPH0 load(1, XDATA, add(CFA_XSP16, literal(-1)))
          CFI DPL0 load(1, XDATA, add(CFA_XSP16, literal(-2)))
          CFI ?BRET_EXT load(1, XDATA, add(CFA_XSP16, literal(-3)))
          CFI ?RET_HIGH load(1, XDATA, add(CFA_XSP16, literal(-4)))
          CFI ?RET_LOW load(1, XDATA, add(CFA_XSP16, literal(-5)))
          CFI R7 load(1, XDATA, add(CFA_XSP16, literal(-6)))
          CFI V3 load(1, XDATA, add(CFA_XSP16, literal(-7)))
          CFI V2 load(1, XDATA, add(CFA_XSP16, literal(-8)))
          CFI V1 load(1, XDATA, add(CFA_XSP16, literal(-9)))
          CFI V0 load(1, XDATA, add(CFA_XSP16, literal(-10)))
          CFI VB load(1, XDATA, add(CFA_XSP16, literal(-11)))
          CFI R6 load(1, XDATA, add(CFA_XSP16, literal(-12)))
          CFI CFA_SP SP+0
          CFI CFA_XSP16 add(XSP16, 12)
        ; Saved register size: 12
        ; Auto size: 0
        MOV     A,R2
        MOV     R6,A
        MOV     A,R3
        MOV     R7,A
// 1750   VOID task_id; // OSAL required parameter that isn't used in this function
// 1751 
// 1752   if ( events & SYS_EVENT_MSG )
        ANL     A,#0x80
        JNZ     $+5
        LJMP    ??GAPBondMgr_ProcessEvent_0 & 0xFFFF
// 1753   {
// 1754     uint8 *pMsg;
// 1755 
// 1756     if ( (pMsg = osal_msg_receive( gapBondMgr_TaskID )) != NULL )
        ; Setup parameters for call to function osal_msg_receive
        MOV     DPTR,#gapBondMgr_TaskID
        MOVX    A,@DPTR
        MOV     R1,A
        LCALL   ??osal_msg_receive?relay; Banked call to: osal_msg_receive
        MOV     ?V0,R2
        MOV     ?V1,R3
        MOV     A,R2
        ORL     A,?V1
        JZ      ??GAPBondMgr_ProcessEvent_1
// 1757     {
// 1758       if ( gapBondMgr_ProcessOSALMsg( (osal_event_hdr_t *)pMsg ) )
        MOV     R0,#0x1
        MOV     DPL,R2
        MOV     DPH,R3
        MOVX    A,@DPTR
        ADD     A,#0x50
        JZ      ??GAPBondMgr_ProcessEvent_2
        DEC     A
        JZ      ??GAPBondMgr_ProcessEvent_3
        ADD     A,#-0x1f
        JZ      ??GAPBondMgr_ProcessEvent_4
        SJMP    ??GAPBondMgr_ProcessEvent_5
??GAPBondMgr_ProcessEvent_3:
        INC     DPTR
        INC     DPTR
        INC     DPTR
        INC     DPTR
        MOVX    A,@DPTR
        JNZ     ??GAPBondMgr_ProcessEvent_6
        ; Setup parameters for call to function GAPBondMgr_UpdateCharCfg
        MOV     DPL,R2
        MOV     DPH,R3
        INC     DPTR
        INC     DPTR
        INC     DPTR
        INC     DPTR
        INC     DPTR
        INC     DPTR
        INC     DPTR
        LCALL   ?PUSH_XSTACK8_X_TWO
          CFI CFA_XSP16 add(XSP16, 14)
        MOV     DPL,R2
        MOV     DPH,R3
        INC     DPTR
        INC     DPTR
        INC     DPTR
        INC     DPTR
        INC     DPTR
        LCALL   ?Subroutine24 & 0xFFFF
??CrossCallReturnLabel_47:
        MOV     DPL,R2
        MOV     DPH,R3
        INC     DPTR
        INC     DPTR
        LCALL   ??Subroutine28_0 & 0xFFFF
??CrossCallReturnLabel_53:
        LCALL   ??GAPBondMgr_UpdateCharCfg?relay; Banked call to: GAPBondMgr_UpdateCharCfg
        MOV     A,#0x2
        LCALL   ?DEALLOC_XSTACK8
          CFI CFA_XSP16 add(XSP16, 12)
        SJMP    ??GAPBondMgr_ProcessEvent_6
??GAPBondMgr_ProcessEvent_2:
        INC     DPTR
        INC     DPTR
        INC     DPTR
        INC     DPTR
        MOVX    A,@DPTR
        XRL     A,#0x1e
        JNZ     ??GAPBondMgr_ProcessEvent_6
        ; Setup parameters for call to function GAPBondMgr_ServiceChangeInd
        MOV     R1,#0x0
        MOV     DPL,R2
        MOV     DPH,R3
        INC     DPTR
        INC     DPTR
        LCALL   ??Subroutine28_0 & 0xFFFF
??CrossCallReturnLabel_54:
        LCALL   ??GAPBondMgr_ServiceChangeInd?relay; Banked call to: GAPBondMgr_ServiceChangeInd
        SJMP    ??GAPBondMgr_ProcessEvent_6
??GAPBondMgr_ProcessEvent_4:
        ; Setup parameters for call to function GAPBondMgr_ProcessGAPMsg
        LCALL   ??GAPBondMgr_ProcessGAPMsg?relay; Banked call to: GAPBondMgr_ProcessGAPMsg
        MOV     A,R1
        MOV     R0,A
??GAPBondMgr_ProcessEvent_5:
        MOV     A,R0
        JZ      ??GAPBondMgr_ProcessEvent_1
// 1759       {
// 1760         // Release the OSAL message
// 1761         VOID osal_msg_deallocate( pMsg );
??GAPBondMgr_ProcessEvent_6:
        ; Setup parameters for call to function osal_msg_deallocate
        MOV     R2,?V0
        MOV     R3,?V1
        LCALL   ??osal_msg_deallocate?relay; Banked call to: osal_msg_deallocate
// 1762       }
// 1763     }
// 1764 
// 1765     // return unprocessed events
// 1766     return (events ^ SYS_EVENT_MSG);
??GAPBondMgr_ProcessEvent_1:
        MOV     A,R6
        MOV     R2,A
        MOV     A,R7
        XRL     A,#0x80
        SJMP    ??GAPBondMgr_ProcessEvent_7
// 1767   }
// 1768 
// 1769   if ( events & GAP_BOND_SAVE_REC_EVT )
??GAPBondMgr_ProcessEvent_0:
        MOV     A,R6
        ANL     A,#0x2
        JZ      ??GAPBondMgr_ProcessEvent_8
// 1770   {
// 1771     // Save bonding record in NV
// 1772     if ( gapBondMgrAddBond( NULL, NULL ) )
        ; Setup parameters for call to function gapBondMgrAddBond
        MOV     R4,#0x0
        MOV     R5,#0x0
        MOV     R2,#0x0
        MOV     R3,#0x0
        LCALL   ??gapBondMgrAddBond?relay; Banked call to: gapBondMgrAddBond
        MOV     A,R1
        JZ      ??GAPBondMgr_ProcessEvent_9
// 1773     {      
// 1774       // Notify our task to update NV with CCC values stored in GATT database
// 1775       osal_set_event( gapBondMgr_TaskID, GAP_BOND_SYNC_CC_EVT );
        ; Setup parameters for call to function osal_set_event
        MOV     R2,#0x1
        MOV     R3,#0x0
        MOV     DPTR,#gapBondMgr_TaskID
        MOVX    A,@DPTR
        MOV     R1,A
        LCALL   ??osal_set_event?relay; Banked call to: osal_set_event
// 1776            
// 1777       return (events ^ GAP_BOND_SAVE_REC_EVT);
        MOV     A,R6
        XRL     A,#0x2
        SJMP    ??GAPBondMgr_ProcessEvent_10
// 1778     }
// 1779 
// 1780     return ( GAP_BOND_SAVE_REC_EVT );
??GAPBondMgr_ProcessEvent_9:
        MOV     R2,#0x2
        SJMP    ??GAPBondMgr_ProcessEvent_11
// 1781   }
// 1782   
// 1783   if ( events & GAP_BOND_SYNC_CC_EVT )
??GAPBondMgr_ProcessEvent_8:
        MOV     A,R6
        MOV     C,0xE0 /* A   */.0
        JNC     ??GAPBondMgr_ProcessEvent_12
// 1784   {
// 1785     // Update NV to have same CCC values as GATT database
// 1786     // Note: pAuthEvt is a global variable used for deferring the storage
// 1787     if ( gapBondMgr_SyncCharCfg( pAuthEvt->connectionHandle ) )
        ; Setup parameters for call to function gapBondMgr_SyncCharCfg
        LCALL   ?Subroutine10 & 0xFFFF
??CrossCallReturnLabel_3:
        LCALL   ??gapBondMgr_SyncCharCfg?relay; Banked call to: gapBondMgr_SyncCharCfg
        MOV     A,R1
        JZ      ??GAPBondMgr_ProcessEvent_13
// 1788     {      
// 1789       if ( pGapBondCB && pGapBondCB->pairStateCB )
        LCALL   ?Subroutine7 & 0xFFFF
??CrossCallReturnLabel_76:
        JZ      ??GAPBondMgr_ProcessEvent_14
        LCALL   ?Subroutine12 & 0xFFFF
??CrossCallReturnLabel_6:
        MOV     ?V0,R0
        MOV     ?V1,R1
        MOV     A,R0
        ORL     A,?V1
        JZ      ??GAPBondMgr_ProcessEvent_14
// 1790       {
// 1791         // Assume SUCCESS since we got this far.
// 1792         pGapBondCB->pairStateCB( pAuthEvt->connectionHandle, GAPBOND_PAIRING_STATE_COMPLETE, SUCCESS );
        ; Setup parameters for indirect call
        MOV     R4,#0x0
        MOV     R1,#0x1
        LCALL   ?Subroutine10 & 0xFFFF
// 1793       }
??CrossCallReturnLabel_4:
        MOV     DPL,?V0
        MOV     DPH,?V1
        LCALL   ?CALL_IND
// 1794       
// 1795       // We're done storing bond record and CCC values in NV
// 1796       gapBondFreeAuthEvt();
??GAPBondMgr_ProcessEvent_14:
        ; Setup parameters for call to function gapBondFreeAuthEvt
        LCALL   ??gapBondFreeAuthEvt?relay; Banked call to: gapBondFreeAuthEvt
// 1797     
// 1798       return (events ^ GAP_BOND_SYNC_CC_EVT);
        MOV     A,R6
        XRL     A,#0x1
??GAPBondMgr_ProcessEvent_10:
        MOV     R2,A
        MOV     A,R7
??GAPBondMgr_ProcessEvent_7:
        MOV     R3,A
        SJMP    ??GAPBondMgr_ProcessEvent_15
// 1799     }
// 1800     
// 1801     return ( GAP_BOND_SYNC_CC_EVT );
??GAPBondMgr_ProcessEvent_13:
        MOV     R2,#0x1
        SJMP    ??GAPBondMgr_ProcessEvent_11
// 1802   }
// 1803 
// 1804   // Discard unknown events
// 1805   return 0;
??GAPBondMgr_ProcessEvent_12:
        MOV     R2,#0x0
??GAPBondMgr_ProcessEvent_11:
        MOV     R3,#0x0
??GAPBondMgr_ProcessEvent_15:
        LJMP    ??Subroutine30_0 & 0xFFFF
          CFI EndBlock cfiBlock78
// 1806 }

        RSEG BANKED_CODE:CODE:NOROOT(0)
?Subroutine12:
          CFI Block cfiCond79 Using cfiCommon0
          CFI Function GAPBondMgr_LinkEst
          CFI Conditional ??CrossCallReturnLabel_5
          CFI R6 load(1, XDATA, add(CFA_XSP16, literal(-15)))
          CFI VB load(1, XDATA, add(CFA_XSP16, literal(-14)))
          CFI V0 load(1, XDATA, add(CFA_XSP16, literal(-13)))
          CFI V1 load(1, XDATA, add(CFA_XSP16, literal(-12)))
          CFI V2 load(1, XDATA, add(CFA_XSP16, literal(-11)))
          CFI V3 load(1, XDATA, add(CFA_XSP16, literal(-10)))
          CFI V4 load(1, XDATA, add(CFA_XSP16, literal(-9)))
          CFI V5 load(1, XDATA, add(CFA_XSP16, literal(-8)))
          CFI V6 load(1, XDATA, add(CFA_XSP16, literal(-7)))
          CFI R7 load(1, XDATA, add(CFA_XSP16, literal(-6)))
          CFI ?RET_LOW load(1, XDATA, add(CFA_XSP16, literal(-5)))
          CFI ?RET_HIGH load(1, XDATA, add(CFA_XSP16, literal(-4)))
          CFI ?BRET_EXT load(1, XDATA, add(CFA_XSP16, literal(-3)))
          CFI DPL0 load(1, XDATA, add(CFA_XSP16, literal(-2)))
          CFI DPH0 load(1, XDATA, add(CFA_XSP16, literal(-1)))
          CFI CFA_SP SP+-2
          CFI CFA_XSP16 add(XSP16, 53)
          CFI Block cfiCond80 Using cfiCommon0
          CFI (cfiCond80) Function GAPBondMgr_ProcessEvent
          CFI (cfiCond80) Conditional ??CrossCallReturnLabel_6
          CFI (cfiCond80) R6 load(1, XDATA, add(CFA_XSP16, literal(-12)))
          CFI (cfiCond80) VB load(1, XDATA, add(CFA_XSP16, literal(-11)))
          CFI (cfiCond80) V0 load(1, XDATA, add(CFA_XSP16, literal(-10)))
          CFI (cfiCond80) V1 load(1, XDATA, add(CFA_XSP16, literal(-9)))
          CFI (cfiCond80) V2 load(1, XDATA, add(CFA_XSP16, literal(-8)))
          CFI (cfiCond80) V3 load(1, XDATA, add(CFA_XSP16, literal(-7)))
          CFI (cfiCond80) R7 load(1, XDATA, add(CFA_XSP16, literal(-6)))
          CFI (cfiCond80) ?RET_LOW load(1, XDATA, add(CFA_XSP16, literal(-5)))
          CFI (cfiCond80) ?RET_HIGH load(1, XDATA, add(CFA_XSP16, literal(-4)))
          CFI (cfiCond80) ?BRET_EXT load(1, XDATA, add(CFA_XSP16, literal(-3)))
          CFI (cfiCond80) DPL0 load(1, XDATA, add(CFA_XSP16, literal(-2)))
          CFI (cfiCond80) DPH0 load(1, XDATA, add(CFA_XSP16, literal(-1)))
          CFI (cfiCond80) CFA_SP SP+-2
          CFI (cfiCond80) CFA_XSP16 add(XSP16, 12)
          CFI Block cfiPicker81 Using cfiCommon1
          CFI (cfiPicker81) NoFunction
          CFI (cfiPicker81) Picker
        LCALL   ?Subroutine22 & 0xFFFF
??CrossCallReturnLabel_81:
        RET
          CFI EndBlock cfiCond79
          CFI EndBlock cfiCond80
          CFI EndBlock cfiPicker81

        RSEG BANKED_CODE:CODE:NOROOT(0)
?Subroutine22:
          CFI Block cfiCond82 Using cfiCommon0
          CFI Function GAPBondMgr_ProcessGAPMsg
          CFI Conditional ??CrossCallReturnLabel_80, ??CrossCallReturnLabel_0
          CFI R6 load(1, XDATA, add(CFA_XSP16, literal(-16)))
          CFI VB load(1, XDATA, add(CFA_XSP16, literal(-15)))
          CFI V0 load(1, XDATA, add(CFA_XSP16, literal(-14)))
          CFI V1 load(1, XDATA, add(CFA_XSP16, literal(-13)))
          CFI V2 load(1, XDATA, add(CFA_XSP16, literal(-12)))
          CFI V3 load(1, XDATA, add(CFA_XSP16, literal(-11)))
          CFI V4 load(1, XDATA, add(CFA_XSP16, literal(-10)))
          CFI V5 load(1, XDATA, add(CFA_XSP16, literal(-9)))
          CFI V6 load(1, XDATA, add(CFA_XSP16, literal(-8)))
          CFI V7 load(1, XDATA, add(CFA_XSP16, literal(-7)))
          CFI R7 load(1, XDATA, add(CFA_XSP16, literal(-6)))
          CFI ?RET_LOW load(1, XDATA, add(CFA_XSP16, literal(-5)))
          CFI ?RET_HIGH load(1, XDATA, add(CFA_XSP16, literal(-4)))
          CFI ?BRET_EXT load(1, XDATA, add(CFA_XSP16, literal(-3)))
          CFI DPL0 load(1, XDATA, add(CFA_XSP16, literal(-2)))
          CFI DPH0 load(1, XDATA, add(CFA_XSP16, literal(-1)))
          CFI CFA_SP SP+-4
          CFI CFA_XSP16 add(XSP16, 36)
          CFI Block cfiCond83 Using cfiCommon0
          CFI (cfiCond83) Function GAPBondMgr_ProcessGAPMsg
          CFI (cfiCond83) Conditional ??CrossCallReturnLabel_80, ??CrossCallReturnLabel_1
          CFI (cfiCond83) R6 load(1, XDATA, add(CFA_XSP16, literal(-16)))
          CFI (cfiCond83) VB load(1, XDATA, add(CFA_XSP16, literal(-15)))
          CFI (cfiCond83) V0 load(1, XDATA, add(CFA_XSP16, literal(-14)))
          CFI (cfiCond83) V1 load(1, XDATA, add(CFA_XSP16, literal(-13)))
          CFI (cfiCond83) V2 load(1, XDATA, add(CFA_XSP16, literal(-12)))
          CFI (cfiCond83) V3 load(1, XDATA, add(CFA_XSP16, literal(-11)))
          CFI (cfiCond83) V4 load(1, XDATA, add(CFA_XSP16, literal(-10)))
          CFI (cfiCond83) V5 load(1, XDATA, add(CFA_XSP16, literal(-9)))
          CFI (cfiCond83) V6 load(1, XDATA, add(CFA_XSP16, literal(-8)))
          CFI (cfiCond83) V7 load(1, XDATA, add(CFA_XSP16, literal(-7)))
          CFI (cfiCond83) R7 load(1, XDATA, add(CFA_XSP16, literal(-6)))
          CFI (cfiCond83) ?RET_LOW load(1, XDATA, add(CFA_XSP16, literal(-5)))
          CFI (cfiCond83) ?RET_HIGH load(1, XDATA, add(CFA_XSP16, literal(-4)))
          CFI (cfiCond83) ?BRET_EXT load(1, XDATA, add(CFA_XSP16, literal(-3)))
          CFI (cfiCond83) DPL0 load(1, XDATA, add(CFA_XSP16, literal(-2)))
          CFI (cfiCond83) DPH0 load(1, XDATA, add(CFA_XSP16, literal(-1)))
          CFI (cfiCond83) CFA_SP SP+-4
          CFI (cfiCond83) CFA_XSP16 add(XSP16, 36)
          CFI Block cfiCond84 Using cfiCommon0
          CFI (cfiCond84) Function GAPBondMgr_ProcessGAPMsg
          CFI (cfiCond84) Conditional ??CrossCallReturnLabel_80, ??CrossCallReturnLabel_2
          CFI (cfiCond84) R6 load(1, XDATA, add(CFA_XSP16, literal(-16)))
          CFI (cfiCond84) VB load(1, XDATA, add(CFA_XSP16, literal(-15)))
          CFI (cfiCond84) V0 load(1, XDATA, add(CFA_XSP16, literal(-14)))
          CFI (cfiCond84) V1 load(1, XDATA, add(CFA_XSP16, literal(-13)))
          CFI (cfiCond84) V2 load(1, XDATA, add(CFA_XSP16, literal(-12)))
          CFI (cfiCond84) V3 load(1, XDATA, add(CFA_XSP16, literal(-11)))
          CFI (cfiCond84) V4 load(1, XDATA, add(CFA_XSP16, literal(-10)))
          CFI (cfiCond84) V5 load(1, XDATA, add(CFA_XSP16, literal(-9)))
          CFI (cfiCond84) V6 load(1, XDATA, add(CFA_XSP16, literal(-8)))
          CFI (cfiCond84) V7 load(1, XDATA, add(CFA_XSP16, literal(-7)))
          CFI (cfiCond84) R7 load(1, XDATA, add(CFA_XSP16, literal(-6)))
          CFI (cfiCond84) ?RET_LOW load(1, XDATA, add(CFA_XSP16, literal(-5)))
          CFI (cfiCond84) ?RET_HIGH load(1, XDATA, add(CFA_XSP16, literal(-4)))
          CFI (cfiCond84) ?BRET_EXT load(1, XDATA, add(CFA_XSP16, literal(-3)))
          CFI (cfiCond84) DPL0 load(1, XDATA, add(CFA_XSP16, literal(-2)))
          CFI (cfiCond84) DPH0 load(1, XDATA, add(CFA_XSP16, literal(-1)))
          CFI (cfiCond84) CFA_SP SP+-4
          CFI (cfiCond84) CFA_XSP16 add(XSP16, 36)
          CFI Block cfiCond85 Using cfiCommon0
          CFI (cfiCond85) Function GAPBondMgr_LinkEst
          CFI (cfiCond85) Conditional ??CrossCallReturnLabel_81, ??CrossCallReturnLabel_5
          CFI (cfiCond85) R6 load(1, XDATA, add(CFA_XSP16, literal(-15)))
          CFI (cfiCond85) VB load(1, XDATA, add(CFA_XSP16, literal(-14)))
          CFI (cfiCond85) V0 load(1, XDATA, add(CFA_XSP16, literal(-13)))
          CFI (cfiCond85) V1 load(1, XDATA, add(CFA_XSP16, literal(-12)))
          CFI (cfiCond85) V2 load(1, XDATA, add(CFA_XSP16, literal(-11)))
          CFI (cfiCond85) V3 load(1, XDATA, add(CFA_XSP16, literal(-10)))
          CFI (cfiCond85) V4 load(1, XDATA, add(CFA_XSP16, literal(-9)))
          CFI (cfiCond85) V5 load(1, XDATA, add(CFA_XSP16, literal(-8)))
          CFI (cfiCond85) V6 load(1, XDATA, add(CFA_XSP16, literal(-7)))
          CFI (cfiCond85) R7 load(1, XDATA, add(CFA_XSP16, literal(-6)))
          CFI (cfiCond85) ?RET_LOW load(1, XDATA, add(CFA_XSP16, literal(-5)))
          CFI (cfiCond85) ?RET_HIGH load(1, XDATA, add(CFA_XSP16, literal(-4)))
          CFI (cfiCond85) ?BRET_EXT load(1, XDATA, add(CFA_XSP16, literal(-3)))
          CFI (cfiCond85) DPL0 load(1, XDATA, add(CFA_XSP16, literal(-2)))
          CFI (cfiCond85) DPH0 load(1, XDATA, add(CFA_XSP16, literal(-1)))
          CFI (cfiCond85) CFA_SP SP+-4
          CFI (cfiCond85) CFA_XSP16 add(XSP16, 53)
          CFI Block cfiCond86 Using cfiCommon0
          CFI (cfiCond86) Function GAPBondMgr_ProcessEvent
          CFI (cfiCond86) Conditional ??CrossCallReturnLabel_81, ??CrossCallReturnLabel_6
          CFI (cfiCond86) R6 load(1, XDATA, add(CFA_XSP16, literal(-12)))
          CFI (cfiCond86) VB load(1, XDATA, add(CFA_XSP16, literal(-11)))
          CFI (cfiCond86) V0 load(1, XDATA, add(CFA_XSP16, literal(-10)))
          CFI (cfiCond86) V1 load(1, XDATA, add(CFA_XSP16, literal(-9)))
          CFI (cfiCond86) V2 load(1, XDATA, add(CFA_XSP16, literal(-8)))
          CFI (cfiCond86) V3 load(1, XDATA, add(CFA_XSP16, literal(-7)))
          CFI (cfiCond86) R7 load(1, XDATA, add(CFA_XSP16, literal(-6)))
          CFI (cfiCond86) ?RET_LOW load(1, XDATA, add(CFA_XSP16, literal(-5)))
          CFI (cfiCond86) ?RET_HIGH load(1, XDATA, add(CFA_XSP16, literal(-4)))
          CFI (cfiCond86) ?BRET_EXT load(1, XDATA, add(CFA_XSP16, literal(-3)))
          CFI (cfiCond86) DPL0 load(1, XDATA, add(CFA_XSP16, literal(-2)))
          CFI (cfiCond86) DPH0 load(1, XDATA, add(CFA_XSP16, literal(-1)))
          CFI (cfiCond86) CFA_SP SP+-4
          CFI (cfiCond86) CFA_XSP16 add(XSP16, 12)
          CFI Block cfiPicker87 Using cfiCommon1
          CFI (cfiPicker87) NoFunction
          CFI (cfiPicker87) Picker
        MOVX    A,@DPTR
        MOV     DPH,A
        MOV     DPL,R0
        INC     DPTR
        INC     DPTR
          CFI EndBlock cfiCond82
          CFI EndBlock cfiCond83
          CFI EndBlock cfiCond84
          CFI EndBlock cfiCond85
          CFI EndBlock cfiCond86
          CFI EndBlock cfiPicker87
        REQUIRE ??Subroutine26_0
        ; // Fall through to label ??Subroutine26_0

        RSEG BANKED_CODE:CODE:NOROOT(0)
??Subroutine26_0:
          CFI Block cfiCond88 Using cfiCommon0
          CFI Function GAPBondMgr_SetParameter
          CFI Conditional ??CrossCallReturnLabel_77
          CFI R6 load(1, XDATA, add(CFA_XSP16, literal(-16)))
          CFI VB load(1, XDATA, add(CFA_XSP16, literal(-15)))
          CFI V0 load(1, XDATA, add(CFA_XSP16, literal(-14)))
          CFI V1 load(1, XDATA, add(CFA_XSP16, literal(-13)))
          CFI V2 load(1, XDATA, add(CFA_XSP16, literal(-12)))
          CFI V3 load(1, XDATA, add(CFA_XSP16, literal(-11)))
          CFI V4 load(1, XDATA, add(CFA_XSP16, literal(-10)))
          CFI V5 load(1, XDATA, add(CFA_XSP16, literal(-9)))
          CFI V6 load(1, XDATA, add(CFA_XSP16, literal(-8)))
          CFI V7 load(1, XDATA, add(CFA_XSP16, literal(-7)))
          CFI R7 load(1, XDATA, add(CFA_XSP16, literal(-6)))
          CFI ?RET_LOW load(1, XDATA, add(CFA_XSP16, literal(-5)))
          CFI ?RET_HIGH load(1, XDATA, add(CFA_XSP16, literal(-4)))
          CFI ?BRET_EXT load(1, XDATA, add(CFA_XSP16, literal(-3)))
          CFI DPL0 load(1, XDATA, add(CFA_XSP16, literal(-2)))
          CFI DPH0 load(1, XDATA, add(CFA_XSP16, literal(-1)))
          CFI CFA_SP SP+-2
          CFI CFA_XSP16 add(XSP16, 22)
          CFI Block cfiCond89 Using cfiCommon0
          CFI (cfiCond89) Function GAPBondMgr_GetParameter
          CFI (cfiCond89) Conditional ??CrossCallReturnLabel_78
          CFI (cfiCond89) R6 load(1, XDATA, add(CFA_XSP16, literal(-12)))
          CFI (cfiCond89) VB load(1, XDATA, add(CFA_XSP16, literal(-11)))
          CFI (cfiCond89) V0 load(1, XDATA, add(CFA_XSP16, literal(-10)))
          CFI (cfiCond89) V1 load(1, XDATA, add(CFA_XSP16, literal(-9)))
          CFI (cfiCond89) V2 load(1, XDATA, add(CFA_XSP16, literal(-8)))
          CFI (cfiCond89) V3 load(1, XDATA, add(CFA_XSP16, literal(-7)))
          CFI (cfiCond89) R7 load(1, XDATA, add(CFA_XSP16, literal(-6)))
          CFI (cfiCond89) ?RET_LOW load(1, XDATA, add(CFA_XSP16, literal(-5)))
          CFI (cfiCond89) ?RET_HIGH load(1, XDATA, add(CFA_XSP16, literal(-4)))
          CFI (cfiCond89) ?BRET_EXT load(1, XDATA, add(CFA_XSP16, literal(-3)))
          CFI (cfiCond89) DPL0 load(1, XDATA, add(CFA_XSP16, literal(-2)))
          CFI (cfiCond89) DPH0 load(1, XDATA, add(CFA_XSP16, literal(-1)))
          CFI (cfiCond89) CFA_SP SP+-2
          CFI (cfiCond89) CFA_XSP16 add(XSP16, 12)
          CFI Block cfiCond90 Using cfiCommon0
          CFI (cfiCond90) Function gapBondMgrChangeState
          CFI (cfiCond90) Conditional ??CrossCallReturnLabel_79
          CFI (cfiCond90) R6 load(1, XDATA, add(CFA_XSP16, literal(-12)))
          CFI (cfiCond90) VB load(1, XDATA, add(CFA_XSP16, literal(-11)))
          CFI (cfiCond90) V0 load(1, XDATA, add(CFA_XSP16, literal(-10)))
          CFI (cfiCond90) V1 load(1, XDATA, add(CFA_XSP16, literal(-9)))
          CFI (cfiCond90) V2 load(1, XDATA, add(CFA_XSP16, literal(-8)))
          CFI (cfiCond90) V3 load(1, XDATA, add(CFA_XSP16, literal(-7)))
          CFI (cfiCond90) R7 load(1, XDATA, add(CFA_XSP16, literal(-6)))
          CFI (cfiCond90) ?RET_LOW load(1, XDATA, add(CFA_XSP16, literal(-5)))
          CFI (cfiCond90) ?RET_HIGH load(1, XDATA, add(CFA_XSP16, literal(-4)))
          CFI (cfiCond90) ?BRET_EXT load(1, XDATA, add(CFA_XSP16, literal(-3)))
          CFI (cfiCond90) DPL0 load(1, XDATA, add(CFA_XSP16, literal(-2)))
          CFI (cfiCond90) DPH0 load(1, XDATA, add(CFA_XSP16, literal(-1)))
          CFI (cfiCond90) CFA_SP SP+-2
          CFI (cfiCond90) CFA_XSP16 add(XSP16, 26)
          CFI Block cfiCond91 Using cfiCommon0
          CFI (cfiCond91) Function GAPBondMgr_LinkEst
          CFI (cfiCond91) Conditional ??CrossCallReturnLabel_82, ??CrossCallReturnLabel_71
          CFI (cfiCond91) R6 load(1, XDATA, add(CFA_XSP16, literal(-15)))
          CFI (cfiCond91) VB load(1, XDATA, add(CFA_XSP16, literal(-14)))
          CFI (cfiCond91) V0 load(1, XDATA, add(CFA_XSP16, literal(-13)))
          CFI (cfiCond91) V1 load(1, XDATA, add(CFA_XSP16, literal(-12)))
          CFI (cfiCond91) V2 load(1, XDATA, add(CFA_XSP16, literal(-11)))
          CFI (cfiCond91) V3 load(1, XDATA, add(CFA_XSP16, literal(-10)))
          CFI (cfiCond91) V4 load(1, XDATA, add(CFA_XSP16, literal(-9)))
          CFI (cfiCond91) V5 load(1, XDATA, add(CFA_XSP16, literal(-8)))
          CFI (cfiCond91) V6 load(1, XDATA, add(CFA_XSP16, literal(-7)))
          CFI (cfiCond91) R7 load(1, XDATA, add(CFA_XSP16, literal(-6)))
          CFI (cfiCond91) ?RET_LOW load(1, XDATA, add(CFA_XSP16, literal(-5)))
          CFI (cfiCond91) ?RET_HIGH load(1, XDATA, add(CFA_XSP16, literal(-4)))
          CFI (cfiCond91) ?BRET_EXT load(1, XDATA, add(CFA_XSP16, literal(-3)))
          CFI (cfiCond91) DPL0 load(1, XDATA, add(CFA_XSP16, literal(-2)))
          CFI (cfiCond91) DPH0 load(1, XDATA, add(CFA_XSP16, literal(-1)))
          CFI (cfiCond91) CFA_SP SP+-4
          CFI (cfiCond91) CFA_XSP16 add(XSP16, 53)
          CFI Block cfiCond92 Using cfiCommon0
          CFI (cfiCond92) Function GAPBondMgr_ProcessGAPMsg
          CFI (cfiCond92) Conditional ??CrossCallReturnLabel_82, ??CrossCallReturnLabel_72
          CFI (cfiCond92) R6 load(1, XDATA, add(CFA_XSP16, literal(-16)))
          CFI (cfiCond92) VB load(1, XDATA, add(CFA_XSP16, literal(-15)))
          CFI (cfiCond92) V0 load(1, XDATA, add(CFA_XSP16, literal(-14)))
          CFI (cfiCond92) V1 load(1, XDATA, add(CFA_XSP16, literal(-13)))
          CFI (cfiCond92) V2 load(1, XDATA, add(CFA_XSP16, literal(-12)))
          CFI (cfiCond92) V3 load(1, XDATA, add(CFA_XSP16, literal(-11)))
          CFI (cfiCond92) V4 load(1, XDATA, add(CFA_XSP16, literal(-10)))
          CFI (cfiCond92) V5 load(1, XDATA, add(CFA_XSP16, literal(-9)))
          CFI (cfiCond92) V6 load(1, XDATA, add(CFA_XSP16, literal(-8)))
          CFI (cfiCond92) V7 load(1, XDATA, add(CFA_XSP16, literal(-7)))
          CFI (cfiCond92) R7 load(1, XDATA, add(CFA_XSP16, literal(-6)))
          CFI (cfiCond92) ?RET_LOW load(1, XDATA, add(CFA_XSP16, literal(-5)))
          CFI (cfiCond92) ?RET_HIGH load(1, XDATA, add(CFA_XSP16, literal(-4)))
          CFI (cfiCond92) ?BRET_EXT load(1, XDATA, add(CFA_XSP16, literal(-3)))
          CFI (cfiCond92) DPL0 load(1, XDATA, add(CFA_XSP16, literal(-2)))
          CFI (cfiCond92) DPH0 load(1, XDATA, add(CFA_XSP16, literal(-1)))
          CFI (cfiCond92) CFA_SP SP+-4
          CFI (cfiCond92) CFA_XSP16 add(XSP16, 36)
          CFI Block cfiCond93 Using cfiCommon0
          CFI (cfiCond93) Function GAPBondMgr_ProcessGAPMsg
          CFI (cfiCond93) Conditional ??CrossCallReturnLabel_82, ??CrossCallReturnLabel_73
          CFI (cfiCond93) R6 load(1, XDATA, add(CFA_XSP16, literal(-16)))
          CFI (cfiCond93) VB load(1, XDATA, add(CFA_XSP16, literal(-15)))
          CFI (cfiCond93) V0 load(1, XDATA, add(CFA_XSP16, literal(-14)))
          CFI (cfiCond93) V1 load(1, XDATA, add(CFA_XSP16, literal(-13)))
          CFI (cfiCond93) V2 load(1, XDATA, add(CFA_XSP16, literal(-12)))
          CFI (cfiCond93) V3 load(1, XDATA, add(CFA_XSP16, literal(-11)))
          CFI (cfiCond93) V4 load(1, XDATA, add(CFA_XSP16, literal(-10)))
          CFI (cfiCond93) V5 load(1, XDATA, add(CFA_XSP16, literal(-9)))
          CFI (cfiCond93) V6 load(1, XDATA, add(CFA_XSP16, literal(-8)))
          CFI (cfiCond93) V7 load(1, XDATA, add(CFA_XSP16, literal(-7)))
          CFI (cfiCond93) R7 load(1, XDATA, add(CFA_XSP16, literal(-6)))
          CFI (cfiCond93) ?RET_LOW load(1, XDATA, add(CFA_XSP16, literal(-5)))
          CFI (cfiCond93) ?RET_HIGH load(1, XDATA, add(CFA_XSP16, literal(-4)))
          CFI (cfiCond93) ?BRET_EXT load(1, XDATA, add(CFA_XSP16, literal(-3)))
          CFI (cfiCond93) DPL0 load(1, XDATA, add(CFA_XSP16, literal(-2)))
          CFI (cfiCond93) DPH0 load(1, XDATA, add(CFA_XSP16, literal(-1)))
          CFI (cfiCond93) CFA_SP SP+-4
          CFI (cfiCond93) CFA_XSP16 add(XSP16, 36)
          CFI Block cfiCond94 Using cfiCommon0
          CFI (cfiCond94) Function GAPBondMgr_ProcessGAPMsg
          CFI (cfiCond94) Conditional ??CrossCallReturnLabel_82, ??CrossCallReturnLabel_74
          CFI (cfiCond94) R6 load(1, XDATA, add(CFA_XSP16, literal(-16)))
          CFI (cfiCond94) VB load(1, XDATA, add(CFA_XSP16, literal(-15)))
          CFI (cfiCond94) V0 load(1, XDATA, add(CFA_XSP16, literal(-14)))
          CFI (cfiCond94) V1 load(1, XDATA, add(CFA_XSP16, literal(-13)))
          CFI (cfiCond94) V2 load(1, XDATA, add(CFA_XSP16, literal(-12)))
          CFI (cfiCond94) V3 load(1, XDATA, add(CFA_XSP16, literal(-11)))
          CFI (cfiCond94) V4 load(1, XDATA, add(CFA_XSP16, literal(-10)))
          CFI (cfiCond94) V5 load(1, XDATA, add(CFA_XSP16, literal(-9)))
          CFI (cfiCond94) V6 load(1, XDATA, add(CFA_XSP16, literal(-8)))
          CFI (cfiCond94) V7 load(1, XDATA, add(CFA_XSP16, literal(-7)))
          CFI (cfiCond94) R7 load(1, XDATA, add(CFA_XSP16, literal(-6)))
          CFI (cfiCond94) ?RET_LOW load(1, XDATA, add(CFA_XSP16, literal(-5)))
          CFI (cfiCond94) ?RET_HIGH load(1, XDATA, add(CFA_XSP16, literal(-4)))
          CFI (cfiCond94) ?BRET_EXT load(1, XDATA, add(CFA_XSP16, literal(-3)))
          CFI (cfiCond94) DPL0 load(1, XDATA, add(CFA_XSP16, literal(-2)))
          CFI (cfiCond94) DPH0 load(1, XDATA, add(CFA_XSP16, literal(-1)))
          CFI (cfiCond94) CFA_SP SP+-4
          CFI (cfiCond94) CFA_XSP16 add(XSP16, 36)
          CFI Block cfiCond95 Using cfiCommon0
          CFI (cfiCond95) Function GAPBondMgr_ProcessGAPMsg
          CFI (cfiCond95) Conditional ??CrossCallReturnLabel_82, ??CrossCallReturnLabel_75
          CFI (cfiCond95) R6 load(1, XDATA, add(CFA_XSP16, literal(-16)))
          CFI (cfiCond95) VB load(1, XDATA, add(CFA_XSP16, literal(-15)))
          CFI (cfiCond95) V0 load(1, XDATA, add(CFA_XSP16, literal(-14)))
          CFI (cfiCond95) V1 load(1, XDATA, add(CFA_XSP16, literal(-13)))
          CFI (cfiCond95) V2 load(1, XDATA, add(CFA_XSP16, literal(-12)))
          CFI (cfiCond95) V3 load(1, XDATA, add(CFA_XSP16, literal(-11)))
          CFI (cfiCond95) V4 load(1, XDATA, add(CFA_XSP16, literal(-10)))
          CFI (cfiCond95) V5 load(1, XDATA, add(CFA_XSP16, literal(-9)))
          CFI (cfiCond95) V6 load(1, XDATA, add(CFA_XSP16, literal(-8)))
          CFI (cfiCond95) V7 load(1, XDATA, add(CFA_XSP16, literal(-7)))
          CFI (cfiCond95) R7 load(1, XDATA, add(CFA_XSP16, literal(-6)))
          CFI (cfiCond95) ?RET_LOW load(1, XDATA, add(CFA_XSP16, literal(-5)))
          CFI (cfiCond95) ?RET_HIGH load(1, XDATA, add(CFA_XSP16, literal(-4)))
          CFI (cfiCond95) ?BRET_EXT load(1, XDATA, add(CFA_XSP16, literal(-3)))
          CFI (cfiCond95) DPL0 load(1, XDATA, add(CFA_XSP16, literal(-2)))
          CFI (cfiCond95) DPH0 load(1, XDATA, add(CFA_XSP16, literal(-1)))
          CFI (cfiCond95) CFA_SP SP+-4
          CFI (cfiCond95) CFA_XSP16 add(XSP16, 36)
          CFI Block cfiCond96 Using cfiCommon0
          CFI (cfiCond96) Function GAPBondMgr_ProcessEvent
          CFI (cfiCond96) Conditional ??CrossCallReturnLabel_82, ??CrossCallReturnLabel_76
          CFI (cfiCond96) R6 load(1, XDATA, add(CFA_XSP16, literal(-12)))
          CFI (cfiCond96) VB load(1, XDATA, add(CFA_XSP16, literal(-11)))
          CFI (cfiCond96) V0 load(1, XDATA, add(CFA_XSP16, literal(-10)))
          CFI (cfiCond96) V1 load(1, XDATA, add(CFA_XSP16, literal(-9)))
          CFI (cfiCond96) V2 load(1, XDATA, add(CFA_XSP16, literal(-8)))
          CFI (cfiCond96) V3 load(1, XDATA, add(CFA_XSP16, literal(-7)))
          CFI (cfiCond96) R7 load(1, XDATA, add(CFA_XSP16, literal(-6)))
          CFI (cfiCond96) ?RET_LOW load(1, XDATA, add(CFA_XSP16, literal(-5)))
          CFI (cfiCond96) ?RET_HIGH load(1, XDATA, add(CFA_XSP16, literal(-4)))
          CFI (cfiCond96) ?BRET_EXT load(1, XDATA, add(CFA_XSP16, literal(-3)))
          CFI (cfiCond96) DPL0 load(1, XDATA, add(CFA_XSP16, literal(-2)))
          CFI (cfiCond96) DPH0 load(1, XDATA, add(CFA_XSP16, literal(-1)))
          CFI (cfiCond96) CFA_SP SP+-4
          CFI (cfiCond96) CFA_XSP16 add(XSP16, 12)
          CFI Block cfiCond97 Using cfiCommon0
          CFI (cfiCond97) Function GAPBondMgr_ProcessGAPMsg
          CFI (cfiCond97) Conditional ??CrossCallReturnLabel_82, ??CrossCallReturnLabel_65
          CFI (cfiCond97) R6 load(1, XDATA, add(CFA_XSP16, literal(-16)))
          CFI (cfiCond97) VB load(1, XDATA, add(CFA_XSP16, literal(-15)))
          CFI (cfiCond97) V0 load(1, XDATA, add(CFA_XSP16, literal(-14)))
          CFI (cfiCond97) V1 load(1, XDATA, add(CFA_XSP16, literal(-13)))
          CFI (cfiCond97) V2 load(1, XDATA, add(CFA_XSP16, literal(-12)))
          CFI (cfiCond97) V3 load(1, XDATA, add(CFA_XSP16, literal(-11)))
          CFI (cfiCond97) V4 load(1, XDATA, add(CFA_XSP16, literal(-10)))
          CFI (cfiCond97) V5 load(1, XDATA, add(CFA_XSP16, literal(-9)))
          CFI (cfiCond97) V6 load(1, XDATA, add(CFA_XSP16, literal(-8)))
          CFI (cfiCond97) V7 load(1, XDATA, add(CFA_XSP16, literal(-7)))
          CFI (cfiCond97) R7 load(1, XDATA, add(CFA_XSP16, literal(-6)))
          CFI (cfiCond97) ?RET_LOW load(1, XDATA, add(CFA_XSP16, literal(-5)))
          CFI (cfiCond97) ?RET_HIGH load(1, XDATA, add(CFA_XSP16, literal(-4)))
          CFI (cfiCond97) ?BRET_EXT load(1, XDATA, add(CFA_XSP16, literal(-3)))
          CFI (cfiCond97) DPL0 load(1, XDATA, add(CFA_XSP16, literal(-2)))
          CFI (cfiCond97) DPH0 load(1, XDATA, add(CFA_XSP16, literal(-1)))
          CFI (cfiCond97) CFA_SP SP+-4
          CFI (cfiCond97) CFA_XSP16 add(XSP16, 36)
          CFI Block cfiCond98 Using cfiCommon0
          CFI (cfiCond98) Function gapBondMgrAddBond
          CFI (cfiCond98) Conditional ??CrossCallReturnLabel_82, ??CrossCallReturnLabel_66
          CFI (cfiCond98) R6 load(1, XDATA, add(CFA_XSP16, literal(-12)))
          CFI (cfiCond98) VB load(1, XDATA, add(CFA_XSP16, literal(-11)))
          CFI (cfiCond98) V0 load(1, XDATA, add(CFA_XSP16, literal(-10)))
          CFI (cfiCond98) V1 load(1, XDATA, add(CFA_XSP16, literal(-9)))
          CFI (cfiCond98) V2 load(1, XDATA, add(CFA_XSP16, literal(-8)))
          CFI (cfiCond98) V3 load(1, XDATA, add(CFA_XSP16, literal(-7)))
          CFI (cfiCond98) R7 load(1, XDATA, add(CFA_XSP16, literal(-6)))
          CFI (cfiCond98) ?RET_LOW load(1, XDATA, add(CFA_XSP16, literal(-5)))
          CFI (cfiCond98) ?RET_HIGH load(1, XDATA, add(CFA_XSP16, literal(-4)))
          CFI (cfiCond98) ?BRET_EXT load(1, XDATA, add(CFA_XSP16, literal(-3)))
          CFI (cfiCond98) DPL0 load(1, XDATA, add(CFA_XSP16, literal(-2)))
          CFI (cfiCond98) DPH0 load(1, XDATA, add(CFA_XSP16, literal(-1)))
          CFI (cfiCond98) CFA_SP SP+-4
          CFI (cfiCond98) CFA_XSP16 add(XSP16, 24)
          CFI Block cfiCond99 Using cfiCommon0
          CFI (cfiCond99) Function gapBondMgr_SyncCharCfg
          CFI (cfiCond99) Conditional ??CrossCallReturnLabel_82, ??CrossCallReturnLabel_67
          CFI (cfiCond99) R6 load(1, XDATA, add(CFA_XSP16, literal(-10)))
          CFI (cfiCond99) VB load(1, XDATA, add(CFA_XSP16, literal(-9)))
          CFI (cfiCond99) V0 load(1, XDATA, add(CFA_XSP16, literal(-8)))
          CFI (cfiCond99) V1 load(1, XDATA, add(CFA_XSP16, literal(-7)))
          CFI (cfiCond99) R7 load(1, XDATA, add(CFA_XSP16, literal(-6)))
          CFI (cfiCond99) ?RET_LOW load(1, XDATA, add(CFA_XSP16, literal(-5)))
          CFI (cfiCond99) ?RET_HIGH load(1, XDATA, add(CFA_XSP16, literal(-4)))
          CFI (cfiCond99) ?BRET_EXT load(1, XDATA, add(CFA_XSP16, literal(-3)))
          CFI (cfiCond99) DPL0 load(1, XDATA, add(CFA_XSP16, literal(-2)))
          CFI (cfiCond99) DPH0 load(1, XDATA, add(CFA_XSP16, literal(-1)))
          CFI (cfiCond99) CFA_SP SP+-4
          CFI (cfiCond99) CFA_XSP16 add(XSP16, 13)
          CFI Block cfiCond100 Using cfiCommon0
          CFI (cfiCond100) Function gapBondMgr_SyncCharCfg
          CFI (cfiCond100) Conditional ??CrossCallReturnLabel_82, ??CrossCallReturnLabel_68
          CFI (cfiCond100) R6 load(1, XDATA, add(CFA_XSP16, literal(-10)))
          CFI (cfiCond100) VB load(1, XDATA, add(CFA_XSP16, literal(-9)))
          CFI (cfiCond100) V0 load(1, XDATA, add(CFA_XSP16, literal(-8)))
          CFI (cfiCond100) V1 load(1, XDATA, add(CFA_XSP16, literal(-7)))
          CFI (cfiCond100) R7 load(1, XDATA, add(CFA_XSP16, literal(-6)))
          CFI (cfiCond100) ?RET_LOW load(1, XDATA, add(CFA_XSP16, literal(-5)))
          CFI (cfiCond100) ?RET_HIGH load(1, XDATA, add(CFA_XSP16, literal(-4)))
          CFI (cfiCond100) ?BRET_EXT load(1, XDATA, add(CFA_XSP16, literal(-3)))
          CFI (cfiCond100) DPL0 load(1, XDATA, add(CFA_XSP16, literal(-2)))
          CFI (cfiCond100) DPH0 load(1, XDATA, add(CFA_XSP16, literal(-1)))
          CFI (cfiCond100) CFA_SP SP+-4
          CFI (cfiCond100) CFA_XSP16 add(XSP16, 13)
          CFI Block cfiCond101 Using cfiCommon0
          CFI (cfiCond101) Function gapBondMgr_SyncCharCfg
          CFI (cfiCond101) Conditional ??CrossCallReturnLabel_82, ??CrossCallReturnLabel_69
          CFI (cfiCond101) R6 load(1, XDATA, add(CFA_XSP16, literal(-10)))
          CFI (cfiCond101) VB load(1, XDATA, add(CFA_XSP16, literal(-9)))
          CFI (cfiCond101) V0 load(1, XDATA, add(CFA_XSP16, literal(-8)))
          CFI (cfiCond101) V1 load(1, XDATA, add(CFA_XSP16, literal(-7)))
          CFI (cfiCond101) R7 load(1, XDATA, add(CFA_XSP16, literal(-6)))
          CFI (cfiCond101) ?RET_LOW load(1, XDATA, add(CFA_XSP16, literal(-5)))
          CFI (cfiCond101) ?RET_HIGH load(1, XDATA, add(CFA_XSP16, literal(-4)))
          CFI (cfiCond101) ?BRET_EXT load(1, XDATA, add(CFA_XSP16, literal(-3)))
          CFI (cfiCond101) DPL0 load(1, XDATA, add(CFA_XSP16, literal(-2)))
          CFI (cfiCond101) DPH0 load(1, XDATA, add(CFA_XSP16, literal(-1)))
          CFI (cfiCond101) CFA_SP SP+-4
          CFI (cfiCond101) CFA_XSP16 add(XSP16, 13)
          CFI Block cfiCond102 Using cfiCommon0
          CFI (cfiCond102) Function gapBondFreeAuthEvt
          CFI (cfiCond102) Conditional ??CrossCallReturnLabel_82, ??CrossCallReturnLabel_70
          CFI (cfiCond102) DPL0 Frame(CFA_SP, 4)
          CFI (cfiCond102) DPH0 Frame(CFA_SP, 5)
          CFI (cfiCond102) CFA_SP SP+-9
          CFI Block cfiCond103 Using cfiCommon0
          CFI (cfiCond103) Function GAPBondMgr_ProcessGAPMsg
          CFI (cfiCond103) Conditional ??CrossCallReturnLabel_80, ??CrossCallReturnLabel_0
          CFI (cfiCond103) R6 load(1, XDATA, add(CFA_XSP16, literal(-16)))
          CFI (cfiCond103) VB load(1, XDATA, add(CFA_XSP16, literal(-15)))
          CFI (cfiCond103) V0 load(1, XDATA, add(CFA_XSP16, literal(-14)))
          CFI (cfiCond103) V1 load(1, XDATA, add(CFA_XSP16, literal(-13)))
          CFI (cfiCond103) V2 load(1, XDATA, add(CFA_XSP16, literal(-12)))
          CFI (cfiCond103) V3 load(1, XDATA, add(CFA_XSP16, literal(-11)))
          CFI (cfiCond103) V4 load(1, XDATA, add(CFA_XSP16, literal(-10)))
          CFI (cfiCond103) V5 load(1, XDATA, add(CFA_XSP16, literal(-9)))
          CFI (cfiCond103) V6 load(1, XDATA, add(CFA_XSP16, literal(-8)))
          CFI (cfiCond103) V7 load(1, XDATA, add(CFA_XSP16, literal(-7)))
          CFI (cfiCond103) R7 load(1, XDATA, add(CFA_XSP16, literal(-6)))
          CFI (cfiCond103) ?RET_LOW load(1, XDATA, add(CFA_XSP16, literal(-5)))
          CFI (cfiCond103) ?RET_HIGH load(1, XDATA, add(CFA_XSP16, literal(-4)))
          CFI (cfiCond103) ?BRET_EXT load(1, XDATA, add(CFA_XSP16, literal(-3)))
          CFI (cfiCond103) DPL0 load(1, XDATA, add(CFA_XSP16, literal(-2)))
          CFI (cfiCond103) DPH0 load(1, XDATA, add(CFA_XSP16, literal(-1)))
          CFI (cfiCond103) CFA_SP SP+-4
          CFI (cfiCond103) CFA_XSP16 add(XSP16, 36)
          CFI Block cfiCond104 Using cfiCommon0
          CFI (cfiCond104) Function GAPBondMgr_ProcessGAPMsg
          CFI (cfiCond104) Conditional ??CrossCallReturnLabel_80, ??CrossCallReturnLabel_1
          CFI (cfiCond104) R6 load(1, XDATA, add(CFA_XSP16, literal(-16)))
          CFI (cfiCond104) VB load(1, XDATA, add(CFA_XSP16, literal(-15)))
          CFI (cfiCond104) V0 load(1, XDATA, add(CFA_XSP16, literal(-14)))
          CFI (cfiCond104) V1 load(1, XDATA, add(CFA_XSP16, literal(-13)))
          CFI (cfiCond104) V2 load(1, XDATA, add(CFA_XSP16, literal(-12)))
          CFI (cfiCond104) V3 load(1, XDATA, add(CFA_XSP16, literal(-11)))
          CFI (cfiCond104) V4 load(1, XDATA, add(CFA_XSP16, literal(-10)))
          CFI (cfiCond104) V5 load(1, XDATA, add(CFA_XSP16, literal(-9)))
          CFI (cfiCond104) V6 load(1, XDATA, add(CFA_XSP16, literal(-8)))
          CFI (cfiCond104) V7 load(1, XDATA, add(CFA_XSP16, literal(-7)))
          CFI (cfiCond104) R7 load(1, XDATA, add(CFA_XSP16, literal(-6)))
          CFI (cfiCond104) ?RET_LOW load(1, XDATA, add(CFA_XSP16, literal(-5)))
          CFI (cfiCond104) ?RET_HIGH load(1, XDATA, add(CFA_XSP16, literal(-4)))
          CFI (cfiCond104) ?BRET_EXT load(1, XDATA, add(CFA_XSP16, literal(-3)))
          CFI (cfiCond104) DPL0 load(1, XDATA, add(CFA_XSP16, literal(-2)))
          CFI (cfiCond104) DPH0 load(1, XDATA, add(CFA_XSP16, literal(-1)))
          CFI (cfiCond104) CFA_SP SP+-4
          CFI (cfiCond104) CFA_XSP16 add(XSP16, 36)
          CFI Block cfiCond105 Using cfiCommon0
          CFI (cfiCond105) Function GAPBondMgr_ProcessGAPMsg
          CFI (cfiCond105) Conditional ??CrossCallReturnLabel_80, ??CrossCallReturnLabel_2
          CFI (cfiCond105) R6 load(1, XDATA, add(CFA_XSP16, literal(-16)))
          CFI (cfiCond105) VB load(1, XDATA, add(CFA_XSP16, literal(-15)))
          CFI (cfiCond105) V0 load(1, XDATA, add(CFA_XSP16, literal(-14)))
          CFI (cfiCond105) V1 load(1, XDATA, add(CFA_XSP16, literal(-13)))
          CFI (cfiCond105) V2 load(1, XDATA, add(CFA_XSP16, literal(-12)))
          CFI (cfiCond105) V3 load(1, XDATA, add(CFA_XSP16, literal(-11)))
          CFI (cfiCond105) V4 load(1, XDATA, add(CFA_XSP16, literal(-10)))
          CFI (cfiCond105) V5 load(1, XDATA, add(CFA_XSP16, literal(-9)))
          CFI (cfiCond105) V6 load(1, XDATA, add(CFA_XSP16, literal(-8)))
          CFI (cfiCond105) V7 load(1, XDATA, add(CFA_XSP16, literal(-7)))
          CFI (cfiCond105) R7 load(1, XDATA, add(CFA_XSP16, literal(-6)))
          CFI (cfiCond105) ?RET_LOW load(1, XDATA, add(CFA_XSP16, literal(-5)))
          CFI (cfiCond105) ?RET_HIGH load(1, XDATA, add(CFA_XSP16, literal(-4)))
          CFI (cfiCond105) ?BRET_EXT load(1, XDATA, add(CFA_XSP16, literal(-3)))
          CFI (cfiCond105) DPL0 load(1, XDATA, add(CFA_XSP16, literal(-2)))
          CFI (cfiCond105) DPH0 load(1, XDATA, add(CFA_XSP16, literal(-1)))
          CFI (cfiCond105) CFA_SP SP+-4
          CFI (cfiCond105) CFA_XSP16 add(XSP16, 36)
          CFI Block cfiCond106 Using cfiCommon0
          CFI (cfiCond106) Function GAPBondMgr_LinkEst
          CFI (cfiCond106) Conditional ??CrossCallReturnLabel_81, ??CrossCallReturnLabel_5
          CFI (cfiCond106) R6 load(1, XDATA, add(CFA_XSP16, literal(-15)))
          CFI (cfiCond106) VB load(1, XDATA, add(CFA_XSP16, literal(-14)))
          CFI (cfiCond106) V0 load(1, XDATA, add(CFA_XSP16, literal(-13)))
          CFI (cfiCond106) V1 load(1, XDATA, add(CFA_XSP16, literal(-12)))
          CFI (cfiCond106) V2 load(1, XDATA, add(CFA_XSP16, literal(-11)))
          CFI (cfiCond106) V3 load(1, XDATA, add(CFA_XSP16, literal(-10)))
          CFI (cfiCond106) V4 load(1, XDATA, add(CFA_XSP16, literal(-9)))
          CFI (cfiCond106) V5 load(1, XDATA, add(CFA_XSP16, literal(-8)))
          CFI (cfiCond106) V6 load(1, XDATA, add(CFA_XSP16, literal(-7)))
          CFI (cfiCond106) R7 load(1, XDATA, add(CFA_XSP16, literal(-6)))
          CFI (cfiCond106) ?RET_LOW load(1, XDATA, add(CFA_XSP16, literal(-5)))
          CFI (cfiCond106) ?RET_HIGH load(1, XDATA, add(CFA_XSP16, literal(-4)))
          CFI (cfiCond106) ?BRET_EXT load(1, XDATA, add(CFA_XSP16, literal(-3)))
          CFI (cfiCond106) DPL0 load(1, XDATA, add(CFA_XSP16, literal(-2)))
          CFI (cfiCond106) DPH0 load(1, XDATA, add(CFA_XSP16, literal(-1)))
          CFI (cfiCond106) CFA_SP SP+-4
          CFI (cfiCond106) CFA_XSP16 add(XSP16, 53)
          CFI Block cfiCond107 Using cfiCommon0
          CFI (cfiCond107) Function GAPBondMgr_ProcessEvent
          CFI (cfiCond107) Conditional ??CrossCallReturnLabel_81, ??CrossCallReturnLabel_6
          CFI (cfiCond107) R6 load(1, XDATA, add(CFA_XSP16, literal(-12)))
          CFI (cfiCond107) VB load(1, XDATA, add(CFA_XSP16, literal(-11)))
          CFI (cfiCond107) V0 load(1, XDATA, add(CFA_XSP16, literal(-10)))
          CFI (cfiCond107) V1 load(1, XDATA, add(CFA_XSP16, literal(-9)))
          CFI (cfiCond107) V2 load(1, XDATA, add(CFA_XSP16, literal(-8)))
          CFI (cfiCond107) V3 load(1, XDATA, add(CFA_XSP16, literal(-7)))
          CFI (cfiCond107) R7 load(1, XDATA, add(CFA_XSP16, literal(-6)))
          CFI (cfiCond107) ?RET_LOW load(1, XDATA, add(CFA_XSP16, literal(-5)))
          CFI (cfiCond107) ?RET_HIGH load(1, XDATA, add(CFA_XSP16, literal(-4)))
          CFI (cfiCond107) ?BRET_EXT load(1, XDATA, add(CFA_XSP16, literal(-3)))
          CFI (cfiCond107) DPL0 load(1, XDATA, add(CFA_XSP16, literal(-2)))
          CFI (cfiCond107) DPH0 load(1, XDATA, add(CFA_XSP16, literal(-1)))
          CFI (cfiCond107) CFA_SP SP+-4
          CFI (cfiCond107) CFA_XSP16 add(XSP16, 12)
          CFI Block cfiPicker108 Using cfiCommon1
          CFI (cfiPicker108) NoFunction
          CFI (cfiPicker108) Picker
        MOVX    A,@DPTR
        MOV     R0,A
        INC     DPTR
        MOVX    A,@DPTR
        MOV     R1,A
        RET
          CFI EndBlock cfiCond88
          CFI EndBlock cfiCond89
          CFI EndBlock cfiCond90
          CFI EndBlock cfiCond91
          CFI EndBlock cfiCond92
          CFI EndBlock cfiCond93
          CFI EndBlock cfiCond94
          CFI EndBlock cfiCond95
          CFI EndBlock cfiCond96
          CFI EndBlock cfiCond97
          CFI EndBlock cfiCond98
          CFI EndBlock cfiCond99
          CFI EndBlock cfiCond100
          CFI EndBlock cfiCond101
          CFI EndBlock cfiCond102
          CFI EndBlock cfiCond103
          CFI EndBlock cfiCond104
          CFI EndBlock cfiCond105
          CFI EndBlock cfiCond106
          CFI EndBlock cfiCond107
          CFI EndBlock cfiPicker108

        RSEG BANKED_CODE:CODE:NOROOT(0)
?Subroutine10:
          CFI Block cfiCond109 Using cfiCommon0
          CFI Function GAPBondMgr_ProcessEvent
          CFI Conditional ??CrossCallReturnLabel_3
          CFI R6 load(1, XDATA, add(CFA_XSP16, literal(-12)))
          CFI VB load(1, XDATA, add(CFA_XSP16, literal(-11)))
          CFI V0 load(1, XDATA, add(CFA_XSP16, literal(-10)))
          CFI V1 load(1, XDATA, add(CFA_XSP16, literal(-9)))
          CFI V2 load(1, XDATA, add(CFA_XSP16, literal(-8)))
          CFI V3 load(1, XDATA, add(CFA_XSP16, literal(-7)))
          CFI R7 load(1, XDATA, add(CFA_XSP16, literal(-6)))
          CFI ?RET_LOW load(1, XDATA, add(CFA_XSP16, literal(-5)))
          CFI ?RET_HIGH load(1, XDATA, add(CFA_XSP16, literal(-4)))
          CFI ?BRET_EXT load(1, XDATA, add(CFA_XSP16, literal(-3)))
          CFI DPL0 load(1, XDATA, add(CFA_XSP16, literal(-2)))
          CFI DPH0 load(1, XDATA, add(CFA_XSP16, literal(-1)))
          CFI CFA_SP SP+-2
          CFI CFA_XSP16 add(XSP16, 12)
          CFI Block cfiCond110 Using cfiCommon0
          CFI (cfiCond110) Function GAPBondMgr_ProcessEvent
          CFI (cfiCond110) Conditional ??CrossCallReturnLabel_4
          CFI (cfiCond110) R6 load(1, XDATA, add(CFA_XSP16, literal(-12)))
          CFI (cfiCond110) VB load(1, XDATA, add(CFA_XSP16, literal(-11)))
          CFI (cfiCond110) V0 load(1, XDATA, add(CFA_XSP16, literal(-10)))
          CFI (cfiCond110) V1 load(1, XDATA, add(CFA_XSP16, literal(-9)))
          CFI (cfiCond110) V2 load(1, XDATA, add(CFA_XSP16, literal(-8)))
          CFI (cfiCond110) V3 load(1, XDATA, add(CFA_XSP16, literal(-7)))
          CFI (cfiCond110) R7 load(1, XDATA, add(CFA_XSP16, literal(-6)))
          CFI (cfiCond110) ?RET_LOW load(1, XDATA, add(CFA_XSP16, literal(-5)))
          CFI (cfiCond110) ?RET_HIGH load(1, XDATA, add(CFA_XSP16, literal(-4)))
          CFI (cfiCond110) ?BRET_EXT load(1, XDATA, add(CFA_XSP16, literal(-3)))
          CFI (cfiCond110) DPL0 load(1, XDATA, add(CFA_XSP16, literal(-2)))
          CFI (cfiCond110) DPH0 load(1, XDATA, add(CFA_XSP16, literal(-1)))
          CFI (cfiCond110) CFA_SP SP+-2
          CFI (cfiCond110) CFA_XSP16 add(XSP16, 12)
          CFI Block cfiPicker111 Using cfiCommon1
          CFI (cfiPicker111) NoFunction
          CFI (cfiPicker111) Picker
        MOV     DPTR,#pAuthEvt
        LCALL   ?Subroutine23 & 0xFFFF
??CrossCallReturnLabel_39:
        MOVX    A,@DPTR
        MOV     R2,A
        INC     DPTR
        MOVX    A,@DPTR
        MOV     R3,A
        RET
          CFI EndBlock cfiCond109
          CFI EndBlock cfiCond110
          CFI EndBlock cfiPicker111
// 1807 
// 1808 /*********************************************************************
// 1809  * @fn      gapBondMgr_ProcessOSALMsg
// 1810  *
// 1811  * @brief   Process an incoming task message.
// 1812  *
// 1813  * @param   pMsg - message to process
// 1814  *
// 1815  * @return  TRUE if safe to deallocate incoming message, FALSE otherwise.
// 1816  */
// 1817 static uint8 gapBondMgr_ProcessOSALMsg( osal_event_hdr_t *pMsg )
// 1818 {
// 1819   uint8 safeToDealloc = TRUE;
// 1820   
// 1821   switch ( pMsg->event )
// 1822   {
// 1823     case GAP_MSG_EVENT:
// 1824       safeToDealloc = GAPBondMgr_ProcessGAPMsg( (gapEventHdr_t *)pMsg );
// 1825       break;
// 1826 
// 1827     case GATT_MSG_EVENT:
// 1828       gapBondMgr_ProcessGATTMsg( (gattMsgEvent_t *)pMsg );
// 1829       break;
// 1830 
// 1831     case GATT_SERV_MSG_EVENT:
// 1832       gapBondMgr_ProcessGATTServMsg( (gattEventHdr_t *)pMsg );
// 1833       break;
// 1834 
// 1835     default:
// 1836       break;
// 1837   }
// 1838   
// 1839   return ( safeToDealloc );
// 1840 }
// 1841 
// 1842 /*********************************************************************
// 1843  * @fn      GAPBondMgr_CheckNVLen
// 1844  *
// 1845  * @brief   This function will check the length of an NV Item.
// 1846  *
// 1847  * @param   id - NV ID.
// 1848  * @param   len - lengths in bytes of item.
// 1849  *
// 1850  * @return  SUCCESS or FAILURE
// 1851  */

        RSEG BANKED_CODE:CODE:NOROOT(0)
// 1852 uint8 GAPBondMgr_CheckNVLen( uint8 id, uint8 len )
GAPBondMgr_CheckNVLen:
          CFI Block cfiBlock112 Using cfiCommon0
          CFI Function GAPBondMgr_CheckNVLen
        CODE
// 1853 {
        REQUIRE ?V0
        REQUIRE ?V1
        MOV     A,#-0xa
        LCALL   ?BANKED_ENTER_XDATA
          CFI DPH0 load(1, XDATA, add(CFA_XSP16, literal(-1)))
          CFI DPL0 load(1, XDATA, add(CFA_XSP16, literal(-2)))
          CFI ?BRET_EXT load(1, XDATA, add(CFA_XSP16, literal(-3)))
          CFI ?RET_HIGH load(1, XDATA, add(CFA_XSP16, literal(-4)))
          CFI ?RET_LOW load(1, XDATA, add(CFA_XSP16, literal(-5)))
          CFI R7 load(1, XDATA, add(CFA_XSP16, literal(-6)))
          CFI V1 load(1, XDATA, add(CFA_XSP16, literal(-7)))
          CFI V0 load(1, XDATA, add(CFA_XSP16, literal(-8)))
          CFI VB load(1, XDATA, add(CFA_XSP16, literal(-9)))
          CFI R6 load(1, XDATA, add(CFA_XSP16, literal(-10)))
          CFI CFA_SP SP+0
          CFI CFA_XSP16 add(XSP16, 10)
        ; Saved register size: 10
        ; Auto size: 0
        MOV     A,R2
        MOV     R4,A
// 1854   uint8 stat = FAILURE;
        MOV     R5,#0x1
// 1855 
// 1856   // Convert to index
// 1857   switch ( (id - BLE_NVID_GAP_BOND_START) % GAP_BOND_REC_IDS )
        MOV     A,R1
        ADD     A,#-0x20
        MOV     R0,A
        CLR     A
        ADDC    A,#-0x1
        MOV     R1,A
        MOV     R2,#0x6
        MOV     R3,#0x0
        LCALL   ?S_DIV_MOD
        MOV     ?V0,R2
        MOV     ?V1,R3
        MOV     R0,#?V0
        LCALL   ?US_SWITCH_DENSE
`?<Jumptable for GAPBondMgr_CheckNVLen>_0`:
        DATA
        DATA16
        DATA
        DATA16
        DW        0
        DATA
        DATA8
        DATA
        DATA8
        DB        5
        DATA
        DATA16
        DATA
        DATA16
        DW        ??GAPBondMgr_CheckNVLen_0
        DATA
        DATA16
        DATA
        DATA16
        DW        ??GAPBondMgr_CheckNVLen_1
        DATA
        DATA16
        DATA
        DATA16
        DW        ??GAPBondMgr_CheckNVLen_2
        DATA
        DATA16
        DATA
        DATA16
        DW        ??GAPBondMgr_CheckNVLen_2
        DATA
        DATA16
        DATA
        DATA16
        DW        ??GAPBondMgr_CheckNVLen_3
        DATA
        DATA16
        DATA
        DATA16
        DW        ??GAPBondMgr_CheckNVLen_3
        DATA
        DATA16
        DATA
        DATA16
        DW        ??GAPBondMgr_CheckNVLen_4
        CODE
// 1858   {
// 1859     case GAP_BOND_REC_ID_OFFSET:
// 1860       if ( len == sizeof ( gapBondRec_t ) )
??GAPBondMgr_CheckNVLen_1:
        MOV     A,#0xe
        SJMP    ??GAPBondMgr_CheckNVLen_5
// 1861       {
// 1862         stat = SUCCESS;
// 1863       }
// 1864       break;
// 1865 
// 1866     case GAP_BOND_LOCAL_LTK_OFFSET:
// 1867     case GAP_BOND_DEV_LTK_OFFSET:
// 1868       if ( len == sizeof ( gapBondLTK_t ) )
??GAPBondMgr_CheckNVLen_2:
        MOV     A,#0x1b
        SJMP    ??GAPBondMgr_CheckNVLen_5
// 1869       {
// 1870         stat = SUCCESS;
// 1871       }
// 1872       break;
// 1873 
// 1874     case GAP_BOND_DEV_IRK_OFFSET:
// 1875     case GAP_BOND_DEV_CSRK_OFFSET:
// 1876       if ( len == KEYLEN )
??GAPBondMgr_CheckNVLen_3:
        MOV     A,#0x10
??GAPBondMgr_CheckNVLen_5:
        XRL     A,R4
        JNZ     ??GAPBondMgr_CheckNVLen_0
        SJMP    ??GAPBondMgr_CheckNVLen_6
// 1877       {
// 1878         stat = SUCCESS;
// 1879       }
// 1880       break;
// 1881 
// 1882     case GAP_BOND_DEV_SIGN_COUNTER_OFFSET:
// 1883       if ( len == sizeof ( uint32 ) )
??GAPBondMgr_CheckNVLen_4:
        MOV     A,#0x4
        XRL     A,R4
        JNZ     ??GAPBondMgr_CheckNVLen_0
// 1884       {
// 1885         stat = SUCCESS;
??GAPBondMgr_CheckNVLen_6:
        DEC     R5
// 1886       }
// 1887       break;
// 1888 
// 1889     default:
// 1890       break;
// 1891   }
// 1892 
// 1893   return ( stat );
??GAPBondMgr_CheckNVLen_0:
        MOV     A,R5
        MOV     R1,A
          CFI EndBlock cfiBlock112
        REQUIRE ?Subroutine6
        ; // Fall through to label ?Subroutine6
// 1894 }

        RSEG BANKED_CODE:CODE:NOROOT(0)
?Subroutine6:
          CFI Block cfiBlock113 Using cfiCommon0
          CFI NoFunction
          CFI CFA_SP SP+0
          CFI CFA_XSP16 add(XSP16, 10)
          CFI VB load(1, XDATA, add(CFA_XSP16, literal(-9)))
          CFI DPL0 load(1, XDATA, add(CFA_XSP16, literal(-2)))
          CFI DPH0 load(1, XDATA, add(CFA_XSP16, literal(-1)))
          CFI R6 load(1, XDATA, add(CFA_XSP16, literal(-10)))
          CFI R7 load(1, XDATA, add(CFA_XSP16, literal(-6)))
          CFI V0 load(1, XDATA, add(CFA_XSP16, literal(-8)))
          CFI V1 load(1, XDATA, add(CFA_XSP16, literal(-7)))
          CFI ?BRET_EXT load(1, XDATA, add(CFA_XSP16, literal(-3)))
          CFI ?RET_HIGH load(1, XDATA, add(CFA_XSP16, literal(-4)))
          CFI ?RET_LOW load(1, XDATA, add(CFA_XSP16, literal(-5)))
        MOV     R7,#0x2
        LJMP    ?BANKED_LEAVE_XDATA
          CFI EndBlock cfiBlock113
// 1895 
// 1896 /*********************************************************************
// 1897  * @fn          gapBondMgr_ProcessGATTMsg
// 1898  *
// 1899  * @brief       Process an incoming GATT message.
// 1900  *
// 1901  * @param       pMsg - pointer to received message
// 1902  *
// 1903  * @return      none
// 1904  */
// 1905 static void gapBondMgr_ProcessGATTMsg( gattMsgEvent_t *pMsg )
// 1906 {
// 1907   // Process the GATT message
// 1908   switch ( pMsg->method )
// 1909   {
// 1910     case ATT_HANDLE_VALUE_CFM:
// 1911       // Clear Service Changed flag for this client
// 1912       VOID GAPBondMgr_ServiceChangeInd( pMsg->connHandle, 0x00 );
// 1913       break;
// 1914 
// 1915     default:
// 1916       // Unknown message
// 1917       break;
// 1918   }
// 1919 }
// 1920 
// 1921 /*********************************************************************
// 1922  * @fn          gapBondMgr_ProcessGATTServMsg
// 1923  *
// 1924  * @brief       Process an incoming GATT Server App message.
// 1925  *
// 1926  * @param       pMsg - pointer to received message
// 1927  *
// 1928  * @return      none
// 1929  */
// 1930 static void gapBondMgr_ProcessGATTServMsg( gattEventHdr_t *pMsg )
// 1931 {
// 1932   // Process the GATT Server App message
// 1933   switch ( pMsg->method )
// 1934   {
// 1935     case GATT_CLIENT_CHAR_CFG_UPDATED_EVENT:
// 1936       {
// 1937         gattClientCharCfgUpdatedEvent_t *pEvent = (gattClientCharCfgUpdatedEvent_t *)pMsg;
// 1938 
// 1939         VOID GAPBondMgr_UpdateCharCfg( pEvent->connHandle, pEvent->attrHandle, pEvent->value );
// 1940       }
// 1941       break;
// 1942 
// 1943     default:
// 1944       // Unknown message
// 1945       break;
// 1946   }
// 1947 }
// 1948 
// 1949 /*********************************************************************
// 1950  * @fn      gapBondMgrSendServiceChange
// 1951  *
// 1952  * @brief   Tell the GATT that a service change is needed.
// 1953  *
// 1954  * @param   pLinkItem - pointer to connection information
// 1955  *
// 1956  * @return  none
// 1957  */

        RSEG BANKED_CODE:CODE:NOROOT(0)
// 1958 static void gapBondMgrSendServiceChange( linkDBItem_t *pLinkItem )
gapBondMgrSendServiceChange:
          CFI Block cfiBlock114 Using cfiCommon0
          CFI Function gapBondMgrSendServiceChange
        CODE
// 1959 {
        FUNCALL gapBondMgrSendServiceChange, GATTServApp_SendServiceChangedInd
        LOCFRAME ISTACK, 2, STACK
        LOCFRAME PSTACK, 0, STACK
        LOCFRAME XSTACK, 0, STACK
        LOCFRAME IOVERLAY, 0, STATIC
        LOCFRAME DOVERLAY, 0, STATIC
        ARGFRAME ISTACK, 2, STACK
        ARGFRAME PSTACK, 0, STACK
        ARGFRAME XSTACK, 0, STACK
        ARGFRAME IOVERLAY, 0, STATIC
        ARGFRAME DOVERLAY, 0, STATIC
        PUSH    DPL
          CFI DPL0 Frame(CFA_SP, 4)
          CFI CFA_SP SP+-4
        PUSH    DPH
          CFI DPH0 Frame(CFA_SP, 5)
          CFI CFA_SP SP+-5
        ; Saved register size: 2
        ; Auto size: 0
// 1960   VOID GATTServApp_SendServiceChangedInd( pLinkItem->connectionHandle,
// 1961                                           gapBondMgr_TaskID );
        ; Setup parameters for call to function GATTServApp_SendServiceChangedInd
        MOV     DPTR,#gapBondMgr_TaskID
        MOVX    A,@DPTR
        MOV     R1,A
        MOV     DPL,R2
        MOV     DPH,R3
        INC     DPTR
        LCALL   ??Subroutine28_0 & 0xFFFF
??CrossCallReturnLabel_55:
        LCALL   ??GATTServApp_SendServiceChangedInd?relay; Banked call to: GATTServApp_SendServiceChangedInd
// 1962 }
        SJMP    ?Subroutine4
          CFI EndBlock cfiBlock114

        RSEG BANKED_CODE:CODE:NOROOT(0)
?Subroutine11:
          CFI Block cfiCond115 Using cfiCommon0
          CFI Function GAPBondMgr_ProcessGAPMsg
          CFI Conditional ??CrossCallReturnLabel_63
          CFI R6 load(1, XDATA, add(CFA_XSP16, literal(-16)))
          CFI VB load(1, XDATA, add(CFA_XSP16, literal(-15)))
          CFI V0 load(1, XDATA, add(CFA_XSP16, literal(-14)))
          CFI V1 load(1, XDATA, add(CFA_XSP16, literal(-13)))
          CFI V2 load(1, XDATA, add(CFA_XSP16, literal(-12)))
          CFI V3 load(1, XDATA, add(CFA_XSP16, literal(-11)))
          CFI V4 load(1, XDATA, add(CFA_XSP16, literal(-10)))
          CFI V5 load(1, XDATA, add(CFA_XSP16, literal(-9)))
          CFI V6 load(1, XDATA, add(CFA_XSP16, literal(-8)))
          CFI V7 load(1, XDATA, add(CFA_XSP16, literal(-7)))
          CFI R7 load(1, XDATA, add(CFA_XSP16, literal(-6)))
          CFI ?RET_LOW load(1, XDATA, add(CFA_XSP16, literal(-5)))
          CFI ?RET_HIGH load(1, XDATA, add(CFA_XSP16, literal(-4)))
          CFI ?BRET_EXT load(1, XDATA, add(CFA_XSP16, literal(-3)))
          CFI DPL0 load(1, XDATA, add(CFA_XSP16, literal(-2)))
          CFI DPH0 load(1, XDATA, add(CFA_XSP16, literal(-1)))
          CFI CFA_SP SP+-2
          CFI CFA_XSP16 add(XSP16, 36)
          CFI Block cfiCond116 Using cfiCommon0
          CFI (cfiCond116) Function GAPBondMgr_ProcessGAPMsg
          CFI (cfiCond116) Conditional ??CrossCallReturnLabel_64
          CFI (cfiCond116) R6 load(1, XDATA, add(CFA_XSP16, literal(-16)))
          CFI (cfiCond116) VB load(1, XDATA, add(CFA_XSP16, literal(-15)))
          CFI (cfiCond116) V0 load(1, XDATA, add(CFA_XSP16, literal(-14)))
          CFI (cfiCond116) V1 load(1, XDATA, add(CFA_XSP16, literal(-13)))
          CFI (cfiCond116) V2 load(1, XDATA, add(CFA_XSP16, literal(-12)))
          CFI (cfiCond116) V3 load(1, XDATA, add(CFA_XSP16, literal(-11)))
          CFI (cfiCond116) V4 load(1, XDATA, add(CFA_XSP16, literal(-10)))
          CFI (cfiCond116) V5 load(1, XDATA, add(CFA_XSP16, literal(-9)))
          CFI (cfiCond116) V6 load(1, XDATA, add(CFA_XSP16, literal(-8)))
          CFI (cfiCond116) V7 load(1, XDATA, add(CFA_XSP16, literal(-7)))
          CFI (cfiCond116) R7 load(1, XDATA, add(CFA_XSP16, literal(-6)))
          CFI (cfiCond116) ?RET_LOW load(1, XDATA, add(CFA_XSP16, literal(-5)))
          CFI (cfiCond116) ?RET_HIGH load(1, XDATA, add(CFA_XSP16, literal(-4)))
          CFI (cfiCond116) ?BRET_EXT load(1, XDATA, add(CFA_XSP16, literal(-3)))
          CFI (cfiCond116) DPL0 load(1, XDATA, add(CFA_XSP16, literal(-2)))
          CFI (cfiCond116) DPH0 load(1, XDATA, add(CFA_XSP16, literal(-1)))
          CFI (cfiCond116) CFA_SP SP+-2
          CFI (cfiCond116) CFA_XSP16 add(XSP16, 36)
          CFI Block cfiPicker117 Using cfiCommon1
          CFI (cfiPicker117) NoFunction
          CFI (cfiPicker117) Picker
        MOVX    A,@DPTR
        MOV     R1,A
          CFI EndBlock cfiCond115
          CFI EndBlock cfiCond116
          CFI EndBlock cfiPicker117
        REQUIRE ??Subroutine27_0
        ; // Fall through to label ??Subroutine27_0

        RSEG BANKED_CODE:CODE:NOROOT(0)
??Subroutine27_0:
          CFI Block cfiCond118 Using cfiCommon0
          CFI Function GAPBondMgr_ProcessGAPMsg
          CFI Conditional ??CrossCallReturnLabel_58
          CFI R6 load(1, XDATA, add(CFA_XSP16, literal(-16)))
          CFI VB load(1, XDATA, add(CFA_XSP16, literal(-15)))
          CFI V0 load(1, XDATA, add(CFA_XSP16, literal(-14)))
          CFI V1 load(1, XDATA, add(CFA_XSP16, literal(-13)))
          CFI V2 load(1, XDATA, add(CFA_XSP16, literal(-12)))
          CFI V3 load(1, XDATA, add(CFA_XSP16, literal(-11)))
          CFI V4 load(1, XDATA, add(CFA_XSP16, literal(-10)))
          CFI V5 load(1, XDATA, add(CFA_XSP16, literal(-9)))
          CFI V6 load(1, XDATA, add(CFA_XSP16, literal(-8)))
          CFI V7 load(1, XDATA, add(CFA_XSP16, literal(-7)))
          CFI R7 load(1, XDATA, add(CFA_XSP16, literal(-6)))
          CFI ?RET_LOW load(1, XDATA, add(CFA_XSP16, literal(-5)))
          CFI ?RET_HIGH load(1, XDATA, add(CFA_XSP16, literal(-4)))
          CFI ?BRET_EXT load(1, XDATA, add(CFA_XSP16, literal(-3)))
          CFI DPL0 load(1, XDATA, add(CFA_XSP16, literal(-2)))
          CFI DPH0 load(1, XDATA, add(CFA_XSP16, literal(-1)))
          CFI CFA_SP SP+-2
          CFI CFA_XSP16 add(XSP16, 36)
          CFI Block cfiCond119 Using cfiCommon0
          CFI (cfiCond119) Function GAPBondMgr_ProcessGAPMsg
          CFI (cfiCond119) Conditional ??CrossCallReturnLabel_59
          CFI (cfiCond119) R6 load(1, XDATA, add(CFA_XSP16, literal(-16)))
          CFI (cfiCond119) VB load(1, XDATA, add(CFA_XSP16, literal(-15)))
          CFI (cfiCond119) V0 load(1, XDATA, add(CFA_XSP16, literal(-14)))
          CFI (cfiCond119) V1 load(1, XDATA, add(CFA_XSP16, literal(-13)))
          CFI (cfiCond119) V2 load(1, XDATA, add(CFA_XSP16, literal(-12)))
          CFI (cfiCond119) V3 load(1, XDATA, add(CFA_XSP16, literal(-11)))
          CFI (cfiCond119) V4 load(1, XDATA, add(CFA_XSP16, literal(-10)))
          CFI (cfiCond119) V5 load(1, XDATA, add(CFA_XSP16, literal(-9)))
          CFI (cfiCond119) V6 load(1, XDATA, add(CFA_XSP16, literal(-8)))
          CFI (cfiCond119) V7 load(1, XDATA, add(CFA_XSP16, literal(-7)))
          CFI (cfiCond119) R7 load(1, XDATA, add(CFA_XSP16, literal(-6)))
          CFI (cfiCond119) ?RET_LOW load(1, XDATA, add(CFA_XSP16, literal(-5)))
          CFI (cfiCond119) ?RET_HIGH load(1, XDATA, add(CFA_XSP16, literal(-4)))
          CFI (cfiCond119) ?BRET_EXT load(1, XDATA, add(CFA_XSP16, literal(-3)))
          CFI (cfiCond119) DPL0 load(1, XDATA, add(CFA_XSP16, literal(-2)))
          CFI (cfiCond119) DPH0 load(1, XDATA, add(CFA_XSP16, literal(-1)))
          CFI (cfiCond119) CFA_SP SP+-2
          CFI (cfiCond119) CFA_XSP16 add(XSP16, 36)
          CFI Block cfiCond120 Using cfiCommon0
          CFI (cfiCond120) Function GAPBondMgr_ProcessGAPMsg
          CFI (cfiCond120) Conditional ??CrossCallReturnLabel_60
          CFI (cfiCond120) R6 load(1, XDATA, add(CFA_XSP16, literal(-16)))
          CFI (cfiCond120) VB load(1, XDATA, add(CFA_XSP16, literal(-15)))
          CFI (cfiCond120) V0 load(1, XDATA, add(CFA_XSP16, literal(-14)))
          CFI (cfiCond120) V1 load(1, XDATA, add(CFA_XSP16, literal(-13)))
          CFI (cfiCond120) V2 load(1, XDATA, add(CFA_XSP16, literal(-12)))
          CFI (cfiCond120) V3 load(1, XDATA, add(CFA_XSP16, literal(-11)))
          CFI (cfiCond120) V4 load(1, XDATA, add(CFA_XSP16, literal(-10)))
          CFI (cfiCond120) V5 load(1, XDATA, add(CFA_XSP16, literal(-9)))
          CFI (cfiCond120) V6 load(1, XDATA, add(CFA_XSP16, literal(-8)))
          CFI (cfiCond120) V7 load(1, XDATA, add(CFA_XSP16, literal(-7)))
          CFI (cfiCond120) R7 load(1, XDATA, add(CFA_XSP16, literal(-6)))
          CFI (cfiCond120) ?RET_LOW load(1, XDATA, add(CFA_XSP16, literal(-5)))
          CFI (cfiCond120) ?RET_HIGH load(1, XDATA, add(CFA_XSP16, literal(-4)))
          CFI (cfiCond120) ?BRET_EXT load(1, XDATA, add(CFA_XSP16, literal(-3)))
          CFI (cfiCond120) DPL0 load(1, XDATA, add(CFA_XSP16, literal(-2)))
          CFI (cfiCond120) DPH0 load(1, XDATA, add(CFA_XSP16, literal(-1)))
          CFI (cfiCond120) CFA_SP SP+-2
          CFI (cfiCond120) CFA_XSP16 add(XSP16, 36)
          CFI Block cfiCond121 Using cfiCommon0
          CFI (cfiCond121) Function GAPBondMgr_ProcessGAPMsg
          CFI (cfiCond121) Conditional ??CrossCallReturnLabel_61
          CFI (cfiCond121) R6 load(1, XDATA, add(CFA_XSP16, literal(-16)))
          CFI (cfiCond121) VB load(1, XDATA, add(CFA_XSP16, literal(-15)))
          CFI (cfiCond121) V0 load(1, XDATA, add(CFA_XSP16, literal(-14)))
          CFI (cfiCond121) V1 load(1, XDATA, add(CFA_XSP16, literal(-13)))
          CFI (cfiCond121) V2 load(1, XDATA, add(CFA_XSP16, literal(-12)))
          CFI (cfiCond121) V3 load(1, XDATA, add(CFA_XSP16, literal(-11)))
          CFI (cfiCond121) V4 load(1, XDATA, add(CFA_XSP16, literal(-10)))
          CFI (cfiCond121) V5 load(1, XDATA, add(CFA_XSP16, literal(-9)))
          CFI (cfiCond121) V6 load(1, XDATA, add(CFA_XSP16, literal(-8)))
          CFI (cfiCond121) V7 load(1, XDATA, add(CFA_XSP16, literal(-7)))
          CFI (cfiCond121) R7 load(1, XDATA, add(CFA_XSP16, literal(-6)))
          CFI (cfiCond121) ?RET_LOW load(1, XDATA, add(CFA_XSP16, literal(-5)))
          CFI (cfiCond121) ?RET_HIGH load(1, XDATA, add(CFA_XSP16, literal(-4)))
          CFI (cfiCond121) ?BRET_EXT load(1, XDATA, add(CFA_XSP16, literal(-3)))
          CFI (cfiCond121) DPL0 load(1, XDATA, add(CFA_XSP16, literal(-2)))
          CFI (cfiCond121) DPH0 load(1, XDATA, add(CFA_XSP16, literal(-1)))
          CFI (cfiCond121) CFA_SP SP+-2
          CFI (cfiCond121) CFA_XSP16 add(XSP16, 36)
          CFI Block cfiCond122 Using cfiCommon0
          CFI (cfiCond122) Function GAPBondMgr_ProcessGAPMsg
          CFI (cfiCond122) Conditional ??CrossCallReturnLabel_62
          CFI (cfiCond122) R6 load(1, XDATA, add(CFA_XSP16, literal(-16)))
          CFI (cfiCond122) VB load(1, XDATA, add(CFA_XSP16, literal(-15)))
          CFI (cfiCond122) V0 load(1, XDATA, add(CFA_XSP16, literal(-14)))
          CFI (cfiCond122) V1 load(1, XDATA, add(CFA_XSP16, literal(-13)))
          CFI (cfiCond122) V2 load(1, XDATA, add(CFA_XSP16, literal(-12)))
          CFI (cfiCond122) V3 load(1, XDATA, add(CFA_XSP16, literal(-11)))
          CFI (cfiCond122) V4 load(1, XDATA, add(CFA_XSP16, literal(-10)))
          CFI (cfiCond122) V5 load(1, XDATA, add(CFA_XSP16, literal(-9)))
          CFI (cfiCond122) V6 load(1, XDATA, add(CFA_XSP16, literal(-8)))
          CFI (cfiCond122) V7 load(1, XDATA, add(CFA_XSP16, literal(-7)))
          CFI (cfiCond122) R7 load(1, XDATA, add(CFA_XSP16, literal(-6)))
          CFI (cfiCond122) ?RET_LOW load(1, XDATA, add(CFA_XSP16, literal(-5)))
          CFI (cfiCond122) ?RET_HIGH load(1, XDATA, add(CFA_XSP16, literal(-4)))
          CFI (cfiCond122) ?BRET_EXT load(1, XDATA, add(CFA_XSP16, literal(-3)))
          CFI (cfiCond122) DPL0 load(1, XDATA, add(CFA_XSP16, literal(-2)))
          CFI (cfiCond122) DPH0 load(1, XDATA, add(CFA_XSP16, literal(-1)))
          CFI (cfiCond122) CFA_SP SP+-2
          CFI (cfiCond122) CFA_XSP16 add(XSP16, 36)
          CFI Block cfiCond123 Using cfiCommon0
          CFI (cfiCond123) Function GAPBondMgr_ProcessGAPMsg
          CFI (cfiCond123) Conditional ??CrossCallReturnLabel_63
          CFI (cfiCond123) R6 load(1, XDATA, add(CFA_XSP16, literal(-16)))
          CFI (cfiCond123) VB load(1, XDATA, add(CFA_XSP16, literal(-15)))
          CFI (cfiCond123) V0 load(1, XDATA, add(CFA_XSP16, literal(-14)))
          CFI (cfiCond123) V1 load(1, XDATA, add(CFA_XSP16, literal(-13)))
          CFI (cfiCond123) V2 load(1, XDATA, add(CFA_XSP16, literal(-12)))
          CFI (cfiCond123) V3 load(1, XDATA, add(CFA_XSP16, literal(-11)))
          CFI (cfiCond123) V4 load(1, XDATA, add(CFA_XSP16, literal(-10)))
          CFI (cfiCond123) V5 load(1, XDATA, add(CFA_XSP16, literal(-9)))
          CFI (cfiCond123) V6 load(1, XDATA, add(CFA_XSP16, literal(-8)))
          CFI (cfiCond123) V7 load(1, XDATA, add(CFA_XSP16, literal(-7)))
          CFI (cfiCond123) R7 load(1, XDATA, add(CFA_XSP16, literal(-6)))
          CFI (cfiCond123) ?RET_LOW load(1, XDATA, add(CFA_XSP16, literal(-5)))
          CFI (cfiCond123) ?RET_HIGH load(1, XDATA, add(CFA_XSP16, literal(-4)))
          CFI (cfiCond123) ?BRET_EXT load(1, XDATA, add(CFA_XSP16, literal(-3)))
          CFI (cfiCond123) DPL0 load(1, XDATA, add(CFA_XSP16, literal(-2)))
          CFI (cfiCond123) DPH0 load(1, XDATA, add(CFA_XSP16, literal(-1)))
          CFI (cfiCond123) CFA_SP SP+-2
          CFI (cfiCond123) CFA_XSP16 add(XSP16, 36)
          CFI Block cfiCond124 Using cfiCommon0
          CFI (cfiCond124) Function GAPBondMgr_ProcessGAPMsg
          CFI (cfiCond124) Conditional ??CrossCallReturnLabel_64
          CFI (cfiCond124) R6 load(1, XDATA, add(CFA_XSP16, literal(-16)))
          CFI (cfiCond124) VB load(1, XDATA, add(CFA_XSP16, literal(-15)))
          CFI (cfiCond124) V0 load(1, XDATA, add(CFA_XSP16, literal(-14)))
          CFI (cfiCond124) V1 load(1, XDATA, add(CFA_XSP16, literal(-13)))
          CFI (cfiCond124) V2 load(1, XDATA, add(CFA_XSP16, literal(-12)))
          CFI (cfiCond124) V3 load(1, XDATA, add(CFA_XSP16, literal(-11)))
          CFI (cfiCond124) V4 load(1, XDATA, add(CFA_XSP16, literal(-10)))
          CFI (cfiCond124) V5 load(1, XDATA, add(CFA_XSP16, literal(-9)))
          CFI (cfiCond124) V6 load(1, XDATA, add(CFA_XSP16, literal(-8)))
          CFI (cfiCond124) V7 load(1, XDATA, add(CFA_XSP16, literal(-7)))
          CFI (cfiCond124) R7 load(1, XDATA, add(CFA_XSP16, literal(-6)))
          CFI (cfiCond124) ?RET_LOW load(1, XDATA, add(CFA_XSP16, literal(-5)))
          CFI (cfiCond124) ?RET_HIGH load(1, XDATA, add(CFA_XSP16, literal(-4)))
          CFI (cfiCond124) ?BRET_EXT load(1, XDATA, add(CFA_XSP16, literal(-3)))
          CFI (cfiCond124) DPL0 load(1, XDATA, add(CFA_XSP16, literal(-2)))
          CFI (cfiCond124) DPH0 load(1, XDATA, add(CFA_XSP16, literal(-1)))
          CFI (cfiCond124) CFA_SP SP+-2
          CFI (cfiCond124) CFA_XSP16 add(XSP16, 36)
          CFI Block cfiPicker125 Using cfiCommon1
          CFI (cfiPicker125) NoFunction
          CFI (cfiPicker125) Picker
        MOV     DPL,R6
        MOV     DPH,R7
          CFI EndBlock cfiCond118
          CFI EndBlock cfiCond119
          CFI EndBlock cfiCond120
          CFI EndBlock cfiCond121
          CFI EndBlock cfiCond122
          CFI EndBlock cfiCond123
          CFI EndBlock cfiCond124
          CFI EndBlock cfiPicker125
        REQUIRE ??Subroutine28_0
        ; // Fall through to label ??Subroutine28_0

        RSEG BANKED_CODE:CODE:NOROOT(0)
??Subroutine28_0:
          CFI Block cfiCond126 Using cfiCommon0
          CFI Function GAPBondMgr_ProcessGAPMsg
          CFI Conditional ??CrossCallReturnLabel_50
          CFI R6 load(1, XDATA, add(CFA_XSP16, literal(-16)))
          CFI VB load(1, XDATA, add(CFA_XSP16, literal(-15)))
          CFI V0 load(1, XDATA, add(CFA_XSP16, literal(-14)))
          CFI V1 load(1, XDATA, add(CFA_XSP16, literal(-13)))
          CFI V2 load(1, XDATA, add(CFA_XSP16, literal(-12)))
          CFI V3 load(1, XDATA, add(CFA_XSP16, literal(-11)))
          CFI V4 load(1, XDATA, add(CFA_XSP16, literal(-10)))
          CFI V5 load(1, XDATA, add(CFA_XSP16, literal(-9)))
          CFI V6 load(1, XDATA, add(CFA_XSP16, literal(-8)))
          CFI V7 load(1, XDATA, add(CFA_XSP16, literal(-7)))
          CFI R7 load(1, XDATA, add(CFA_XSP16, literal(-6)))
          CFI ?RET_LOW load(1, XDATA, add(CFA_XSP16, literal(-5)))
          CFI ?RET_HIGH load(1, XDATA, add(CFA_XSP16, literal(-4)))
          CFI ?BRET_EXT load(1, XDATA, add(CFA_XSP16, literal(-3)))
          CFI DPL0 load(1, XDATA, add(CFA_XSP16, literal(-2)))
          CFI DPH0 load(1, XDATA, add(CFA_XSP16, literal(-1)))
          CFI CFA_SP SP+-2
          CFI CFA_XSP16 add(XSP16, 36)
          CFI Block cfiCond127 Using cfiCommon0
          CFI (cfiCond127) Function GAPBondMgr_ProcessGAPMsg
          CFI (cfiCond127) Conditional ??CrossCallReturnLabel_51
          CFI (cfiCond127) R6 load(1, XDATA, add(CFA_XSP16, literal(-16)))
          CFI (cfiCond127) VB load(1, XDATA, add(CFA_XSP16, literal(-15)))
          CFI (cfiCond127) V0 load(1, XDATA, add(CFA_XSP16, literal(-14)))
          CFI (cfiCond127) V1 load(1, XDATA, add(CFA_XSP16, literal(-13)))
          CFI (cfiCond127) V2 load(1, XDATA, add(CFA_XSP16, literal(-12)))
          CFI (cfiCond127) V3 load(1, XDATA, add(CFA_XSP16, literal(-11)))
          CFI (cfiCond127) V4 load(1, XDATA, add(CFA_XSP16, literal(-10)))
          CFI (cfiCond127) V5 load(1, XDATA, add(CFA_XSP16, literal(-9)))
          CFI (cfiCond127) V6 load(1, XDATA, add(CFA_XSP16, literal(-8)))
          CFI (cfiCond127) V7 load(1, XDATA, add(CFA_XSP16, literal(-7)))
          CFI (cfiCond127) R7 load(1, XDATA, add(CFA_XSP16, literal(-6)))
          CFI (cfiCond127) ?RET_LOW load(1, XDATA, add(CFA_XSP16, literal(-5)))
          CFI (cfiCond127) ?RET_HIGH load(1, XDATA, add(CFA_XSP16, literal(-4)))
          CFI (cfiCond127) ?BRET_EXT load(1, XDATA, add(CFA_XSP16, literal(-3)))
          CFI (cfiCond127) DPL0 load(1, XDATA, add(CFA_XSP16, literal(-2)))
          CFI (cfiCond127) DPH0 load(1, XDATA, add(CFA_XSP16, literal(-1)))
          CFI (cfiCond127) CFA_SP SP+-2
          CFI (cfiCond127) CFA_XSP16 add(XSP16, 36)
          CFI Block cfiCond128 Using cfiCommon0
          CFI (cfiCond128) Function gapBondMgrAddBond
          CFI (cfiCond128) Conditional ??CrossCallReturnLabel_52
          CFI (cfiCond128) R6 load(1, XDATA, add(CFA_XSP16, literal(-12)))
          CFI (cfiCond128) VB load(1, XDATA, add(CFA_XSP16, literal(-11)))
          CFI (cfiCond128) V0 load(1, XDATA, add(CFA_XSP16, literal(-10)))
          CFI (cfiCond128) V1 load(1, XDATA, add(CFA_XSP16, literal(-9)))
          CFI (cfiCond128) V2 load(1, XDATA, add(CFA_XSP16, literal(-8)))
          CFI (cfiCond128) V3 load(1, XDATA, add(CFA_XSP16, literal(-7)))
          CFI (cfiCond128) R7 load(1, XDATA, add(CFA_XSP16, literal(-6)))
          CFI (cfiCond128) ?RET_LOW load(1, XDATA, add(CFA_XSP16, literal(-5)))
          CFI (cfiCond128) ?RET_HIGH load(1, XDATA, add(CFA_XSP16, literal(-4)))
          CFI (cfiCond128) ?BRET_EXT load(1, XDATA, add(CFA_XSP16, literal(-3)))
          CFI (cfiCond128) DPL0 load(1, XDATA, add(CFA_XSP16, literal(-2)))
          CFI (cfiCond128) DPH0 load(1, XDATA, add(CFA_XSP16, literal(-1)))
          CFI (cfiCond128) CFA_SP SP+-2
          CFI (cfiCond128) CFA_XSP16 add(XSP16, 24)
          CFI Block cfiCond129 Using cfiCommon0
          CFI (cfiCond129) Function GAPBondMgr_ProcessEvent
          CFI (cfiCond129) Conditional ??CrossCallReturnLabel_53
          CFI (cfiCond129) R6 load(1, XDATA, add(CFA_XSP16, literal(-12)))
          CFI (cfiCond129) VB load(1, XDATA, add(CFA_XSP16, literal(-11)))
          CFI (cfiCond129) V0 load(1, XDATA, add(CFA_XSP16, literal(-10)))
          CFI (cfiCond129) V1 load(1, XDATA, add(CFA_XSP16, literal(-9)))
          CFI (cfiCond129) V2 load(1, XDATA, add(CFA_XSP16, literal(-8)))
          CFI (cfiCond129) V3 load(1, XDATA, add(CFA_XSP16, literal(-7)))
          CFI (cfiCond129) R7 load(1, XDATA, add(CFA_XSP16, literal(-6)))
          CFI (cfiCond129) ?RET_LOW load(1, XDATA, add(CFA_XSP16, literal(-5)))
          CFI (cfiCond129) ?RET_HIGH load(1, XDATA, add(CFA_XSP16, literal(-4)))
          CFI (cfiCond129) ?BRET_EXT load(1, XDATA, add(CFA_XSP16, literal(-3)))
          CFI (cfiCond129) DPL0 load(1, XDATA, add(CFA_XSP16, literal(-2)))
          CFI (cfiCond129) DPH0 load(1, XDATA, add(CFA_XSP16, literal(-1)))
          CFI (cfiCond129) CFA_SP SP+-2
          CFI (cfiCond129) CFA_XSP16 add(XSP16, 14)
          CFI Block cfiCond130 Using cfiCommon0
          CFI (cfiCond130) Function GAPBondMgr_ProcessEvent
          CFI (cfiCond130) Conditional ??CrossCallReturnLabel_54
          CFI (cfiCond130) R6 load(1, XDATA, add(CFA_XSP16, literal(-12)))
          CFI (cfiCond130) VB load(1, XDATA, add(CFA_XSP16, literal(-11)))
          CFI (cfiCond130) V0 load(1, XDATA, add(CFA_XSP16, literal(-10)))
          CFI (cfiCond130) V1 load(1, XDATA, add(CFA_XSP16, literal(-9)))
          CFI (cfiCond130) V2 load(1, XDATA, add(CFA_XSP16, literal(-8)))
          CFI (cfiCond130) V3 load(1, XDATA, add(CFA_XSP16, literal(-7)))
          CFI (cfiCond130) R7 load(1, XDATA, add(CFA_XSP16, literal(-6)))
          CFI (cfiCond130) ?RET_LOW load(1, XDATA, add(CFA_XSP16, literal(-5)))
          CFI (cfiCond130) ?RET_HIGH load(1, XDATA, add(CFA_XSP16, literal(-4)))
          CFI (cfiCond130) ?BRET_EXT load(1, XDATA, add(CFA_XSP16, literal(-3)))
          CFI (cfiCond130) DPL0 load(1, XDATA, add(CFA_XSP16, literal(-2)))
          CFI (cfiCond130) DPH0 load(1, XDATA, add(CFA_XSP16, literal(-1)))
          CFI (cfiCond130) CFA_SP SP+-2
          CFI (cfiCond130) CFA_XSP16 add(XSP16, 12)
          CFI Block cfiCond131 Using cfiCommon0
          CFI (cfiCond131) Function gapBondMgrSendServiceChange
          CFI (cfiCond131) Conditional ??CrossCallReturnLabel_55
          CFI (cfiCond131) DPL0 Frame(CFA_SP, 4)
          CFI (cfiCond131) DPH0 Frame(CFA_SP, 5)
          CFI (cfiCond131) CFA_SP SP+-7
          CFI Block cfiCond132 Using cfiCommon0
          CFI (cfiCond132) Function gapBondMgr_SyncCharCfg
          CFI (cfiCond132) Conditional ??CrossCallReturnLabel_56
          CFI (cfiCond132) R6 load(1, XDATA, add(CFA_XSP16, literal(-10)))
          CFI (cfiCond132) VB load(1, XDATA, add(CFA_XSP16, literal(-9)))
          CFI (cfiCond132) V0 load(1, XDATA, add(CFA_XSP16, literal(-8)))
          CFI (cfiCond132) V1 load(1, XDATA, add(CFA_XSP16, literal(-7)))
          CFI (cfiCond132) R7 load(1, XDATA, add(CFA_XSP16, literal(-6)))
          CFI (cfiCond132) ?RET_LOW load(1, XDATA, add(CFA_XSP16, literal(-5)))
          CFI (cfiCond132) ?RET_HIGH load(1, XDATA, add(CFA_XSP16, literal(-4)))
          CFI (cfiCond132) ?BRET_EXT load(1, XDATA, add(CFA_XSP16, literal(-3)))
          CFI (cfiCond132) DPL0 load(1, XDATA, add(CFA_XSP16, literal(-2)))
          CFI (cfiCond132) DPH0 load(1, XDATA, add(CFA_XSP16, literal(-1)))
          CFI (cfiCond132) CFA_SP SP+-2
          CFI (cfiCond132) CFA_XSP16 add(XSP16, 17)
          CFI Block cfiCond133 Using cfiCommon0
          CFI (cfiCond133) Function gapBondFreeAuthEvt
          CFI (cfiCond133) Conditional ??CrossCallReturnLabel_57
          CFI (cfiCond133) DPL0 Frame(CFA_SP, 4)
          CFI (cfiCond133) DPH0 Frame(CFA_SP, 5)
          CFI (cfiCond133) CFA_SP SP+-7
          CFI Block cfiCond134 Using cfiCommon0
          CFI (cfiCond134) Function GAPBondMgr_ProcessGAPMsg
          CFI (cfiCond134) Conditional ??CrossCallReturnLabel_58
          CFI (cfiCond134) R6 load(1, XDATA, add(CFA_XSP16, literal(-16)))
          CFI (cfiCond134) VB load(1, XDATA, add(CFA_XSP16, literal(-15)))
          CFI (cfiCond134) V0 load(1, XDATA, add(CFA_XSP16, literal(-14)))
          CFI (cfiCond134) V1 load(1, XDATA, add(CFA_XSP16, literal(-13)))
          CFI (cfiCond134) V2 load(1, XDATA, add(CFA_XSP16, literal(-12)))
          CFI (cfiCond134) V3 load(1, XDATA, add(CFA_XSP16, literal(-11)))
          CFI (cfiCond134) V4 load(1, XDATA, add(CFA_XSP16, literal(-10)))
          CFI (cfiCond134) V5 load(1, XDATA, add(CFA_XSP16, literal(-9)))
          CFI (cfiCond134) V6 load(1, XDATA, add(CFA_XSP16, literal(-8)))
          CFI (cfiCond134) V7 load(1, XDATA, add(CFA_XSP16, literal(-7)))
          CFI (cfiCond134) R7 load(1, XDATA, add(CFA_XSP16, literal(-6)))
          CFI (cfiCond134) ?RET_LOW load(1, XDATA, add(CFA_XSP16, literal(-5)))
          CFI (cfiCond134) ?RET_HIGH load(1, XDATA, add(CFA_XSP16, literal(-4)))
          CFI (cfiCond134) ?BRET_EXT load(1, XDATA, add(CFA_XSP16, literal(-3)))
          CFI (cfiCond134) DPL0 load(1, XDATA, add(CFA_XSP16, literal(-2)))
          CFI (cfiCond134) DPH0 load(1, XDATA, add(CFA_XSP16, literal(-1)))
          CFI (cfiCond134) CFA_SP SP+-2
          CFI (cfiCond134) CFA_XSP16 add(XSP16, 36)
          CFI Block cfiCond135 Using cfiCommon0
          CFI (cfiCond135) Function GAPBondMgr_ProcessGAPMsg
          CFI (cfiCond135) Conditional ??CrossCallReturnLabel_59
          CFI (cfiCond135) R6 load(1, XDATA, add(CFA_XSP16, literal(-16)))
          CFI (cfiCond135) VB load(1, XDATA, add(CFA_XSP16, literal(-15)))
          CFI (cfiCond135) V0 load(1, XDATA, add(CFA_XSP16, literal(-14)))
          CFI (cfiCond135) V1 load(1, XDATA, add(CFA_XSP16, literal(-13)))
          CFI (cfiCond135) V2 load(1, XDATA, add(CFA_XSP16, literal(-12)))
          CFI (cfiCond135) V3 load(1, XDATA, add(CFA_XSP16, literal(-11)))
          CFI (cfiCond135) V4 load(1, XDATA, add(CFA_XSP16, literal(-10)))
          CFI (cfiCond135) V5 load(1, XDATA, add(CFA_XSP16, literal(-9)))
          CFI (cfiCond135) V6 load(1, XDATA, add(CFA_XSP16, literal(-8)))
          CFI (cfiCond135) V7 load(1, XDATA, add(CFA_XSP16, literal(-7)))
          CFI (cfiCond135) R7 load(1, XDATA, add(CFA_XSP16, literal(-6)))
          CFI (cfiCond135) ?RET_LOW load(1, XDATA, add(CFA_XSP16, literal(-5)))
          CFI (cfiCond135) ?RET_HIGH load(1, XDATA, add(CFA_XSP16, literal(-4)))
          CFI (cfiCond135) ?BRET_EXT load(1, XDATA, add(CFA_XSP16, literal(-3)))
          CFI (cfiCond135) DPL0 load(1, XDATA, add(CFA_XSP16, literal(-2)))
          CFI (cfiCond135) DPH0 load(1, XDATA, add(CFA_XSP16, literal(-1)))
          CFI (cfiCond135) CFA_SP SP+-2
          CFI (cfiCond135) CFA_XSP16 add(XSP16, 36)
          CFI Block cfiCond136 Using cfiCommon0
          CFI (cfiCond136) Function GAPBondMgr_ProcessGAPMsg
          CFI (cfiCond136) Conditional ??CrossCallReturnLabel_60
          CFI (cfiCond136) R6 load(1, XDATA, add(CFA_XSP16, literal(-16)))
          CFI (cfiCond136) VB load(1, XDATA, add(CFA_XSP16, literal(-15)))
          CFI (cfiCond136) V0 load(1, XDATA, add(CFA_XSP16, literal(-14)))
          CFI (cfiCond136) V1 load(1, XDATA, add(CFA_XSP16, literal(-13)))
          CFI (cfiCond136) V2 load(1, XDATA, add(CFA_XSP16, literal(-12)))
          CFI (cfiCond136) V3 load(1, XDATA, add(CFA_XSP16, literal(-11)))
          CFI (cfiCond136) V4 load(1, XDATA, add(CFA_XSP16, literal(-10)))
          CFI (cfiCond136) V5 load(1, XDATA, add(CFA_XSP16, literal(-9)))
          CFI (cfiCond136) V6 load(1, XDATA, add(CFA_XSP16, literal(-8)))
          CFI (cfiCond136) V7 load(1, XDATA, add(CFA_XSP16, literal(-7)))
          CFI (cfiCond136) R7 load(1, XDATA, add(CFA_XSP16, literal(-6)))
          CFI (cfiCond136) ?RET_LOW load(1, XDATA, add(CFA_XSP16, literal(-5)))
          CFI (cfiCond136) ?RET_HIGH load(1, XDATA, add(CFA_XSP16, literal(-4)))
          CFI (cfiCond136) ?BRET_EXT load(1, XDATA, add(CFA_XSP16, literal(-3)))
          CFI (cfiCond136) DPL0 load(1, XDATA, add(CFA_XSP16, literal(-2)))
          CFI (cfiCond136) DPH0 load(1, XDATA, add(CFA_XSP16, literal(-1)))
          CFI (cfiCond136) CFA_SP SP+-2
          CFI (cfiCond136) CFA_XSP16 add(XSP16, 36)
          CFI Block cfiCond137 Using cfiCommon0
          CFI (cfiCond137) Function GAPBondMgr_ProcessGAPMsg
          CFI (cfiCond137) Conditional ??CrossCallReturnLabel_61
          CFI (cfiCond137) R6 load(1, XDATA, add(CFA_XSP16, literal(-16)))
          CFI (cfiCond137) VB load(1, XDATA, add(CFA_XSP16, literal(-15)))
          CFI (cfiCond137) V0 load(1, XDATA, add(CFA_XSP16, literal(-14)))
          CFI (cfiCond137) V1 load(1, XDATA, add(CFA_XSP16, literal(-13)))
          CFI (cfiCond137) V2 load(1, XDATA, add(CFA_XSP16, literal(-12)))
          CFI (cfiCond137) V3 load(1, XDATA, add(CFA_XSP16, literal(-11)))
          CFI (cfiCond137) V4 load(1, XDATA, add(CFA_XSP16, literal(-10)))
          CFI (cfiCond137) V5 load(1, XDATA, add(CFA_XSP16, literal(-9)))
          CFI (cfiCond137) V6 load(1, XDATA, add(CFA_XSP16, literal(-8)))
          CFI (cfiCond137) V7 load(1, XDATA, add(CFA_XSP16, literal(-7)))
          CFI (cfiCond137) R7 load(1, XDATA, add(CFA_XSP16, literal(-6)))
          CFI (cfiCond137) ?RET_LOW load(1, XDATA, add(CFA_XSP16, literal(-5)))
          CFI (cfiCond137) ?RET_HIGH load(1, XDATA, add(CFA_XSP16, literal(-4)))
          CFI (cfiCond137) ?BRET_EXT load(1, XDATA, add(CFA_XSP16, literal(-3)))
          CFI (cfiCond137) DPL0 load(1, XDATA, add(CFA_XSP16, literal(-2)))
          CFI (cfiCond137) DPH0 load(1, XDATA, add(CFA_XSP16, literal(-1)))
          CFI (cfiCond137) CFA_SP SP+-2
          CFI (cfiCond137) CFA_XSP16 add(XSP16, 36)
          CFI Block cfiCond138 Using cfiCommon0
          CFI (cfiCond138) Function GAPBondMgr_ProcessGAPMsg
          CFI (cfiCond138) Conditional ??CrossCallReturnLabel_62
          CFI (cfiCond138) R6 load(1, XDATA, add(CFA_XSP16, literal(-16)))
          CFI (cfiCond138) VB load(1, XDATA, add(CFA_XSP16, literal(-15)))
          CFI (cfiCond138) V0 load(1, XDATA, add(CFA_XSP16, literal(-14)))
          CFI (cfiCond138) V1 load(1, XDATA, add(CFA_XSP16, literal(-13)))
          CFI (cfiCond138) V2 load(1, XDATA, add(CFA_XSP16, literal(-12)))
          CFI (cfiCond138) V3 load(1, XDATA, add(CFA_XSP16, literal(-11)))
          CFI (cfiCond138) V4 load(1, XDATA, add(CFA_XSP16, literal(-10)))
          CFI (cfiCond138) V5 load(1, XDATA, add(CFA_XSP16, literal(-9)))
          CFI (cfiCond138) V6 load(1, XDATA, add(CFA_XSP16, literal(-8)))
          CFI (cfiCond138) V7 load(1, XDATA, add(CFA_XSP16, literal(-7)))
          CFI (cfiCond138) R7 load(1, XDATA, add(CFA_XSP16, literal(-6)))
          CFI (cfiCond138) ?RET_LOW load(1, XDATA, add(CFA_XSP16, literal(-5)))
          CFI (cfiCond138) ?RET_HIGH load(1, XDATA, add(CFA_XSP16, literal(-4)))
          CFI (cfiCond138) ?BRET_EXT load(1, XDATA, add(CFA_XSP16, literal(-3)))
          CFI (cfiCond138) DPL0 load(1, XDATA, add(CFA_XSP16, literal(-2)))
          CFI (cfiCond138) DPH0 load(1, XDATA, add(CFA_XSP16, literal(-1)))
          CFI (cfiCond138) CFA_SP SP+-2
          CFI (cfiCond138) CFA_XSP16 add(XSP16, 36)
          CFI Block cfiCond139 Using cfiCommon0
          CFI (cfiCond139) Function GAPBondMgr_ProcessGAPMsg
          CFI (cfiCond139) Conditional ??CrossCallReturnLabel_63
          CFI (cfiCond139) R6 load(1, XDATA, add(CFA_XSP16, literal(-16)))
          CFI (cfiCond139) VB load(1, XDATA, add(CFA_XSP16, literal(-15)))
          CFI (cfiCond139) V0 load(1, XDATA, add(CFA_XSP16, literal(-14)))
          CFI (cfiCond139) V1 load(1, XDATA, add(CFA_XSP16, literal(-13)))
          CFI (cfiCond139) V2 load(1, XDATA, add(CFA_XSP16, literal(-12)))
          CFI (cfiCond139) V3 load(1, XDATA, add(CFA_XSP16, literal(-11)))
          CFI (cfiCond139) V4 load(1, XDATA, add(CFA_XSP16, literal(-10)))
          CFI (cfiCond139) V5 load(1, XDATA, add(CFA_XSP16, literal(-9)))
          CFI (cfiCond139) V6 load(1, XDATA, add(CFA_XSP16, literal(-8)))
          CFI (cfiCond139) V7 load(1, XDATA, add(CFA_XSP16, literal(-7)))
          CFI (cfiCond139) R7 load(1, XDATA, add(CFA_XSP16, literal(-6)))
          CFI (cfiCond139) ?RET_LOW load(1, XDATA, add(CFA_XSP16, literal(-5)))
          CFI (cfiCond139) ?RET_HIGH load(1, XDATA, add(CFA_XSP16, literal(-4)))
          CFI (cfiCond139) ?BRET_EXT load(1, XDATA, add(CFA_XSP16, literal(-3)))
          CFI (cfiCond139) DPL0 load(1, XDATA, add(CFA_XSP16, literal(-2)))
          CFI (cfiCond139) DPH0 load(1, XDATA, add(CFA_XSP16, literal(-1)))
          CFI (cfiCond139) CFA_SP SP+-2
          CFI (cfiCond139) CFA_XSP16 add(XSP16, 36)
          CFI Block cfiCond140 Using cfiCommon0
          CFI (cfiCond140) Function GAPBondMgr_ProcessGAPMsg
          CFI (cfiCond140) Conditional ??CrossCallReturnLabel_64
          CFI (cfiCond140) R6 load(1, XDATA, add(CFA_XSP16, literal(-16)))
          CFI (cfiCond140) VB load(1, XDATA, add(CFA_XSP16, literal(-15)))
          CFI (cfiCond140) V0 load(1, XDATA, add(CFA_XSP16, literal(-14)))
          CFI (cfiCond140) V1 load(1, XDATA, add(CFA_XSP16, literal(-13)))
          CFI (cfiCond140) V2 load(1, XDATA, add(CFA_XSP16, literal(-12)))
          CFI (cfiCond140) V3 load(1, XDATA, add(CFA_XSP16, literal(-11)))
          CFI (cfiCond140) V4 load(1, XDATA, add(CFA_XSP16, literal(-10)))
          CFI (cfiCond140) V5 load(1, XDATA, add(CFA_XSP16, literal(-9)))
          CFI (cfiCond140) V6 load(1, XDATA, add(CFA_XSP16, literal(-8)))
          CFI (cfiCond140) V7 load(1, XDATA, add(CFA_XSP16, literal(-7)))
          CFI (cfiCond140) R7 load(1, XDATA, add(CFA_XSP16, literal(-6)))
          CFI (cfiCond140) ?RET_LOW load(1, XDATA, add(CFA_XSP16, literal(-5)))
          CFI (cfiCond140) ?RET_HIGH load(1, XDATA, add(CFA_XSP16, literal(-4)))
          CFI (cfiCond140) ?BRET_EXT load(1, XDATA, add(CFA_XSP16, literal(-3)))
          CFI (cfiCond140) DPL0 load(1, XDATA, add(CFA_XSP16, literal(-2)))
          CFI (cfiCond140) DPH0 load(1, XDATA, add(CFA_XSP16, literal(-1)))
          CFI (cfiCond140) CFA_SP SP+-2
          CFI (cfiCond140) CFA_XSP16 add(XSP16, 36)
          CFI Block cfiPicker141 Using cfiCommon1
          CFI (cfiPicker141) NoFunction
          CFI (cfiPicker141) Picker
        MOVX    A,@DPTR
        MOV     R2,A
        INC     DPTR
        MOVX    A,@DPTR
        MOV     R3,A
        RET
          CFI EndBlock cfiCond126
          CFI EndBlock cfiCond127
          CFI EndBlock cfiCond128
          CFI EndBlock cfiCond129
          CFI EndBlock cfiCond130
          CFI EndBlock cfiCond131
          CFI EndBlock cfiCond132
          CFI EndBlock cfiCond133
          CFI EndBlock cfiCond134
          CFI EndBlock cfiCond135
          CFI EndBlock cfiCond136
          CFI EndBlock cfiCond137
          CFI EndBlock cfiCond138
          CFI EndBlock cfiCond139
          CFI EndBlock cfiCond140
          CFI EndBlock cfiPicker141
// 1963 
// 1964 /*********************************************************************
// 1965  * @fn      gapBondSetupPrivFlag
// 1966  *
// 1967  * @brief   Setup the GAP Privacy Flag properties.
// 1968  *
// 1969  * @param   none
// 1970  *
// 1971  * @return  none
// 1972  */

        RSEG BANKED_CODE:CODE:NOROOT(0)
// 1973 static void gapBondSetupPrivFlag( void )
gapBondSetupPrivFlag:
          CFI Block cfiBlock142 Using cfiCommon0
          CFI Function gapBondSetupPrivFlag
        CODE
// 1974 {
        FUNCALL gapBondSetupPrivFlag, gapBondMgrBondTotal
        LOCFRAME ISTACK, 2, STACK
        LOCFRAME PSTACK, 0, STACK
        LOCFRAME XSTACK, 1, STACK
        LOCFRAME IOVERLAY, 0, STATIC
        LOCFRAME DOVERLAY, 0, STATIC
        ARGFRAME ISTACK, 2, STACK
        ARGFRAME PSTACK, 0, STACK
        ARGFRAME XSTACK, 1, STACK
        ARGFRAME IOVERLAY, 0, STATIC
        ARGFRAME DOVERLAY, 0, STATIC
        FUNCALL gapBondSetupPrivFlag, GGS_SetParameter
        LOCFRAME ISTACK, 2, STACK
        LOCFRAME PSTACK, 0, STACK
        LOCFRAME XSTACK, 1, STACK
        LOCFRAME IOVERLAY, 0, STATIC
        LOCFRAME DOVERLAY, 0, STATIC
        ARGFRAME ISTACK, 2, STACK
        ARGFRAME PSTACK, 0, STACK
        ARGFRAME XSTACK, 1, STACK
        ARGFRAME IOVERLAY, 0, STATIC
        ARGFRAME DOVERLAY, 0, STATIC
        PUSH    DPL
          CFI DPL0 Frame(CFA_SP, 4)
          CFI CFA_SP SP+-4
        PUSH    DPH
          CFI DPH0 Frame(CFA_SP, 5)
          CFI CFA_SP SP+-5
        ; Saved register size: 2
        ; Auto size: 1
        MOV     A,#-0x1
        LCALL   ?ALLOC_XSTACK8
          CFI CFA_XSP16 add(XSP16, 1)
// 1975   uint8 privFlagProp;
// 1976 
// 1977   if ( gapBondMgrBondTotal() > 1 )
        ; Setup parameters for call to function gapBondMgrBondTotal
        LCALL   ??gapBondMgrBondTotal?relay; Banked call to: gapBondMgrBondTotal
        MOV     A,R1
        CLR     C
        SUBB    A,#0x2
        MOV     DPL,?XSP + 0
        MOV     DPH,?XSP + 1
        JC      ??gapBondSetupPrivFlag_0
// 1978   {
// 1979     privFlagProp = GATT_PROP_READ;
        MOV     A,#0x2
        SJMP    ??gapBondSetupPrivFlag_1
// 1980   }
// 1981   else
// 1982   {
// 1983     privFlagProp = GATT_PROP_READ | GATT_PROP_WRITE;
??gapBondSetupPrivFlag_0:
        MOV     A,#0xa
??gapBondSetupPrivFlag_1:
        MOVX    @DPTR,A
// 1984   }
// 1985 
// 1986   // Setup the
// 1987   VOID GGS_SetParameter( GGS_PERI_PRIVACY_FLAG_PROPS, sizeof ( uint8 ), &privFlagProp );
        ; Setup parameters for call to function GGS_SetParameter
        MOV     R4,?XSP + 0
        MOV     R5,?XSP + 1
        MOV     R2,#0x1
        MOV     R1,#0x5
        LCALL   ??GGS_SetParameter?relay; Banked call to: GGS_SetParameter
// 1988 }
        MOV     A,#0x1
        LCALL   ?DEALLOC_XSTACK8
          CFI EndBlock cfiBlock142
        REQUIRE ?Subroutine4
        ; // Fall through to label ?Subroutine4

        RSEG BANKED_CODE:CODE:NOROOT(0)
?Subroutine4:
          CFI Block cfiBlock143 Using cfiCommon0
          CFI NoFunction
          CFI CFA_SP SP+-5
          CFI DPL0 Frame(CFA_SP, 4)
          CFI DPH0 Frame(CFA_SP, 5)
        POP     DPH
          CFI CFA_SP SP+-4
          CFI DPH0 SameValue
        POP     DPL
          CFI CFA_SP SP+-3
          CFI DPL0 SameValue
        LJMP    ?BRET
          CFI EndBlock cfiBlock143
// 1989 
// 1990 /*********************************************************************
// 1991  * @fn      gapBondMgrAuthenticate
// 1992  *
// 1993  * @brief   Initiate authentication
// 1994  *
// 1995  * @param   connHandle - connection handle
// 1996  * @param   addrType - peer address type
// 1997  * @param   pPairReq - Enter these parameters if the Pairing Request was already received.
// 1998  *          NULL, if waiting for Pairing Request or if initiating.
// 1999  *
// 2000  * @return  none
// 2001  */

        RSEG BANKED_CODE:CODE:NOROOT(0)
// 2002 static void gapBondMgrAuthenticate( uint16 connHandle, uint8 addrType,
gapBondMgrAuthenticate:
          CFI Block cfiBlock144 Using cfiCommon0
          CFI Function gapBondMgrAuthenticate
        CODE
// 2003                                     gapPairingReq_t *pPairReq )
// 2004 {
        FUNCALL gapBondMgrAuthenticate, osal_memset
        LOCFRAME ISTACK, 0, STACK
        LOCFRAME PSTACK, 0, STACK
        LOCFRAME XSTACK, 36, STACK
        LOCFRAME IOVERLAY, 0, STATIC
        LOCFRAME DOVERLAY, 0, STATIC
        ARGFRAME ISTACK, 0, STACK
        ARGFRAME PSTACK, 0, STACK
        ARGFRAME XSTACK, 36, STACK
        ARGFRAME IOVERLAY, 0, STATIC
        ARGFRAME DOVERLAY, 0, STATIC
        FUNCALL gapBondMgrAuthenticate, osal_memcpy
        LOCFRAME ISTACK, 0, STACK
        LOCFRAME PSTACK, 0, STACK
        LOCFRAME XSTACK, 38, STACK
        LOCFRAME IOVERLAY, 0, STATIC
        LOCFRAME DOVERLAY, 0, STATIC
        ARGFRAME ISTACK, 0, STACK
        ARGFRAME PSTACK, 0, STACK
        ARGFRAME XSTACK, 38, STACK
        ARGFRAME IOVERLAY, 0, STATIC
        ARGFRAME DOVERLAY, 0, STATIC
        FUNCALL gapBondMgrAuthenticate, GAP_Authenticate
        LOCFRAME ISTACK, 0, STACK
        LOCFRAME PSTACK, 0, STACK
        LOCFRAME XSTACK, 36, STACK
        LOCFRAME IOVERLAY, 0, STATIC
        LOCFRAME DOVERLAY, 0, STATIC
        ARGFRAME ISTACK, 0, STACK
        ARGFRAME PSTACK, 0, STACK
        ARGFRAME XSTACK, 36, STACK
        ARGFRAME IOVERLAY, 0, STATIC
        ARGFRAME DOVERLAY, 0, STATIC
        REQUIRE ?V0
        REQUIRE ?V1
        REQUIRE ?V2
        REQUIRE ?V3
        MOV     A,#-0xc
        LCALL   ?BANKED_ENTER_XDATA
          CFI DPH0 load(1, XDATA, add(CFA_XSP16, literal(-1)))
          CFI DPL0 load(1, XDATA, add(CFA_XSP16, literal(-2)))
          CFI ?BRET_EXT load(1, XDATA, add(CFA_XSP16, literal(-3)))
          CFI ?RET_HIGH load(1, XDATA, add(CFA_XSP16, literal(-4)))
          CFI ?RET_LOW load(1, XDATA, add(CFA_XSP16, literal(-5)))
          CFI R7 load(1, XDATA, add(CFA_XSP16, literal(-6)))
          CFI V3 load(1, XDATA, add(CFA_XSP16, literal(-7)))
          CFI V2 load(1, XDATA, add(CFA_XSP16, literal(-8)))
          CFI V1 load(1, XDATA, add(CFA_XSP16, literal(-9)))
          CFI V0 load(1, XDATA, add(CFA_XSP16, literal(-10)))
          CFI VB load(1, XDATA, add(CFA_XSP16, literal(-11)))
          CFI R6 load(1, XDATA, add(CFA_XSP16, literal(-12)))
          CFI CFA_SP SP+0
          CFI CFA_XSP16 add(XSP16, 12)
        ; Saved register size: 12
        ; Auto size: 24
        MOV     A,#-0x18
        LCALL   ?ALLOC_XSTACK8
          CFI CFA_XSP16 add(XSP16, 36)
        MOV     ?V0,R2
        MOV     ?V1,R3
        MOV     A,R1
        MOV     R6,A
        MOV     ?V2,R4
        MOV     ?V3,R5
// 2005   gapAuthParams_t params;
// 2006 
// 2007   VOID osal_memset( &params, 0, sizeof ( gapAuthParams_t ) );
        ; Setup parameters for call to function osal_memset
        MOV     R4,#0x18
        MOV     R5,#0x0
        MOV     R1,#0x0
        MOV     R2,?XSP + 0
        MOV     R3,?XSP + 1
        LCALL   ??osal_memset?relay  ; Banked call to: osal_memset
// 2008 
// 2009   // Setup the pairing parameters
// 2010   params.connectionHandle = connHandle;
        MOV     DPL,?XSP + 0
        MOV     DPH,?XSP + 1
        MOV     A,?V0
        MOVX    @DPTR,A
        INC     DPTR
        MOV     A,?V1
        MOVX    @DPTR,A
// 2011   params.secReqs.ioCaps = gapBond_IOCap;
        MOV     DPTR,#gapBond_IOCap
        MOVX    A,@DPTR
        PUSH    A
          CFI CFA_SP SP+-1
        MOV     A,#0x2
        LCALL   ?XSTACK_DISP0_8
        POP     A
          CFI CFA_SP SP+0
        MOVX    @DPTR,A
// 2012   params.secReqs.oobAvailable = gapBond_OOBDataFlag;
        MOV     DPTR,#gapBond_OOBDataFlag
        MOVX    A,@DPTR
        PUSH    A
          CFI CFA_SP SP+-1
        MOV     A,#0x3
        LCALL   ?XSTACK_DISP0_8
        POP     A
          CFI CFA_SP SP+0
        MOVX    @DPTR,A
// 2013   params.secReqs.maxEncKeySize = gapBond_KeySize;
        MOV     DPTR,#gapBond_KeySize
        MOVX    A,@DPTR
        PUSH    A
          CFI CFA_SP SP+-1
        MOV     A,#0x17
        LCALL   ?XSTACK_DISP0_8
        POP     A
          CFI CFA_SP SP+0
        MOVX    @DPTR,A
// 2014 
// 2015   params.secReqs.keyDist.sEncKey = (gapBond_KeyDistList & GAPBOND_KEYDIST_SENCKEY) ? TRUE : FALSE;
        MOV     A,#0x15
        LCALL   ?XSTACK_DISP0_8
        MOVX    A,@DPTR
        ANL     A,#0xfe
        MOV     R0,A
        INC     DPTR
        MOVX    A,@DPTR
        MOV     R1,A
        MOV     DPTR,#gapBond_KeyDistList
        MOVX    A,@DPTR
        MOV     C,0xE0 /* A   */.0
        CLR     A
        RLC     A
        MOV     R2,A
        MOV     A,R0
        ORL     A,R2
        MOV     R0,A
        MOV     A,#0x15
        LCALL   ?XSTACK_DISP0_8
        LCALL   ?Subroutine17 & 0xFFFF
// 2016   params.secReqs.keyDist.sIdKey = (gapBond_KeyDistList & GAPBOND_KEYDIST_SIDKEY) ? TRUE : FALSE;
??CrossCallReturnLabel_22:
        MOV     C,0xE0 /* A   */.1
        JNC     ??gapBondMgrAuthenticate_0
        SETB    B.0
        SJMP    ??gapBondMgrAuthenticate_1
??gapBondMgrAuthenticate_0:
        CLR     B.0
??gapBondMgrAuthenticate_1:
        MOV     A,R0
        ANL     A,#0xfd
        MOV     R2,A
        MOV     C,B.0
        CLR     A
        RLC     A
        ADD     A,0xE0 /* A   */
        MOV     R0,A
        MOV     A,R2
        ORL     A,R0
        MOV     R0,A
        MOV     A,#0x15
        LCALL   ?XSTACK_DISP0_8
        LCALL   ?Subroutine17 & 0xFFFF
// 2017   params.secReqs.keyDist.mEncKey = (gapBond_KeyDistList & GAPBOND_KEYDIST_MENCKEY) ? TRUE : FALSE;
??CrossCallReturnLabel_23:
        MOV     C,0xE0 /* A   */.3
        JNC     ??gapBondMgrAuthenticate_2
        SETB    B.0
        SJMP    ??gapBondMgrAuthenticate_3
??gapBondMgrAuthenticate_2:
        CLR     B.0
??gapBondMgrAuthenticate_3:
        MOV     A,R0
        ANL     A,#0xf7
        MOV     R2,A
        MOV     C,B.0
        CLR     A
        RLC     A
        MOV     ?V0,A
        MOV     ?V1,#0x0
        MOV     A,#0x3
        MOV     R0,#?V0
        LCALL   ?S_SHL
        LCALL   ?Subroutine21 & 0xFFFF
??CrossCallReturnLabel_34:
        LCALL   ?XSTACK_DISP0_8
        LCALL   ?Subroutine17 & 0xFFFF
// 2018   params.secReqs.keyDist.mIdKey = (gapBond_KeyDistList & GAPBOND_KEYDIST_MIDKEY) ? TRUE : FALSE;
??CrossCallReturnLabel_24:
        MOV     C,0xE0 /* A   */.4
        JNC     ??gapBondMgrAuthenticate_4
        SETB    B.0
        SJMP    ??gapBondMgrAuthenticate_5
??gapBondMgrAuthenticate_4:
        CLR     B.0
??gapBondMgrAuthenticate_5:
        MOV     A,R0
        ANL     A,#0xef
        MOV     R2,A
        MOV     C,B.0
        CLR     A
        RLC     A
        MOV     ?V0,A
        MOV     A,#0x4
        MOV     R0,#?V0
        LCALL   ?S_SHL
        LCALL   ?Subroutine21 & 0xFFFF
??CrossCallReturnLabel_35:
        LCALL   ?XSTACK_DISP0_8
        LCALL   ?Subroutine17 & 0xFFFF
// 2019   params.secReqs.keyDist.mSign = (gapBond_KeyDistList & GAPBOND_KEYDIST_MSIGN) ? TRUE : FALSE;
??CrossCallReturnLabel_25:
        MOV     C,0xE0 /* A   */.5
        JNC     ??gapBondMgrAuthenticate_6
        SETB    B.0
        SJMP    ??gapBondMgrAuthenticate_7
??gapBondMgrAuthenticate_6:
        CLR     B.0
??gapBondMgrAuthenticate_7:
        MOV     A,R0
        ANL     A,#0xdf
        MOV     R2,A
        MOV     C,B.0
        CLR     A
        RLC     A
        MOV     ?V0,A
        MOV     A,#0x5
        MOV     R0,#?V0
        LCALL   ?S_SHL
        LCALL   ?Subroutine21 & 0xFFFF
??CrossCallReturnLabel_36:
        LCALL   ?XSTACK_DISP0_8
        LCALL   ?Subroutine17 & 0xFFFF
// 2020   params.secReqs.keyDist.sSign = (gapBond_KeyDistList & GAPBOND_KEYDIST_SSIGN) ? TRUE : FALSE;
??CrossCallReturnLabel_26:
        MOV     C,0xE0 /* A   */.2
        JNC     ??gapBondMgrAuthenticate_8
        SETB    B.0
        SJMP    ??gapBondMgrAuthenticate_9
??gapBondMgrAuthenticate_8:
        CLR     B.0
??gapBondMgrAuthenticate_9:
        MOV     A,R0
        ANL     A,#0xfb
        MOV     R2,A
        MOV     C,B.0
        CLR     A
        RLC     A
        MOV     ?V0,A
        MOV     A,#0x2
        MOV     R0,#?V0
        LCALL   ?S_SHL
        LCALL   ?Subroutine21 & 0xFFFF
??CrossCallReturnLabel_37:
        LCALL   ?XSTACK_DISP0_8
        MOV     A,R0
        MOVX    @DPTR,A
        INC     DPTR
        MOV     A,R1
        MOVX    @DPTR,A
// 2021 
// 2022   // Is bond manager setup for OOB data?
// 2023   if ( gapBond_OOBDataFlag )
        MOV     DPTR,#gapBond_OOBDataFlag
        MOVX    A,@DPTR
        JZ      ??gapBondMgrAuthenticate_10
// 2024   {
// 2025     VOID osal_memcpy( params.secReqs.oob, gapBond_OOBData, KEYLEN );
        ; Setup parameters for call to function osal_memcpy
        MOV     ?V0,#0x10
        MOV     R0,#?V0
        LCALL   ?PUSH_XSTACK_I_TWO
          CFI CFA_XSP16 add(XSP16, 38)
        MOV     R4,#gapBond_OOBData & 0xff
        MOV     R5,#(gapBond_OOBData >> 8) & 0xff
        MOV     A,#0x6
        LCALL   ?XSTACK_DISP0_8
        MOV     R2,DPL
        MOV     R3,DPH
        LCALL   ??osal_memcpy?relay  ; Banked call to: osal_memcpy
        MOV     A,#0x2
        LCALL   ?DEALLOC_XSTACK8
          CFI CFA_XSP16 add(XSP16, 36)
// 2026   }
// 2027 
// 2028   if ( gapBond_Bonding && addrType != ADDRTYPE_PUBLIC )
??gapBondMgrAuthenticate_10:
        MOV     DPTR,#gapBond_Bonding
        MOVX    A,@DPTR
        JZ      ??gapBondMgrAuthenticate_11
        MOV     A,R6
        JZ      ??gapBondMgrAuthenticate_12
// 2029   {
// 2030     // Force a slave ID key
// 2031     params.secReqs.keyDist.sIdKey = TRUE;
        MOV     A,#0x15
        LCALL   ?XSTACK_DISP0_8
        MOVX    A,@DPTR
        ORL     A,#0x2
        MOVX    @DPTR,A
??gapBondMgrAuthenticate_12:
        MOV     R0,#0x1
        SJMP    ??gapBondMgrAuthenticate_13
// 2032   }
??gapBondMgrAuthenticate_11:
        MOV     R0,#0x0
??gapBondMgrAuthenticate_13:
        MOV     A,#0x14
        LCALL   ?XSTACK_DISP0_8
        MOVX    A,@DPTR
        ORL     A,R0
        MOVX    @DPTR,A
// 2033 
// 2034   params.secReqs.authReq |= (gapBond_Bonding) ? SM_AUTH_STATE_BONDING : 0;
// 2035   params.secReqs.authReq |= (gapBond_MITM) ? SM_AUTH_STATE_AUTHENTICATED : 0;
        MOV     DPTR,#gapBond_MITM
        MOVX    A,@DPTR
        JZ      ??gapBondMgrAuthenticate_14
        MOV     R0,#0x4
        SJMP    ??gapBondMgrAuthenticate_15
??gapBondMgrAuthenticate_14:
        MOV     R0,#0x0
??gapBondMgrAuthenticate_15:
        MOV     A,#0x14
        LCALL   ?XSTACK_DISP0_8
        MOVX    A,@DPTR
        ORL     A,R0
        MOVX    @DPTR,A
// 2036 
// 2037   VOID GAP_Authenticate( &params, pPairReq );
        ; Setup parameters for call to function GAP_Authenticate
        MOV     R4,?V2
        MOV     R5,?V3
        MOV     R2,?XSP + 0
        MOV     R3,?XSP + 1
        LCALL   ??GAP_Authenticate?relay; Banked call to: GAP_Authenticate
// 2038 }
        MOV     A,#0x18
        LJMP    ??Subroutine29_0 & 0xFFFF
          CFI EndBlock cfiBlock144

        RSEG BANKED_CODE:CODE:NOROOT(0)
?Subroutine21:
          CFI Block cfiCond145 Using cfiCommon0
          CFI Function gapBondMgrAuthenticate
          CFI Conditional ??CrossCallReturnLabel_34
          CFI R6 load(1, XDATA, add(CFA_XSP16, literal(-12)))
          CFI VB load(1, XDATA, add(CFA_XSP16, literal(-11)))
          CFI V0 load(1, XDATA, add(CFA_XSP16, literal(-10)))
          CFI V1 load(1, XDATA, add(CFA_XSP16, literal(-9)))
          CFI V2 load(1, XDATA, add(CFA_XSP16, literal(-8)))
          CFI V3 load(1, XDATA, add(CFA_XSP16, literal(-7)))
          CFI R7 load(1, XDATA, add(CFA_XSP16, literal(-6)))
          CFI ?RET_LOW load(1, XDATA, add(CFA_XSP16, literal(-5)))
          CFI ?RET_HIGH load(1, XDATA, add(CFA_XSP16, literal(-4)))
          CFI ?BRET_EXT load(1, XDATA, add(CFA_XSP16, literal(-3)))
          CFI DPL0 load(1, XDATA, add(CFA_XSP16, literal(-2)))
          CFI DPH0 load(1, XDATA, add(CFA_XSP16, literal(-1)))
          CFI CFA_SP SP+-2
          CFI CFA_XSP16 add(XSP16, 36)
          CFI Block cfiCond146 Using cfiCommon0
          CFI (cfiCond146) Function gapBondMgrAuthenticate
          CFI (cfiCond146) Conditional ??CrossCallReturnLabel_35
          CFI (cfiCond146) R6 load(1, XDATA, add(CFA_XSP16, literal(-12)))
          CFI (cfiCond146) VB load(1, XDATA, add(CFA_XSP16, literal(-11)))
          CFI (cfiCond146) V0 load(1, XDATA, add(CFA_XSP16, literal(-10)))
          CFI (cfiCond146) V1 load(1, XDATA, add(CFA_XSP16, literal(-9)))
          CFI (cfiCond146) V2 load(1, XDATA, add(CFA_XSP16, literal(-8)))
          CFI (cfiCond146) V3 load(1, XDATA, add(CFA_XSP16, literal(-7)))
          CFI (cfiCond146) R7 load(1, XDATA, add(CFA_XSP16, literal(-6)))
          CFI (cfiCond146) ?RET_LOW load(1, XDATA, add(CFA_XSP16, literal(-5)))
          CFI (cfiCond146) ?RET_HIGH load(1, XDATA, add(CFA_XSP16, literal(-4)))
          CFI (cfiCond146) ?BRET_EXT load(1, XDATA, add(CFA_XSP16, literal(-3)))
          CFI (cfiCond146) DPL0 load(1, XDATA, add(CFA_XSP16, literal(-2)))
          CFI (cfiCond146) DPH0 load(1, XDATA, add(CFA_XSP16, literal(-1)))
          CFI (cfiCond146) CFA_SP SP+-2
          CFI (cfiCond146) CFA_XSP16 add(XSP16, 36)
          CFI Block cfiCond147 Using cfiCommon0
          CFI (cfiCond147) Function gapBondMgrAuthenticate
          CFI (cfiCond147) Conditional ??CrossCallReturnLabel_36
          CFI (cfiCond147) R6 load(1, XDATA, add(CFA_XSP16, literal(-12)))
          CFI (cfiCond147) VB load(1, XDATA, add(CFA_XSP16, literal(-11)))
          CFI (cfiCond147) V0 load(1, XDATA, add(CFA_XSP16, literal(-10)))
          CFI (cfiCond147) V1 load(1, XDATA, add(CFA_XSP16, literal(-9)))
          CFI (cfiCond147) V2 load(1, XDATA, add(CFA_XSP16, literal(-8)))
          CFI (cfiCond147) V3 load(1, XDATA, add(CFA_XSP16, literal(-7)))
          CFI (cfiCond147) R7 load(1, XDATA, add(CFA_XSP16, literal(-6)))
          CFI (cfiCond147) ?RET_LOW load(1, XDATA, add(CFA_XSP16, literal(-5)))
          CFI (cfiCond147) ?RET_HIGH load(1, XDATA, add(CFA_XSP16, literal(-4)))
          CFI (cfiCond147) ?BRET_EXT load(1, XDATA, add(CFA_XSP16, literal(-3)))
          CFI (cfiCond147) DPL0 load(1, XDATA, add(CFA_XSP16, literal(-2)))
          CFI (cfiCond147) DPH0 load(1, XDATA, add(CFA_XSP16, literal(-1)))
          CFI (cfiCond147) CFA_SP SP+-2
          CFI (cfiCond147) CFA_XSP16 add(XSP16, 36)
          CFI Block cfiCond148 Using cfiCommon0
          CFI (cfiCond148) Function gapBondMgrAuthenticate
          CFI (cfiCond148) Conditional ??CrossCallReturnLabel_37
          CFI (cfiCond148) R6 load(1, XDATA, add(CFA_XSP16, literal(-12)))
          CFI (cfiCond148) VB load(1, XDATA, add(CFA_XSP16, literal(-11)))
          CFI (cfiCond148) V0 load(1, XDATA, add(CFA_XSP16, literal(-10)))
          CFI (cfiCond148) V1 load(1, XDATA, add(CFA_XSP16, literal(-9)))
          CFI (cfiCond148) V2 load(1, XDATA, add(CFA_XSP16, literal(-8)))
          CFI (cfiCond148) V3 load(1, XDATA, add(CFA_XSP16, literal(-7)))
          CFI (cfiCond148) R7 load(1, XDATA, add(CFA_XSP16, literal(-6)))
          CFI (cfiCond148) ?RET_LOW load(1, XDATA, add(CFA_XSP16, literal(-5)))
          CFI (cfiCond148) ?RET_HIGH load(1, XDATA, add(CFA_XSP16, literal(-4)))
          CFI (cfiCond148) ?BRET_EXT load(1, XDATA, add(CFA_XSP16, literal(-3)))
          CFI (cfiCond148) DPL0 load(1, XDATA, add(CFA_XSP16, literal(-2)))
          CFI (cfiCond148) DPH0 load(1, XDATA, add(CFA_XSP16, literal(-1)))
          CFI (cfiCond148) CFA_SP SP+-2
          CFI (cfiCond148) CFA_XSP16 add(XSP16, 36)
          CFI Block cfiPicker149 Using cfiCommon1
          CFI (cfiPicker149) NoFunction
          CFI (cfiPicker149) Picker
        MOV     A,R2
        ORL     A,?V0
        MOV     R0,A
        MOV     A,#0x15
        RET
          CFI EndBlock cfiCond145
          CFI EndBlock cfiCond146
          CFI EndBlock cfiCond147
          CFI EndBlock cfiCond148
          CFI EndBlock cfiPicker149

        RSEG BANKED_CODE:CODE:NOROOT(0)
?Subroutine17:
          CFI Block cfiCond150 Using cfiCommon0
          CFI Function gapBondMgrAuthenticate
          CFI Conditional ??CrossCallReturnLabel_22
          CFI R6 load(1, XDATA, add(CFA_XSP16, literal(-12)))
          CFI VB load(1, XDATA, add(CFA_XSP16, literal(-11)))
          CFI V0 load(1, XDATA, add(CFA_XSP16, literal(-10)))
          CFI V1 load(1, XDATA, add(CFA_XSP16, literal(-9)))
          CFI V2 load(1, XDATA, add(CFA_XSP16, literal(-8)))
          CFI V3 load(1, XDATA, add(CFA_XSP16, literal(-7)))
          CFI R7 load(1, XDATA, add(CFA_XSP16, literal(-6)))
          CFI ?RET_LOW load(1, XDATA, add(CFA_XSP16, literal(-5)))
          CFI ?RET_HIGH load(1, XDATA, add(CFA_XSP16, literal(-4)))
          CFI ?BRET_EXT load(1, XDATA, add(CFA_XSP16, literal(-3)))
          CFI DPL0 load(1, XDATA, add(CFA_XSP16, literal(-2)))
          CFI DPH0 load(1, XDATA, add(CFA_XSP16, literal(-1)))
          CFI CFA_SP SP+-2
          CFI CFA_XSP16 add(XSP16, 36)
          CFI Block cfiCond151 Using cfiCommon0
          CFI (cfiCond151) Function gapBondMgrAuthenticate
          CFI (cfiCond151) Conditional ??CrossCallReturnLabel_23
          CFI (cfiCond151) R6 load(1, XDATA, add(CFA_XSP16, literal(-12)))
          CFI (cfiCond151) VB load(1, XDATA, add(CFA_XSP16, literal(-11)))
          CFI (cfiCond151) V0 load(1, XDATA, add(CFA_XSP16, literal(-10)))
          CFI (cfiCond151) V1 load(1, XDATA, add(CFA_XSP16, literal(-9)))
          CFI (cfiCond151) V2 load(1, XDATA, add(CFA_XSP16, literal(-8)))
          CFI (cfiCond151) V3 load(1, XDATA, add(CFA_XSP16, literal(-7)))
          CFI (cfiCond151) R7 load(1, XDATA, add(CFA_XSP16, literal(-6)))
          CFI (cfiCond151) ?RET_LOW load(1, XDATA, add(CFA_XSP16, literal(-5)))
          CFI (cfiCond151) ?RET_HIGH load(1, XDATA, add(CFA_XSP16, literal(-4)))
          CFI (cfiCond151) ?BRET_EXT load(1, XDATA, add(CFA_XSP16, literal(-3)))
          CFI (cfiCond151) DPL0 load(1, XDATA, add(CFA_XSP16, literal(-2)))
          CFI (cfiCond151) DPH0 load(1, XDATA, add(CFA_XSP16, literal(-1)))
          CFI (cfiCond151) CFA_SP SP+-2
          CFI (cfiCond151) CFA_XSP16 add(XSP16, 36)
          CFI Block cfiCond152 Using cfiCommon0
          CFI (cfiCond152) Function gapBondMgrAuthenticate
          CFI (cfiCond152) Conditional ??CrossCallReturnLabel_24
          CFI (cfiCond152) R6 load(1, XDATA, add(CFA_XSP16, literal(-12)))
          CFI (cfiCond152) VB load(1, XDATA, add(CFA_XSP16, literal(-11)))
          CFI (cfiCond152) V0 load(1, XDATA, add(CFA_XSP16, literal(-10)))
          CFI (cfiCond152) V1 load(1, XDATA, add(CFA_XSP16, literal(-9)))
          CFI (cfiCond152) V2 load(1, XDATA, add(CFA_XSP16, literal(-8)))
          CFI (cfiCond152) V3 load(1, XDATA, add(CFA_XSP16, literal(-7)))
          CFI (cfiCond152) R7 load(1, XDATA, add(CFA_XSP16, literal(-6)))
          CFI (cfiCond152) ?RET_LOW load(1, XDATA, add(CFA_XSP16, literal(-5)))
          CFI (cfiCond152) ?RET_HIGH load(1, XDATA, add(CFA_XSP16, literal(-4)))
          CFI (cfiCond152) ?BRET_EXT load(1, XDATA, add(CFA_XSP16, literal(-3)))
          CFI (cfiCond152) DPL0 load(1, XDATA, add(CFA_XSP16, literal(-2)))
          CFI (cfiCond152) DPH0 load(1, XDATA, add(CFA_XSP16, literal(-1)))
          CFI (cfiCond152) CFA_SP SP+-2
          CFI (cfiCond152) CFA_XSP16 add(XSP16, 36)
          CFI Block cfiCond153 Using cfiCommon0
          CFI (cfiCond153) Function gapBondMgrAuthenticate
          CFI (cfiCond153) Conditional ??CrossCallReturnLabel_25
          CFI (cfiCond153) R6 load(1, XDATA, add(CFA_XSP16, literal(-12)))
          CFI (cfiCond153) VB load(1, XDATA, add(CFA_XSP16, literal(-11)))
          CFI (cfiCond153) V0 load(1, XDATA, add(CFA_XSP16, literal(-10)))
          CFI (cfiCond153) V1 load(1, XDATA, add(CFA_XSP16, literal(-9)))
          CFI (cfiCond153) V2 load(1, XDATA, add(CFA_XSP16, literal(-8)))
          CFI (cfiCond153) V3 load(1, XDATA, add(CFA_XSP16, literal(-7)))
          CFI (cfiCond153) R7 load(1, XDATA, add(CFA_XSP16, literal(-6)))
          CFI (cfiCond153) ?RET_LOW load(1, XDATA, add(CFA_XSP16, literal(-5)))
          CFI (cfiCond153) ?RET_HIGH load(1, XDATA, add(CFA_XSP16, literal(-4)))
          CFI (cfiCond153) ?BRET_EXT load(1, XDATA, add(CFA_XSP16, literal(-3)))
          CFI (cfiCond153) DPL0 load(1, XDATA, add(CFA_XSP16, literal(-2)))
          CFI (cfiCond153) DPH0 load(1, XDATA, add(CFA_XSP16, literal(-1)))
          CFI (cfiCond153) CFA_SP SP+-2
          CFI (cfiCond153) CFA_XSP16 add(XSP16, 36)
          CFI Block cfiCond154 Using cfiCommon0
          CFI (cfiCond154) Function gapBondMgrAuthenticate
          CFI (cfiCond154) Conditional ??CrossCallReturnLabel_26
          CFI (cfiCond154) R6 load(1, XDATA, add(CFA_XSP16, literal(-12)))
          CFI (cfiCond154) VB load(1, XDATA, add(CFA_XSP16, literal(-11)))
          CFI (cfiCond154) V0 load(1, XDATA, add(CFA_XSP16, literal(-10)))
          CFI (cfiCond154) V1 load(1, XDATA, add(CFA_XSP16, literal(-9)))
          CFI (cfiCond154) V2 load(1, XDATA, add(CFA_XSP16, literal(-8)))
          CFI (cfiCond154) V3 load(1, XDATA, add(CFA_XSP16, literal(-7)))
          CFI (cfiCond154) R7 load(1, XDATA, add(CFA_XSP16, literal(-6)))
          CFI (cfiCond154) ?RET_LOW load(1, XDATA, add(CFA_XSP16, literal(-5)))
          CFI (cfiCond154) ?RET_HIGH load(1, XDATA, add(CFA_XSP16, literal(-4)))
          CFI (cfiCond154) ?BRET_EXT load(1, XDATA, add(CFA_XSP16, literal(-3)))
          CFI (cfiCond154) DPL0 load(1, XDATA, add(CFA_XSP16, literal(-2)))
          CFI (cfiCond154) DPH0 load(1, XDATA, add(CFA_XSP16, literal(-1)))
          CFI (cfiCond154) CFA_SP SP+-2
          CFI (cfiCond154) CFA_XSP16 add(XSP16, 36)
          CFI Block cfiPicker155 Using cfiCommon1
          CFI (cfiPicker155) NoFunction
          CFI (cfiPicker155) Picker
        MOV     A,R0
        MOVX    @DPTR,A
        INC     DPTR
        MOV     A,R1
        MOVX    @DPTR,A
        MOV     DPTR,#gapBond_KeyDistList
        MOVX    A,@DPTR
        RET
          CFI EndBlock cfiCond150
          CFI EndBlock cfiCond151
          CFI EndBlock cfiCond152
          CFI EndBlock cfiCond153
          CFI EndBlock cfiCond154
          CFI EndBlock cfiPicker155
// 2039 
// 2040 #if ( HOST_CONFIG & PERIPHERAL_CFG )
// 2041 /*********************************************************************
// 2042  * @fn      gapBondMgrSlaveSecurityReq
// 2043  *
// 2044  * @brief   Send a slave security request
// 2045  *
// 2046  * @param   connHandle - connection handle
// 2047  *
// 2048  * @return  none
// 2049  */
// 2050 static void gapBondMgrSlaveSecurityReq( uint16 connHandle )
// 2051 {
// 2052   uint8 authReq = 0;
// 2053 
// 2054   authReq |= (gapBond_Bonding) ? SM_AUTH_STATE_BONDING : 0;
// 2055   authReq |= (gapBond_MITM) ? SM_AUTH_STATE_AUTHENTICATED : 0;
// 2056 
// 2057   VOID GAP_SendSlaveSecurityRequest( connHandle, authReq );
// 2058 }
// 2059 #endif
// 2060 
// 2061 /*********************************************************************
// 2062  * @fn      gapBondMgrBondReq
// 2063  *
// 2064  * @brief   Initiate a GAP bond request
// 2065  *
// 2066  * @param   connHandle - connection handle
// 2067  * @param   idx - NV index of bond entry
// 2068  * @param   stateFlags - bond state flags
// 2069  * @param   role - master or slave role
// 2070  * @param   startEncryption - whether or not to start encryption
// 2071  *
// 2072  * @return  none
// 2073  */

        RSEG BANKED_CODE:CODE:NOROOT(0)
// 2074 static void gapBondMgrBondReq( uint16 connHandle, uint8 idx, uint8 stateFlags,
gapBondMgrBondReq:
          CFI Block cfiBlock156 Using cfiCommon0
          CFI Function gapBondMgrBondReq
        CODE
// 2075                                uint8 role, uint8 startEncryption )
// 2076 {
        FUNCALL gapBondMgrBondReq, osal_memset
        LOCFRAME ISTACK, 0, STACK
        LOCFRAME PSTACK, 0, STACK
        LOCFRAME XSTACK, 39, STACK
        LOCFRAME IOVERLAY, 0, STATIC
        LOCFRAME DOVERLAY, 0, STATIC
        ARGFRAME ISTACK, 0, STACK
        ARGFRAME PSTACK, 0, STACK
        ARGFRAME XSTACK, 39, STACK
        ARGFRAME IOVERLAY, 0, STATIC
        ARGFRAME DOVERLAY, 0, STATIC
        FUNCALL gapBondMgrBondReq, osal_snv_read
        LOCFRAME ISTACK, 0, STACK
        LOCFRAME PSTACK, 0, STACK
        LOCFRAME XSTACK, 39, STACK
        LOCFRAME IOVERLAY, 0, STATIC
        LOCFRAME DOVERLAY, 0, STATIC
        ARGFRAME ISTACK, 0, STACK
        ARGFRAME PSTACK, 0, STACK
        ARGFRAME XSTACK, 39, STACK
        ARGFRAME IOVERLAY, 0, STATIC
        ARGFRAME DOVERLAY, 0, STATIC
        FUNCALL gapBondMgrBondReq, GAP_Bond
        LOCFRAME ISTACK, 0, STACK
        LOCFRAME PSTACK, 0, STACK
        LOCFRAME XSTACK, 40, STACK
        LOCFRAME IOVERLAY, 0, STATIC
        LOCFRAME DOVERLAY, 0, STATIC
        ARGFRAME ISTACK, 0, STACK
        ARGFRAME PSTACK, 0, STACK
        ARGFRAME XSTACK, 40, STACK
        ARGFRAME IOVERLAY, 0, STATIC
        ARGFRAME DOVERLAY, 0, STATIC
        REQUIRE ?V0
        REQUIRE ?V1
        REQUIRE ?V2
        REQUIRE ?V3
        MOV     A,#-0xc
        LCALL   ?BANKED_ENTER_XDATA
          CFI DPH0 load(1, XDATA, add(CFA_XSP16, literal(-1)))
          CFI DPL0 load(1, XDATA, add(CFA_XSP16, literal(-2)))
          CFI ?BRET_EXT load(1, XDATA, add(CFA_XSP16, literal(-3)))
          CFI ?RET_HIGH load(1, XDATA, add(CFA_XSP16, literal(-4)))
          CFI ?RET_LOW load(1, XDATA, add(CFA_XSP16, literal(-5)))
          CFI R7 load(1, XDATA, add(CFA_XSP16, literal(-6)))
          CFI V3 load(1, XDATA, add(CFA_XSP16, literal(-7)))
          CFI V2 load(1, XDATA, add(CFA_XSP16, literal(-8)))
          CFI V1 load(1, XDATA, add(CFA_XSP16, literal(-9)))
          CFI V0 load(1, XDATA, add(CFA_XSP16, literal(-10)))
          CFI VB load(1, XDATA, add(CFA_XSP16, literal(-11)))
          CFI R6 load(1, XDATA, add(CFA_XSP16, literal(-12)))
          CFI CFA_SP SP+0
          CFI CFA_XSP16 add(XSP16, 12)
        ; Saved register size: 12
        ; Auto size: 27
        MOV     A,#-0x1b
        LCALL   ?ALLOC_XSTACK8
          CFI CFA_XSP16 add(XSP16, 39)
        MOV     ?V2,R2
        MOV     ?V3,R3
        MOV     A,R4
        MOV     R6,A
        MOV     A,R5
        MOV     R7,A
// 2077   smSecurityInfo_t ltk;
// 2078   osalSnvId_t      nvId;
// 2079 
// 2080   if ( role == GAP_PROFILE_CENTRAL )
        MOV     B,#0x6
        MOV     A,R1
        MUL     AB
        MOV     R0,A
        MOV     A,#0x8
        XRL     A,R7
        JNZ     ??gapBondMgrBondReq_0
// 2081   {
// 2082     nvId = devLTKNvID( idx );
        MOV     A,#0x22
        SJMP    ??gapBondMgrBondReq_1
// 2083   }
// 2084   else
// 2085   {
// 2086     nvId = localLTKNvID( idx );
??gapBondMgrBondReq_0:
        MOV     A,#0x21
??gapBondMgrBondReq_1:
        ADD     A,R0
        MOV     ?V0,A
// 2087   }
// 2088 
// 2089   // Initialize the NV structures
// 2090   VOID osal_memset( &ltk, 0, sizeof ( smSecurityInfo_t ) );
        ; Setup parameters for call to function osal_memset
        MOV     R4,#0x1b
        MOV     R5,#0x0
        MOV     R1,#0x0
        MOV     R2,?XSP + 0
        MOV     R3,?XSP + 1
        LCALL   ??osal_memset?relay  ; Banked call to: osal_memset
// 2091 
// 2092   if ( osal_snv_read( nvId, sizeof ( smSecurityInfo_t ), &ltk ) == SUCCESS )
        ; Setup parameters for call to function osal_snv_read
        MOV     R4,?XSP + 0
        MOV     R5,?XSP + 1
        MOV     R2,#0x1b
        MOV     R1,?V0
        LCALL   ??osal_snv_read?relay; Banked call to: osal_snv_read
        MOV     A,R1
        JNZ     ??gapBondMgrBondReq_2
// 2093   {
// 2094     if ( (ltk.keySize >= MIN_ENC_KEYSIZE) && (ltk.keySize <= MAX_ENC_KEYSIZE) )
        MOV     A,#0x1a
        LCALL   ?XSTACK_DISP0_8
        MOVX    A,@DPTR
        ADD     A,#-0x7
        CLR     C
        SUBB    A,#0xa
        JNC     ??gapBondMgrBondReq_2
// 2095     {
// 2096       VOID GAP_Bond( connHandle,
// 2097                     ((stateFlags & GAP_BONDED_STATE_AUTHENTICATED) ? TRUE : FALSE),
// 2098                     &ltk, startEncryption );
        ; Setup parameters for call to function GAP_Bond
        MOV     A,#0x27
        LCALL   ?XSTACK_DISP0_8
        MOVX    A,@DPTR
        MOV     ?V0,A
        MOV     R0,#?V0
        LCALL   ?PUSH_XSTACK_I_ONE
          CFI CFA_XSP16 add(XSP16, 40)
        MOV     A,#0x1
        LCALL   ?XSTACK_DISP102_8
        MOV     A,R6
        MOV     C,0xE0 /* A   */.0
        CLR     A
        RLC     A
        MOV     R1,A
        MOV     R2,?V2
        MOV     R3,?V3
        LCALL   ??GAP_Bond?relay     ; Banked call to: GAP_Bond
        MOV     A,#0x1
        LCALL   ?DEALLOC_XSTACK8
          CFI CFA_XSP16 add(XSP16, 39)
// 2099     }
// 2100   }
// 2101 }
??gapBondMgrBondReq_2:
        MOV     A,#0x1b
        SJMP    ??Subroutine29_0
          CFI EndBlock cfiBlock156

        RSEG BANKED_CODE:CODE:NOROOT(0)
?Subroutine1:
          CFI Block cfiBlock157 Using cfiCommon0
          CFI NoFunction
          CFI CFA_SP SP+0
          CFI CFA_XSP16 add(XSP16, 26)
          CFI VB load(1, XDATA, add(CFA_XSP16, literal(-11)))
          CFI DPL0 load(1, XDATA, add(CFA_XSP16, literal(-2)))
          CFI DPH0 load(1, XDATA, add(CFA_XSP16, literal(-1)))
          CFI R6 load(1, XDATA, add(CFA_XSP16, literal(-12)))
          CFI R7 load(1, XDATA, add(CFA_XSP16, literal(-6)))
          CFI V0 load(1, XDATA, add(CFA_XSP16, literal(-10)))
          CFI V1 load(1, XDATA, add(CFA_XSP16, literal(-9)))
          CFI V2 load(1, XDATA, add(CFA_XSP16, literal(-8)))
          CFI V3 load(1, XDATA, add(CFA_XSP16, literal(-7)))
          CFI ?BRET_EXT load(1, XDATA, add(CFA_XSP16, literal(-3)))
          CFI ?RET_HIGH load(1, XDATA, add(CFA_XSP16, literal(-4)))
          CFI ?RET_LOW load(1, XDATA, add(CFA_XSP16, literal(-5)))
        MOV     A,#0xe
          CFI EndBlock cfiBlock157
        REQUIRE ??Subroutine29_0
        ; // Fall through to label ??Subroutine29_0

        RSEG BANKED_CODE:CODE:NOROOT(0)
??Subroutine29_0:
          CFI Block cfiBlock158 Using cfiCommon0
          CFI NoFunction
          CFI CFA_SP SP+0
          CFI CFA_XSP16 add(XSP16, 24)
          CFI VB load(1, XDATA, add(CFA_XSP16, literal(-11)))
          CFI DPL0 load(1, XDATA, add(CFA_XSP16, literal(-2)))
          CFI DPH0 load(1, XDATA, add(CFA_XSP16, literal(-1)))
          CFI R6 load(1, XDATA, add(CFA_XSP16, literal(-12)))
          CFI R7 load(1, XDATA, add(CFA_XSP16, literal(-6)))
          CFI V0 load(1, XDATA, add(CFA_XSP16, literal(-10)))
          CFI V1 load(1, XDATA, add(CFA_XSP16, literal(-9)))
          CFI V2 load(1, XDATA, add(CFA_XSP16, literal(-8)))
          CFI V3 load(1, XDATA, add(CFA_XSP16, literal(-7)))
          CFI ?BRET_EXT load(1, XDATA, add(CFA_XSP16, literal(-3)))
          CFI ?RET_HIGH load(1, XDATA, add(CFA_XSP16, literal(-4)))
          CFI ?RET_LOW load(1, XDATA, add(CFA_XSP16, literal(-5)))
          CFI Invalid
        LCALL   ?DEALLOC_XSTACK8
          CFI EndBlock cfiBlock158
        REQUIRE ??Subroutine30_0
        ; // Fall through to label ??Subroutine30_0

        RSEG BANKED_CODE:CODE:NOROOT(0)
??Subroutine30_0:
          CFI Block cfiBlock159 Using cfiCommon0
          CFI NoFunction
          CFI CFA_SP SP+0
          CFI CFA_XSP16 add(XSP16, 12)
          CFI VB load(1, XDATA, add(CFA_XSP16, literal(-11)))
          CFI DPL0 load(1, XDATA, add(CFA_XSP16, literal(-2)))
          CFI DPH0 load(1, XDATA, add(CFA_XSP16, literal(-1)))
          CFI R6 load(1, XDATA, add(CFA_XSP16, literal(-12)))
          CFI R7 load(1, XDATA, add(CFA_XSP16, literal(-6)))
          CFI V0 load(1, XDATA, add(CFA_XSP16, literal(-10)))
          CFI V1 load(1, XDATA, add(CFA_XSP16, literal(-9)))
          CFI V2 load(1, XDATA, add(CFA_XSP16, literal(-8)))
          CFI V3 load(1, XDATA, add(CFA_XSP16, literal(-7)))
          CFI ?BRET_EXT load(1, XDATA, add(CFA_XSP16, literal(-3)))
          CFI ?RET_HIGH load(1, XDATA, add(CFA_XSP16, literal(-4)))
          CFI ?RET_LOW load(1, XDATA, add(CFA_XSP16, literal(-5)))
        MOV     R7,#0x4
        LJMP    ?BANKED_LEAVE_XDATA
          CFI EndBlock cfiBlock159
// 2102 
// 2103 /*********************************************************************
// 2104  * @fn      gapBondMgr_SyncWhiteList
// 2105  *
// 2106  * @brief   syncronize the White List with the bonds
// 2107  *
// 2108  * @param   none
// 2109  *
// 2110  * @return  none
// 2111  */

        RSEG BANKED_CODE:CODE:NOROOT(0)
// 2112 static void gapBondMgr_SyncWhiteList( void )
gapBondMgr_SyncWhiteList:
          CFI Block cfiBlock160 Using cfiCommon0
          CFI Function gapBondMgr_SyncWhiteList
        CODE
// 2113 {
        FUNCALL gapBondMgr_SyncWhiteList, HCI_LE_ClearWhiteListCmd
        LOCFRAME ISTACK, 0, STACK
        LOCFRAME PSTACK, 0, STACK
        LOCFRAME XSTACK, 9, STACK
        LOCFRAME IOVERLAY, 0, STATIC
        LOCFRAME DOVERLAY, 0, STATIC
        ARGFRAME ISTACK, 0, STACK
        ARGFRAME PSTACK, 0, STACK
        ARGFRAME XSTACK, 9, STACK
        ARGFRAME IOVERLAY, 0, STATIC
        ARGFRAME DOVERLAY, 0, STATIC
        FUNCALL gapBondMgr_SyncWhiteList, osal_isbufset
        LOCFRAME ISTACK, 0, STACK
        LOCFRAME PSTACK, 0, STACK
        LOCFRAME XSTACK, 9, STACK
        LOCFRAME IOVERLAY, 0, STATIC
        LOCFRAME DOVERLAY, 0, STATIC
        ARGFRAME ISTACK, 0, STACK
        ARGFRAME PSTACK, 0, STACK
        ARGFRAME XSTACK, 9, STACK
        ARGFRAME IOVERLAY, 0, STATIC
        ARGFRAME DOVERLAY, 0, STATIC
        FUNCALL gapBondMgr_SyncWhiteList, HCI_LE_AddWhiteListCmd
        LOCFRAME ISTACK, 0, STACK
        LOCFRAME PSTACK, 0, STACK
        LOCFRAME XSTACK, 9, STACK
        LOCFRAME IOVERLAY, 0, STATIC
        LOCFRAME DOVERLAY, 0, STATIC
        ARGFRAME ISTACK, 0, STACK
        ARGFRAME PSTACK, 0, STACK
        ARGFRAME XSTACK, 9, STACK
        ARGFRAME IOVERLAY, 0, STATIC
        ARGFRAME DOVERLAY, 0, STATIC
        REQUIRE ?V0
        MOV     A,#-0x9
        LCALL   ?BANKED_ENTER_XDATA
          CFI DPH0 load(1, XDATA, add(CFA_XSP16, literal(-1)))
          CFI DPL0 load(1, XDATA, add(CFA_XSP16, literal(-2)))
          CFI ?BRET_EXT load(1, XDATA, add(CFA_XSP16, literal(-3)))
          CFI ?RET_HIGH load(1, XDATA, add(CFA_XSP16, literal(-4)))
          CFI ?RET_LOW load(1, XDATA, add(CFA_XSP16, literal(-5)))
          CFI R7 load(1, XDATA, add(CFA_XSP16, literal(-6)))
          CFI V0 load(1, XDATA, add(CFA_XSP16, literal(-7)))
          CFI VB load(1, XDATA, add(CFA_XSP16, literal(-8)))
          CFI R6 load(1, XDATA, add(CFA_XSP16, literal(-9)))
          CFI CFA_SP SP+0
          CFI CFA_XSP16 add(XSP16, 9)
        ; Saved register size: 9
        ; Auto size: 0
// 2114   //erase the White List
// 2115   VOID HCI_LE_ClearWhiteListCmd();
        ; Setup parameters for call to function HCI_LE_ClearWhiteListCmd
        LCALL   ??HCI_LE_ClearWhiteListCmd?relay; Banked call to: HCI_LE_ClearWhiteListCmd
// 2116 
// 2117   // Write bond addresses into the White List
// 2118   for( uint8 i = 0; i < GAP_BONDINGS_MAX; i++)
        MOV     ?V0,#0x0
// 2119   {
// 2120     // Make sure empty addresses are not added to the White List
// 2121     if ( osal_isbufset( bonds[i].publicAddr, 0xFF, B_ADDR_LEN ) == FALSE )
??gapBondMgr_SyncWhiteList_0:
        MOV     A,?V0
        MOV     B,#0xe
        MUL     AB
        MOV     R0,A
        MOV     R1,B
        MOV     A,#bonds & 0xff
        ADD     A,R0
        MOV     R6,A
        MOV     A,#(bonds >> 8) & 0xff
        ADDC    A,R1
        MOV     R7,A
        ; Setup parameters for call to function osal_isbufset
        MOV     R4,#0x6
        MOV     R1,#-0x1
        MOV     A,R6
        MOV     R2,A
        MOV     A,R7
        MOV     R3,A
        LCALL   ??osal_isbufset?relay; Banked call to: osal_isbufset
        MOV     A,R1
        JNZ     ??gapBondMgr_SyncWhiteList_1
// 2122     {
// 2123       VOID HCI_LE_AddWhiteListCmd( HCI_PUBLIC_DEVICE_ADDRESS, bonds[i].publicAddr );
        ; Setup parameters for call to function HCI_LE_AddWhiteListCmd
        MOV     A,R6
        MOV     R2,A
        MOV     A,R7
        MOV     R3,A
        MOV     R1,#0x0
        LCALL   ??HCI_LE_AddWhiteListCmd?relay; Banked call to: HCI_LE_AddWhiteListCmd
// 2124     }
// 2125   }
??gapBondMgr_SyncWhiteList_1:
        INC     ?V0
        MOV     A,?V0
        CLR     C
        SUBB    A,#0xa
        JC      ??gapBondMgr_SyncWhiteList_0
// 2126 }
        LJMP    ?Subroutine5 & 0xFFFF
          CFI EndBlock cfiBlock160
// 2127 
// 2128 /*********************************************************************
// 2129  * @fn          gapBondMgr_SyncCharCfg
// 2130  *
// 2131  * @brief       Update the Bond Manager to have the same configurations as
// 2132  *              the GATT database.
// 2133  *
// 2134  * @param       connHandle - the current connection handle to find client configurations for
// 2135  *
// 2136  * @return      TRUE if sync done. FALSE, otherwise.
// 2137  */

        RSEG BANKED_CODE:CODE:NOROOT(0)
// 2138 static uint8 gapBondMgr_SyncCharCfg( uint16 connHandle )
gapBondMgr_SyncCharCfg:
          CFI Block cfiBlock161 Using cfiCommon0
          CFI Function gapBondMgr_SyncCharCfg
        CODE
// 2139 {
        FUNCALL gapBondMgr_SyncCharCfg, GATT_FindHandleUUID
        LOCFRAME ISTACK, 0, STACK
        LOCFRAME PSTACK, 0, STACK
        LOCFRAME XSTACK, 19, STACK
        LOCFRAME IOVERLAY, 0, STATIC
        LOCFRAME DOVERLAY, 0, STATIC
        ARGFRAME ISTACK, 0, STACK
        ARGFRAME PSTACK, 0, STACK
        ARGFRAME XSTACK, 19, STACK
        ARGFRAME IOVERLAY, 0, STATIC
        ARGFRAME DOVERLAY, 0, STATIC
        FUNCALL gapBondMgr_SyncCharCfg, GATTServApp_ReadAttr
        LOCFRAME ISTACK, 0, STACK
        LOCFRAME PSTACK, 0, STACK
        LOCFRAME XSTACK, 21, STACK
        LOCFRAME IOVERLAY, 0, STATIC
        LOCFRAME DOVERLAY, 0, STATIC
        ARGFRAME ISTACK, 0, STACK
        ARGFRAME PSTACK, 0, STACK
        ARGFRAME XSTACK, 21, STACK
        ARGFRAME IOVERLAY, 0, STATIC
        ARGFRAME DOVERLAY, 0, STATIC
        FUNCALL gapBondMgr_SyncCharCfg, GAPBondMgr_UpdateCharCfg
        LOCFRAME ISTACK, 0, STACK
        LOCFRAME PSTACK, 0, STACK
        LOCFRAME XSTACK, 15, STACK
        LOCFRAME IOVERLAY, 0, STATIC
        LOCFRAME DOVERLAY, 0, STATIC
        ARGFRAME ISTACK, 0, STACK
        ARGFRAME PSTACK, 0, STACK
        ARGFRAME XSTACK, 15, STACK
        ARGFRAME IOVERLAY, 0, STATIC
        ARGFRAME DOVERLAY, 0, STATIC
        FUNCALL gapBondMgr_SyncCharCfg, GATT_FindNextAttr
        LOCFRAME ISTACK, 0, STACK
        LOCFRAME PSTACK, 0, STACK
        LOCFRAME XSTACK, 17, STACK
        LOCFRAME IOVERLAY, 0, STATIC
        LOCFRAME DOVERLAY, 0, STATIC
        ARGFRAME ISTACK, 0, STACK
        ARGFRAME PSTACK, 0, STACK
        ARGFRAME XSTACK, 17, STACK
        ARGFRAME IOVERLAY, 0, STATIC
        ARGFRAME DOVERLAY, 0, STATIC
        REQUIRE ?V0
        REQUIRE ?V1
        MOV     A,#-0xa
        LCALL   ?BANKED_ENTER_XDATA
          CFI DPH0 load(1, XDATA, add(CFA_XSP16, literal(-1)))
          CFI DPL0 load(1, XDATA, add(CFA_XSP16, literal(-2)))
          CFI ?BRET_EXT load(1, XDATA, add(CFA_XSP16, literal(-3)))
          CFI ?RET_HIGH load(1, XDATA, add(CFA_XSP16, literal(-4)))
          CFI ?RET_LOW load(1, XDATA, add(CFA_XSP16, literal(-5)))
          CFI R7 load(1, XDATA, add(CFA_XSP16, literal(-6)))
          CFI V1 load(1, XDATA, add(CFA_XSP16, literal(-7)))
          CFI V0 load(1, XDATA, add(CFA_XSP16, literal(-8)))
          CFI VB load(1, XDATA, add(CFA_XSP16, literal(-9)))
          CFI R6 load(1, XDATA, add(CFA_XSP16, literal(-10)))
          CFI CFA_SP SP+0
          CFI CFA_XSP16 add(XSP16, 10)
        ; Saved register size: 10
        ; Auto size: 3
        MOV     A,#-0x3
        LCALL   ?ALLOC_XSTACK8
          CFI CFA_XSP16 add(XSP16, 13)
        MOV     A,R2
        MOV     R6,A
        MOV     A,R3
        MOV     R7,A
// 2140   static gattAttribute_t *pAttr = NULL;
// 2141   static uint16 service;
// 2142 
// 2143   // Only attributes with attribute handles between and including the Starting
// 2144   // Handle parameter and the Ending Handle parameter that match the requested
// 2145   // attribute type and the attribute value will be returned.
// 2146 
// 2147   // All attribute types are effectively compared as 128-bit UUIDs,
// 2148   // even if a 16-bit UUID is provided in this request or defined
// 2149   // for an attribute.
// 2150   if ( pAttr == NULL )
        MOV     DPTR,#??pAttr
        LCALL   ??Subroutine31_0 & 0xFFFF
??CrossCallReturnLabel_67:
        JNZ     ??gapBondMgr_SyncCharCfg_0
// 2151   {
// 2152     pAttr = GATT_FindHandleUUID( GATT_MIN_HANDLE, GATT_MAX_HANDLE,
// 2153                                  clientCharCfgUUID, ATT_BT_UUID_SIZE, &service );
        ; Setup parameters for call to function GATT_FindHandleUUID
        MOV     ?V0,#??service & 0xff
        MOV     ?V1,#(??service >> 8) & 0xff
        MOV     R0,#?V0
        LCALL   ?PUSH_XSTACK_I_TWO
          CFI CFA_XSP16 add(XSP16, 15)
        MOV     ?V0,#0x2
        MOV     ?V1,#0x0
        MOV     R0,#?V0
        LCALL   ?PUSH_XSTACK_I_TWO
          CFI CFA_XSP16 add(XSP16, 17)
        MOV     ?V0,#clientCharCfgUUID & 0xff
        MOV     ?V1,#(clientCharCfgUUID >> 8) & 0xff
        MOV     R0,#?V0
        LCALL   ?PUSH_XSTACK_I_TWO
          CFI CFA_XSP16 add(XSP16, 19)
        MOV     R4,#-0x1
        MOV     R5,#-0x1
        MOV     R2,#0x1
        MOV     R3,#0x0
        LCALL   ??GATT_FindHandleUUID?relay; Banked call to: GATT_FindHandleUUID
        MOV     A,#0x6
        LCALL   ?DEALLOC_XSTACK8
          CFI CFA_XSP16 add(XSP16, 13)
        MOV     DPTR,#??pAttr
        MOV     A,R2
        MOVX    @DPTR,A
        INC     DPTR
        MOV     A,R3
        MOVX    @DPTR,A
// 2154   }
// 2155   
// 2156   if ( pAttr != NULL )
??gapBondMgr_SyncCharCfg_0:
        MOV     DPTR,#??pAttr
        LCALL   ??Subroutine31_0 & 0xFFFF
??CrossCallReturnLabel_68:
        JNZ     $+5
        LJMP    ??gapBondMgr_SyncCharCfg_1 & 0xFFFF
// 2157   {
// 2158     uint8 len;
// 2159     uint8 attrVal[ATT_BT_UUID_SIZE];
// 2160 
// 2161     // It is not possible to use this request on an attribute that has a value
// 2162     // that is longer than 2.
// 2163     if ( GATTServApp_ReadAttr( connHandle, pAttr, service, attrVal,
// 2164                                &len, 0, ATT_BT_UUID_SIZE ) == SUCCESS )
        ; Setup parameters for call to function GATTServApp_ReadAttr
        CLR     A
        MOV     ?V0,A
        MOV     ?V1,A
        MOV     R0,#?V0
        LCALL   ?PUSH_XSTACK_I_TWO
          CFI CFA_XSP16 add(XSP16, 15)
        MOV     A,#0x4
        LCALL   ?XSTACK_DISP100_8
        MOV     ?V0,R0
        MOV     ?V1,R1
        MOV     R0,#?V0
        LCALL   ?PUSH_XSTACK_I_TWO
          CFI CFA_XSP16 add(XSP16, 17)
        MOV     A,#0x4
        LCALL   ?XSTACK_DISP100_8
        MOV     ?V0,R0
        MOV     ?V1,R1
        MOV     R0,#?V0
        LCALL   ?PUSH_XSTACK_I_TWO
          CFI CFA_XSP16 add(XSP16, 19)
        MOV     DPTR,#??service
        LCALL   ?PUSH_XSTACK8_X_TWO
          CFI CFA_XSP16 add(XSP16, 21)
        MOV     R1,#0x2
        MOV     DPTR,#??pAttr
        LCALL   ?Subroutine16 & 0xFFFF
??CrossCallReturnLabel_20:
        LCALL   ??GATTServApp_ReadAttr?relay; Banked call to: GATTServApp_ReadAttr
        MOV     A,#0x8
        LCALL   ?DEALLOC_XSTACK8
          CFI CFA_XSP16 add(XSP16, 13)
        MOV     A,R1
        JNZ     ??gapBondMgr_SyncCharCfg_2
// 2165     {
// 2166       uint16 value = BUILD_UINT16(attrVal[0], attrVal[1]);
        MOV     DPL,?XSP + 0
        MOV     DPH,?XSP + 1
        MOVX    A,@DPTR
        MOV     R2,A
        MOV     A,#0x1
        LCALL   ?XSTACK_DISP0_8
        MOVX    A,@DPTR
        MOV     R0,A
        CLR     A
        XCH     A,R0
        MOV     R1,A
        MOV     A,R2
        ADD     A,R0
        MOV     ?V0,A
        CLR     A
        ADDC    A,R1
        MOV     ?V1,A
// 2167 
// 2168       if ( value != GATT_CFG_NO_OPERATION )
        MOV     A,R2
        ORL     A,?V1
        JZ      ??gapBondMgr_SyncCharCfg_2
// 2169       {
// 2170         // NV must be updated to meet configuration of the database
// 2171         VOID GAPBondMgr_UpdateCharCfg( connHandle, pAttr->handle, value );
        ; Setup parameters for call to function GAPBondMgr_UpdateCharCfg
        MOV     R0,#?V0
        LCALL   ?PUSH_XSTACK_I_TWO
          CFI CFA_XSP16 add(XSP16, 15)
        MOV     DPTR,#??pAttr
        LCALL   ?Subroutine23 & 0xFFFF
// 2172       }
// 2173     }
??CrossCallReturnLabel_38:
        INC     DPTR
        LCALL   ?Subroutine16 & 0xFFFF
??CrossCallReturnLabel_21:
        LCALL   ??GAPBondMgr_UpdateCharCfg?relay; Banked call to: GAPBondMgr_UpdateCharCfg
        MOV     A,#0x2
        LCALL   ?DEALLOC_XSTACK8
          CFI CFA_XSP16 add(XSP16, 13)
// 2174 
// 2175     // Try to find the next attribute
// 2176     pAttr = GATT_FindNextAttr( pAttr, GATT_MAX_HANDLE, service, NULL );
??gapBondMgr_SyncCharCfg_2:
        ; Setup parameters for call to function GATT_FindNextAttr
        CLR     A
        MOV     ?V0,A
        MOV     ?V1,A
        MOV     R0,#?V0
        LCALL   ?PUSH_XSTACK_I_TWO
          CFI CFA_XSP16 add(XSP16, 15)
        MOV     DPTR,#??service
        LCALL   ?PUSH_XSTACK8_X_TWO
          CFI CFA_XSP16 add(XSP16, 17)
        MOV     R4,#-0x1
        MOV     R5,#-0x1
        MOV     DPTR,#??pAttr
        LCALL   ??Subroutine28_0 & 0xFFFF
// 2177   }
??CrossCallReturnLabel_56:
        LCALL   ??GATT_FindNextAttr?relay; Banked call to: GATT_FindNextAttr
        MOV     A,#0x4
        LCALL   ?DEALLOC_XSTACK8
          CFI CFA_XSP16 add(XSP16, 13)
        MOV     DPTR,#??pAttr
        MOV     A,R2
        MOVX    @DPTR,A
        INC     DPTR
        MOV     A,R3
        MOVX    @DPTR,A
// 2178   
// 2179   return ( pAttr == NULL );    
        MOV     DPTR,#??pAttr
        LCALL   ??Subroutine31_0 & 0xFFFF
??CrossCallReturnLabel_69:
        JNZ     ??gapBondMgr_SyncCharCfg_3
??gapBondMgr_SyncCharCfg_1:
        MOV     R1,#0x1
        SJMP    ??gapBondMgr_SyncCharCfg_4
??gapBondMgr_SyncCharCfg_3:
        MOV     R1,#0x0
??gapBondMgr_SyncCharCfg_4:
        MOV     A,#0x3
        LCALL   ?DEALLOC_XSTACK8
          CFI CFA_XSP16 add(XSP16, 10)
        LJMP    ?Subroutine6 & 0xFFFF
          CFI EndBlock cfiBlock161
// 2180 }

        RSEG BANKED_CODE:CODE:NOROOT(0)
?Subroutine23:
          CFI Block cfiCond162 Using cfiCommon0
          CFI Function GAPBondMgr_ProcessEvent
          CFI Conditional ??CrossCallReturnLabel_39, ??CrossCallReturnLabel_3
          CFI R6 load(1, XDATA, add(CFA_XSP16, literal(-12)))
          CFI VB load(1, XDATA, add(CFA_XSP16, literal(-11)))
          CFI V0 load(1, XDATA, add(CFA_XSP16, literal(-10)))
          CFI V1 load(1, XDATA, add(CFA_XSP16, literal(-9)))
          CFI V2 load(1, XDATA, add(CFA_XSP16, literal(-8)))
          CFI V3 load(1, XDATA, add(CFA_XSP16, literal(-7)))
          CFI R7 load(1, XDATA, add(CFA_XSP16, literal(-6)))
          CFI ?RET_LOW load(1, XDATA, add(CFA_XSP16, literal(-5)))
          CFI ?RET_HIGH load(1, XDATA, add(CFA_XSP16, literal(-4)))
          CFI ?BRET_EXT load(1, XDATA, add(CFA_XSP16, literal(-3)))
          CFI DPL0 load(1, XDATA, add(CFA_XSP16, literal(-2)))
          CFI DPH0 load(1, XDATA, add(CFA_XSP16, literal(-1)))
          CFI CFA_SP SP+-4
          CFI CFA_XSP16 add(XSP16, 12)
          CFI Block cfiCond163 Using cfiCommon0
          CFI (cfiCond163) Function GAPBondMgr_ProcessEvent
          CFI (cfiCond163) Conditional ??CrossCallReturnLabel_39, ??CrossCallReturnLabel_4
          CFI (cfiCond163) R6 load(1, XDATA, add(CFA_XSP16, literal(-12)))
          CFI (cfiCond163) VB load(1, XDATA, add(CFA_XSP16, literal(-11)))
          CFI (cfiCond163) V0 load(1, XDATA, add(CFA_XSP16, literal(-10)))
          CFI (cfiCond163) V1 load(1, XDATA, add(CFA_XSP16, literal(-9)))
          CFI (cfiCond163) V2 load(1, XDATA, add(CFA_XSP16, literal(-8)))
          CFI (cfiCond163) V3 load(1, XDATA, add(CFA_XSP16, literal(-7)))
          CFI (cfiCond163) R7 load(1, XDATA, add(CFA_XSP16, literal(-6)))
          CFI (cfiCond163) ?RET_LOW load(1, XDATA, add(CFA_XSP16, literal(-5)))
          CFI (cfiCond163) ?RET_HIGH load(1, XDATA, add(CFA_XSP16, literal(-4)))
          CFI (cfiCond163) ?BRET_EXT load(1, XDATA, add(CFA_XSP16, literal(-3)))
          CFI (cfiCond163) DPL0 load(1, XDATA, add(CFA_XSP16, literal(-2)))
          CFI (cfiCond163) DPH0 load(1, XDATA, add(CFA_XSP16, literal(-1)))
          CFI (cfiCond163) CFA_SP SP+-4
          CFI (cfiCond163) CFA_XSP16 add(XSP16, 12)
          CFI Block cfiCond164 Using cfiCommon0
          CFI (cfiCond164) Function gapBondMgr_SyncCharCfg
          CFI (cfiCond164) Conditional ??CrossCallReturnLabel_38
          CFI (cfiCond164) R6 load(1, XDATA, add(CFA_XSP16, literal(-10)))
          CFI (cfiCond164) VB load(1, XDATA, add(CFA_XSP16, literal(-9)))
          CFI (cfiCond164) V0 load(1, XDATA, add(CFA_XSP16, literal(-8)))
          CFI (cfiCond164) V1 load(1, XDATA, add(CFA_XSP16, literal(-7)))
          CFI (cfiCond164) R7 load(1, XDATA, add(CFA_XSP16, literal(-6)))
          CFI (cfiCond164) ?RET_LOW load(1, XDATA, add(CFA_XSP16, literal(-5)))
          CFI (cfiCond164) ?RET_HIGH load(1, XDATA, add(CFA_XSP16, literal(-4)))
          CFI (cfiCond164) ?BRET_EXT load(1, XDATA, add(CFA_XSP16, literal(-3)))
          CFI (cfiCond164) DPL0 load(1, XDATA, add(CFA_XSP16, literal(-2)))
          CFI (cfiCond164) DPH0 load(1, XDATA, add(CFA_XSP16, literal(-1)))
          CFI (cfiCond164) CFA_SP SP+-2
          CFI (cfiCond164) CFA_XSP16 add(XSP16, 15)
          CFI Block cfiPicker165 Using cfiCommon1
          CFI (cfiPicker165) NoFunction
          CFI (cfiPicker165) Picker
        MOVX    A,@DPTR
        MOV     R0,A
        INC     DPTR
        MOVX    A,@DPTR
        MOV     DPH,A
        MOV     DPL,R0
        INC     DPTR
        INC     DPTR
        INC     DPTR
        RET
          CFI EndBlock cfiCond162
          CFI EndBlock cfiCond163
          CFI EndBlock cfiCond164
          CFI EndBlock cfiPicker165

        RSEG BANKED_CODE:CODE:NOROOT(0)
?Subroutine16:
          CFI Block cfiCond166 Using cfiCommon0
          CFI Function gapBondMgr_SyncCharCfg
          CFI Conditional ??CrossCallReturnLabel_20
          CFI R6 load(1, XDATA, add(CFA_XSP16, literal(-10)))
          CFI VB load(1, XDATA, add(CFA_XSP16, literal(-9)))
          CFI V0 load(1, XDATA, add(CFA_XSP16, literal(-8)))
          CFI V1 load(1, XDATA, add(CFA_XSP16, literal(-7)))
          CFI R7 load(1, XDATA, add(CFA_XSP16, literal(-6)))
          CFI ?RET_LOW load(1, XDATA, add(CFA_XSP16, literal(-5)))
          CFI ?RET_HIGH load(1, XDATA, add(CFA_XSP16, literal(-4)))
          CFI ?BRET_EXT load(1, XDATA, add(CFA_XSP16, literal(-3)))
          CFI DPL0 load(1, XDATA, add(CFA_XSP16, literal(-2)))
          CFI DPH0 load(1, XDATA, add(CFA_XSP16, literal(-1)))
          CFI CFA_SP SP+-2
          CFI CFA_XSP16 add(XSP16, 21)
          CFI Block cfiCond167 Using cfiCommon0
          CFI (cfiCond167) Function gapBondMgr_SyncCharCfg
          CFI (cfiCond167) Conditional ??CrossCallReturnLabel_21
          CFI (cfiCond167) R6 load(1, XDATA, add(CFA_XSP16, literal(-10)))
          CFI (cfiCond167) VB load(1, XDATA, add(CFA_XSP16, literal(-9)))
          CFI (cfiCond167) V0 load(1, XDATA, add(CFA_XSP16, literal(-8)))
          CFI (cfiCond167) V1 load(1, XDATA, add(CFA_XSP16, literal(-7)))
          CFI (cfiCond167) R7 load(1, XDATA, add(CFA_XSP16, literal(-6)))
          CFI (cfiCond167) ?RET_LOW load(1, XDATA, add(CFA_XSP16, literal(-5)))
          CFI (cfiCond167) ?RET_HIGH load(1, XDATA, add(CFA_XSP16, literal(-4)))
          CFI (cfiCond167) ?BRET_EXT load(1, XDATA, add(CFA_XSP16, literal(-3)))
          CFI (cfiCond167) DPL0 load(1, XDATA, add(CFA_XSP16, literal(-2)))
          CFI (cfiCond167) DPH0 load(1, XDATA, add(CFA_XSP16, literal(-1)))
          CFI (cfiCond167) CFA_SP SP+-2
          CFI (cfiCond167) CFA_XSP16 add(XSP16, 15)
          CFI Block cfiPicker168 Using cfiCommon1
          CFI (cfiPicker168) NoFunction
          CFI (cfiPicker168) Picker
        LCALL   ?Subroutine24 & 0xFFFF
??CrossCallReturnLabel_48:
        MOV     A,R6
        MOV     R2,A
        MOV     A,R7
        MOV     R3,A
        RET
          CFI EndBlock cfiCond166
          CFI EndBlock cfiCond167
          CFI EndBlock cfiPicker168

        RSEG XDATA_Z:XDATA:NOROOT(0)
        DATA16
??pAttr:
        DS 2
        REQUIRE __INIT_XDATA_Z

        RSEG XDATA_Z:XDATA:NOROOT(0)
        DATA16
??service:
        DS 2
        REQUIRE __INIT_XDATA_Z
// 2181 
// 2182 /*********************************************************************
// 2183  * @fn          gapBondFreeAuthEvt
// 2184  *
// 2185  * @brief       Free GAP Authentication Complete event.
// 2186  *
// 2187  * @param       none
// 2188  *
// 2189  * @return      none
// 2190  */

        RSEG BANKED_CODE:CODE:NOROOT(0)
// 2191 static void gapBondFreeAuthEvt( void )
gapBondFreeAuthEvt:
          CFI Block cfiBlock169 Using cfiCommon0
          CFI Function gapBondFreeAuthEvt
        CODE
// 2192 {
        FUNCALL gapBondFreeAuthEvt, osal_msg_deallocate
        LOCFRAME ISTACK, 2, STACK
        LOCFRAME PSTACK, 0, STACK
        LOCFRAME XSTACK, 0, STACK
        LOCFRAME IOVERLAY, 0, STATIC
        LOCFRAME DOVERLAY, 0, STATIC
        ARGFRAME ISTACK, 2, STACK
        ARGFRAME PSTACK, 0, STACK
        ARGFRAME XSTACK, 0, STACK
        ARGFRAME IOVERLAY, 0, STATIC
        ARGFRAME DOVERLAY, 0, STATIC
        PUSH    DPL
          CFI DPL0 Frame(CFA_SP, 4)
          CFI CFA_SP SP+-4
        PUSH    DPH
          CFI DPH0 Frame(CFA_SP, 5)
          CFI CFA_SP SP+-5
        ; Saved register size: 2
        ; Auto size: 0
// 2193   if ( pAuthEvt != NULL )
        MOV     DPTR,#pAuthEvt
        LCALL   ??Subroutine31_0 & 0xFFFF
??CrossCallReturnLabel_70:
        JZ      ??gapBondFreeAuthEvt_0
// 2194   {
// 2195     // Release the OSAL message
// 2196     VOID osal_msg_deallocate( (uint8 *)pAuthEvt );
        ; Setup parameters for call to function osal_msg_deallocate
        MOV     DPTR,#pAuthEvt
        LCALL   ??Subroutine28_0 & 0xFFFF
??CrossCallReturnLabel_57:
        LCALL   ??osal_msg_deallocate?relay; Banked call to: osal_msg_deallocate
// 2197     pAuthEvt = NULL;
        MOV     DPTR,#pAuthEvt
        CLR     A
        MOVX    @DPTR,A
        INC     DPTR
        MOVX    @DPTR,A
// 2198   }
// 2199   
// 2200   bondIdx = GAP_BONDINGS_MAX;
??gapBondFreeAuthEvt_0:
        MOV     DPTR,#bondIdx
        MOV     A,#0xa
        MOVX    @DPTR,A
// 2201 }
        LJMP    ?Subroutine4 & 0xFFFF
          CFI EndBlock cfiBlock169

        RSEG BANKED_CODE:CODE:NOROOT(0)
?Subroutine7:
          CFI Block cfiCond170 Using cfiCommon0
          CFI Function GAPBondMgr_LinkEst
          CFI Conditional ??CrossCallReturnLabel_71
          CFI R6 load(1, XDATA, add(CFA_XSP16, literal(-15)))
          CFI VB load(1, XDATA, add(CFA_XSP16, literal(-14)))
          CFI V0 load(1, XDATA, add(CFA_XSP16, literal(-13)))
          CFI V1 load(1, XDATA, add(CFA_XSP16, literal(-12)))
          CFI V2 load(1, XDATA, add(CFA_XSP16, literal(-11)))
          CFI V3 load(1, XDATA, add(CFA_XSP16, literal(-10)))
          CFI V4 load(1, XDATA, add(CFA_XSP16, literal(-9)))
          CFI V5 load(1, XDATA, add(CFA_XSP16, literal(-8)))
          CFI V6 load(1, XDATA, add(CFA_XSP16, literal(-7)))
          CFI R7 load(1, XDATA, add(CFA_XSP16, literal(-6)))
          CFI ?RET_LOW load(1, XDATA, add(CFA_XSP16, literal(-5)))
          CFI ?RET_HIGH load(1, XDATA, add(CFA_XSP16, literal(-4)))
          CFI ?BRET_EXT load(1, XDATA, add(CFA_XSP16, literal(-3)))
          CFI DPL0 load(1, XDATA, add(CFA_XSP16, literal(-2)))
          CFI DPH0 load(1, XDATA, add(CFA_XSP16, literal(-1)))
          CFI CFA_SP SP+-2
          CFI CFA_XSP16 add(XSP16, 53)
          CFI Block cfiCond171 Using cfiCommon0
          CFI (cfiCond171) Function GAPBondMgr_ProcessGAPMsg
          CFI (cfiCond171) Conditional ??CrossCallReturnLabel_72
          CFI (cfiCond171) R6 load(1, XDATA, add(CFA_XSP16, literal(-16)))
          CFI (cfiCond171) VB load(1, XDATA, add(CFA_XSP16, literal(-15)))
          CFI (cfiCond171) V0 load(1, XDATA, add(CFA_XSP16, literal(-14)))
          CFI (cfiCond171) V1 load(1, XDATA, add(CFA_XSP16, literal(-13)))
          CFI (cfiCond171) V2 load(1, XDATA, add(CFA_XSP16, literal(-12)))
          CFI (cfiCond171) V3 load(1, XDATA, add(CFA_XSP16, literal(-11)))
          CFI (cfiCond171) V4 load(1, XDATA, add(CFA_XSP16, literal(-10)))
          CFI (cfiCond171) V5 load(1, XDATA, add(CFA_XSP16, literal(-9)))
          CFI (cfiCond171) V6 load(1, XDATA, add(CFA_XSP16, literal(-8)))
          CFI (cfiCond171) V7 load(1, XDATA, add(CFA_XSP16, literal(-7)))
          CFI (cfiCond171) R7 load(1, XDATA, add(CFA_XSP16, literal(-6)))
          CFI (cfiCond171) ?RET_LOW load(1, XDATA, add(CFA_XSP16, literal(-5)))
          CFI (cfiCond171) ?RET_HIGH load(1, XDATA, add(CFA_XSP16, literal(-4)))
          CFI (cfiCond171) ?BRET_EXT load(1, XDATA, add(CFA_XSP16, literal(-3)))
          CFI (cfiCond171) DPL0 load(1, XDATA, add(CFA_XSP16, literal(-2)))
          CFI (cfiCond171) DPH0 load(1, XDATA, add(CFA_XSP16, literal(-1)))
          CFI (cfiCond171) CFA_SP SP+-2
          CFI (cfiCond171) CFA_XSP16 add(XSP16, 36)
          CFI Block cfiCond172 Using cfiCommon0
          CFI (cfiCond172) Function GAPBondMgr_ProcessGAPMsg
          CFI (cfiCond172) Conditional ??CrossCallReturnLabel_73
          CFI (cfiCond172) R6 load(1, XDATA, add(CFA_XSP16, literal(-16)))
          CFI (cfiCond172) VB load(1, XDATA, add(CFA_XSP16, literal(-15)))
          CFI (cfiCond172) V0 load(1, XDATA, add(CFA_XSP16, literal(-14)))
          CFI (cfiCond172) V1 load(1, XDATA, add(CFA_XSP16, literal(-13)))
          CFI (cfiCond172) V2 load(1, XDATA, add(CFA_XSP16, literal(-12)))
          CFI (cfiCond172) V3 load(1, XDATA, add(CFA_XSP16, literal(-11)))
          CFI (cfiCond172) V4 load(1, XDATA, add(CFA_XSP16, literal(-10)))
          CFI (cfiCond172) V5 load(1, XDATA, add(CFA_XSP16, literal(-9)))
          CFI (cfiCond172) V6 load(1, XDATA, add(CFA_XSP16, literal(-8)))
          CFI (cfiCond172) V7 load(1, XDATA, add(CFA_XSP16, literal(-7)))
          CFI (cfiCond172) R7 load(1, XDATA, add(CFA_XSP16, literal(-6)))
          CFI (cfiCond172) ?RET_LOW load(1, XDATA, add(CFA_XSP16, literal(-5)))
          CFI (cfiCond172) ?RET_HIGH load(1, XDATA, add(CFA_XSP16, literal(-4)))
          CFI (cfiCond172) ?BRET_EXT load(1, XDATA, add(CFA_XSP16, literal(-3)))
          CFI (cfiCond172) DPL0 load(1, XDATA, add(CFA_XSP16, literal(-2)))
          CFI (cfiCond172) DPH0 load(1, XDATA, add(CFA_XSP16, literal(-1)))
          CFI (cfiCond172) CFA_SP SP+-2
          CFI (cfiCond172) CFA_XSP16 add(XSP16, 36)
          CFI Block cfiCond173 Using cfiCommon0
          CFI (cfiCond173) Function GAPBondMgr_ProcessGAPMsg
          CFI (cfiCond173) Conditional ??CrossCallReturnLabel_74
          CFI (cfiCond173) R6 load(1, XDATA, add(CFA_XSP16, literal(-16)))
          CFI (cfiCond173) VB load(1, XDATA, add(CFA_XSP16, literal(-15)))
          CFI (cfiCond173) V0 load(1, XDATA, add(CFA_XSP16, literal(-14)))
          CFI (cfiCond173) V1 load(1, XDATA, add(CFA_XSP16, literal(-13)))
          CFI (cfiCond173) V2 load(1, XDATA, add(CFA_XSP16, literal(-12)))
          CFI (cfiCond173) V3 load(1, XDATA, add(CFA_XSP16, literal(-11)))
          CFI (cfiCond173) V4 load(1, XDATA, add(CFA_XSP16, literal(-10)))
          CFI (cfiCond173) V5 load(1, XDATA, add(CFA_XSP16, literal(-9)))
          CFI (cfiCond173) V6 load(1, XDATA, add(CFA_XSP16, literal(-8)))
          CFI (cfiCond173) V7 load(1, XDATA, add(CFA_XSP16, literal(-7)))
          CFI (cfiCond173) R7 load(1, XDATA, add(CFA_XSP16, literal(-6)))
          CFI (cfiCond173) ?RET_LOW load(1, XDATA, add(CFA_XSP16, literal(-5)))
          CFI (cfiCond173) ?RET_HIGH load(1, XDATA, add(CFA_XSP16, literal(-4)))
          CFI (cfiCond173) ?BRET_EXT load(1, XDATA, add(CFA_XSP16, literal(-3)))
          CFI (cfiCond173) DPL0 load(1, XDATA, add(CFA_XSP16, literal(-2)))
          CFI (cfiCond173) DPH0 load(1, XDATA, add(CFA_XSP16, literal(-1)))
          CFI (cfiCond173) CFA_SP SP+-2
          CFI (cfiCond173) CFA_XSP16 add(XSP16, 36)
          CFI Block cfiCond174 Using cfiCommon0
          CFI (cfiCond174) Function GAPBondMgr_ProcessGAPMsg
          CFI (cfiCond174) Conditional ??CrossCallReturnLabel_75
          CFI (cfiCond174) R6 load(1, XDATA, add(CFA_XSP16, literal(-16)))
          CFI (cfiCond174) VB load(1, XDATA, add(CFA_XSP16, literal(-15)))
          CFI (cfiCond174) V0 load(1, XDATA, add(CFA_XSP16, literal(-14)))
          CFI (cfiCond174) V1 load(1, XDATA, add(CFA_XSP16, literal(-13)))
          CFI (cfiCond174) V2 load(1, XDATA, add(CFA_XSP16, literal(-12)))
          CFI (cfiCond174) V3 load(1, XDATA, add(CFA_XSP16, literal(-11)))
          CFI (cfiCond174) V4 load(1, XDATA, add(CFA_XSP16, literal(-10)))
          CFI (cfiCond174) V5 load(1, XDATA, add(CFA_XSP16, literal(-9)))
          CFI (cfiCond174) V6 load(1, XDATA, add(CFA_XSP16, literal(-8)))
          CFI (cfiCond174) V7 load(1, XDATA, add(CFA_XSP16, literal(-7)))
          CFI (cfiCond174) R7 load(1, XDATA, add(CFA_XSP16, literal(-6)))
          CFI (cfiCond174) ?RET_LOW load(1, XDATA, add(CFA_XSP16, literal(-5)))
          CFI (cfiCond174) ?RET_HIGH load(1, XDATA, add(CFA_XSP16, literal(-4)))
          CFI (cfiCond174) ?BRET_EXT load(1, XDATA, add(CFA_XSP16, literal(-3)))
          CFI (cfiCond174) DPL0 load(1, XDATA, add(CFA_XSP16, literal(-2)))
          CFI (cfiCond174) DPH0 load(1, XDATA, add(CFA_XSP16, literal(-1)))
          CFI (cfiCond174) CFA_SP SP+-2
          CFI (cfiCond174) CFA_XSP16 add(XSP16, 36)
          CFI Block cfiCond175 Using cfiCommon0
          CFI (cfiCond175) Function GAPBondMgr_ProcessEvent
          CFI (cfiCond175) Conditional ??CrossCallReturnLabel_76
          CFI (cfiCond175) R6 load(1, XDATA, add(CFA_XSP16, literal(-12)))
          CFI (cfiCond175) VB load(1, XDATA, add(CFA_XSP16, literal(-11)))
          CFI (cfiCond175) V0 load(1, XDATA, add(CFA_XSP16, literal(-10)))
          CFI (cfiCond175) V1 load(1, XDATA, add(CFA_XSP16, literal(-9)))
          CFI (cfiCond175) V2 load(1, XDATA, add(CFA_XSP16, literal(-8)))
          CFI (cfiCond175) V3 load(1, XDATA, add(CFA_XSP16, literal(-7)))
          CFI (cfiCond175) R7 load(1, XDATA, add(CFA_XSP16, literal(-6)))
          CFI (cfiCond175) ?RET_LOW load(1, XDATA, add(CFA_XSP16, literal(-5)))
          CFI (cfiCond175) ?RET_HIGH load(1, XDATA, add(CFA_XSP16, literal(-4)))
          CFI (cfiCond175) ?BRET_EXT load(1, XDATA, add(CFA_XSP16, literal(-3)))
          CFI (cfiCond175) DPL0 load(1, XDATA, add(CFA_XSP16, literal(-2)))
          CFI (cfiCond175) DPH0 load(1, XDATA, add(CFA_XSP16, literal(-1)))
          CFI (cfiCond175) CFA_SP SP+-2
          CFI (cfiCond175) CFA_XSP16 add(XSP16, 12)
          CFI Block cfiPicker176 Using cfiCommon1
          CFI (cfiPicker176) NoFunction
          CFI (cfiPicker176) Picker
        MOV     DPTR,#pGapBondCB
          CFI EndBlock cfiCond170
          CFI EndBlock cfiCond171
          CFI EndBlock cfiCond172
          CFI EndBlock cfiCond173
          CFI EndBlock cfiCond174
          CFI EndBlock cfiCond175
          CFI EndBlock cfiPicker176
        REQUIRE ??Subroutine31_0
        ; // Fall through to label ??Subroutine31_0

        RSEG BANKED_CODE:CODE:NOROOT(0)
??Subroutine31_0:
          CFI Block cfiCond177 Using cfiCommon0
          CFI Function GAPBondMgr_ProcessGAPMsg
          CFI Conditional ??CrossCallReturnLabel_65
          CFI R6 load(1, XDATA, add(CFA_XSP16, literal(-16)))
          CFI VB load(1, XDATA, add(CFA_XSP16, literal(-15)))
          CFI V0 load(1, XDATA, add(CFA_XSP16, literal(-14)))
          CFI V1 load(1, XDATA, add(CFA_XSP16, literal(-13)))
          CFI V2 load(1, XDATA, add(CFA_XSP16, literal(-12)))
          CFI V3 load(1, XDATA, add(CFA_XSP16, literal(-11)))
          CFI V4 load(1, XDATA, add(CFA_XSP16, literal(-10)))
          CFI V5 load(1, XDATA, add(CFA_XSP16, literal(-9)))
          CFI V6 load(1, XDATA, add(CFA_XSP16, literal(-8)))
          CFI V7 load(1, XDATA, add(CFA_XSP16, literal(-7)))
          CFI R7 load(1, XDATA, add(CFA_XSP16, literal(-6)))
          CFI ?RET_LOW load(1, XDATA, add(CFA_XSP16, literal(-5)))
          CFI ?RET_HIGH load(1, XDATA, add(CFA_XSP16, literal(-4)))
          CFI ?BRET_EXT load(1, XDATA, add(CFA_XSP16, literal(-3)))
          CFI DPL0 load(1, XDATA, add(CFA_XSP16, literal(-2)))
          CFI DPH0 load(1, XDATA, add(CFA_XSP16, literal(-1)))
          CFI CFA_SP SP+-2
          CFI CFA_XSP16 add(XSP16, 36)
          CFI Block cfiCond178 Using cfiCommon0
          CFI (cfiCond178) Function gapBondMgrAddBond
          CFI (cfiCond178) Conditional ??CrossCallReturnLabel_66
          CFI (cfiCond178) R6 load(1, XDATA, add(CFA_XSP16, literal(-12)))
          CFI (cfiCond178) VB load(1, XDATA, add(CFA_XSP16, literal(-11)))
          CFI (cfiCond178) V0 load(1, XDATA, add(CFA_XSP16, literal(-10)))
          CFI (cfiCond178) V1 load(1, XDATA, add(CFA_XSP16, literal(-9)))
          CFI (cfiCond178) V2 load(1, XDATA, add(CFA_XSP16, literal(-8)))
          CFI (cfiCond178) V3 load(1, XDATA, add(CFA_XSP16, literal(-7)))
          CFI (cfiCond178) R7 load(1, XDATA, add(CFA_XSP16, literal(-6)))
          CFI (cfiCond178) ?RET_LOW load(1, XDATA, add(CFA_XSP16, literal(-5)))
          CFI (cfiCond178) ?RET_HIGH load(1, XDATA, add(CFA_XSP16, literal(-4)))
          CFI (cfiCond178) ?BRET_EXT load(1, XDATA, add(CFA_XSP16, literal(-3)))
          CFI (cfiCond178) DPL0 load(1, XDATA, add(CFA_XSP16, literal(-2)))
          CFI (cfiCond178) DPH0 load(1, XDATA, add(CFA_XSP16, literal(-1)))
          CFI (cfiCond178) CFA_SP SP+-2
          CFI (cfiCond178) CFA_XSP16 add(XSP16, 24)
          CFI Block cfiCond179 Using cfiCommon0
          CFI (cfiCond179) Function gapBondMgr_SyncCharCfg
          CFI (cfiCond179) Conditional ??CrossCallReturnLabel_67
          CFI (cfiCond179) R6 load(1, XDATA, add(CFA_XSP16, literal(-10)))
          CFI (cfiCond179) VB load(1, XDATA, add(CFA_XSP16, literal(-9)))
          CFI (cfiCond179) V0 load(1, XDATA, add(CFA_XSP16, literal(-8)))
          CFI (cfiCond179) V1 load(1, XDATA, add(CFA_XSP16, literal(-7)))
          CFI (cfiCond179) R7 load(1, XDATA, add(CFA_XSP16, literal(-6)))
          CFI (cfiCond179) ?RET_LOW load(1, XDATA, add(CFA_XSP16, literal(-5)))
          CFI (cfiCond179) ?RET_HIGH load(1, XDATA, add(CFA_XSP16, literal(-4)))
          CFI (cfiCond179) ?BRET_EXT load(1, XDATA, add(CFA_XSP16, literal(-3)))
          CFI (cfiCond179) DPL0 load(1, XDATA, add(CFA_XSP16, literal(-2)))
          CFI (cfiCond179) DPH0 load(1, XDATA, add(CFA_XSP16, literal(-1)))
          CFI (cfiCond179) CFA_SP SP+-2
          CFI (cfiCond179) CFA_XSP16 add(XSP16, 13)
          CFI Block cfiCond180 Using cfiCommon0
          CFI (cfiCond180) Function gapBondMgr_SyncCharCfg
          CFI (cfiCond180) Conditional ??CrossCallReturnLabel_68
          CFI (cfiCond180) R6 load(1, XDATA, add(CFA_XSP16, literal(-10)))
          CFI (cfiCond180) VB load(1, XDATA, add(CFA_XSP16, literal(-9)))
          CFI (cfiCond180) V0 load(1, XDATA, add(CFA_XSP16, literal(-8)))
          CFI (cfiCond180) V1 load(1, XDATA, add(CFA_XSP16, literal(-7)))
          CFI (cfiCond180) R7 load(1, XDATA, add(CFA_XSP16, literal(-6)))
          CFI (cfiCond180) ?RET_LOW load(1, XDATA, add(CFA_XSP16, literal(-5)))
          CFI (cfiCond180) ?RET_HIGH load(1, XDATA, add(CFA_XSP16, literal(-4)))
          CFI (cfiCond180) ?BRET_EXT load(1, XDATA, add(CFA_XSP16, literal(-3)))
          CFI (cfiCond180) DPL0 load(1, XDATA, add(CFA_XSP16, literal(-2)))
          CFI (cfiCond180) DPH0 load(1, XDATA, add(CFA_XSP16, literal(-1)))
          CFI (cfiCond180) CFA_SP SP+-2
          CFI (cfiCond180) CFA_XSP16 add(XSP16, 13)
          CFI Block cfiCond181 Using cfiCommon0
          CFI (cfiCond181) Function gapBondMgr_SyncCharCfg
          CFI (cfiCond181) Conditional ??CrossCallReturnLabel_69
          CFI (cfiCond181) R6 load(1, XDATA, add(CFA_XSP16, literal(-10)))
          CFI (cfiCond181) VB load(1, XDATA, add(CFA_XSP16, literal(-9)))
          CFI (cfiCond181) V0 load(1, XDATA, add(CFA_XSP16, literal(-8)))
          CFI (cfiCond181) V1 load(1, XDATA, add(CFA_XSP16, literal(-7)))
          CFI (cfiCond181) R7 load(1, XDATA, add(CFA_XSP16, literal(-6)))
          CFI (cfiCond181) ?RET_LOW load(1, XDATA, add(CFA_XSP16, literal(-5)))
          CFI (cfiCond181) ?RET_HIGH load(1, XDATA, add(CFA_XSP16, literal(-4)))
          CFI (cfiCond181) ?BRET_EXT load(1, XDATA, add(CFA_XSP16, literal(-3)))
          CFI (cfiCond181) DPL0 load(1, XDATA, add(CFA_XSP16, literal(-2)))
          CFI (cfiCond181) DPH0 load(1, XDATA, add(CFA_XSP16, literal(-1)))
          CFI (cfiCond181) CFA_SP SP+-2
          CFI (cfiCond181) CFA_XSP16 add(XSP16, 13)
          CFI Block cfiCond182 Using cfiCommon0
          CFI (cfiCond182) Function gapBondFreeAuthEvt
          CFI (cfiCond182) Conditional ??CrossCallReturnLabel_70
          CFI (cfiCond182) DPL0 Frame(CFA_SP, 4)
          CFI (cfiCond182) DPH0 Frame(CFA_SP, 5)
          CFI (cfiCond182) CFA_SP SP+-7
          CFI Block cfiCond183 Using cfiCommon0
          CFI (cfiCond183) Function GAPBondMgr_LinkEst
          CFI (cfiCond183) Conditional ??CrossCallReturnLabel_71
          CFI (cfiCond183) R6 load(1, XDATA, add(CFA_XSP16, literal(-15)))
          CFI (cfiCond183) VB load(1, XDATA, add(CFA_XSP16, literal(-14)))
          CFI (cfiCond183) V0 load(1, XDATA, add(CFA_XSP16, literal(-13)))
          CFI (cfiCond183) V1 load(1, XDATA, add(CFA_XSP16, literal(-12)))
          CFI (cfiCond183) V2 load(1, XDATA, add(CFA_XSP16, literal(-11)))
          CFI (cfiCond183) V3 load(1, XDATA, add(CFA_XSP16, literal(-10)))
          CFI (cfiCond183) V4 load(1, XDATA, add(CFA_XSP16, literal(-9)))
          CFI (cfiCond183) V5 load(1, XDATA, add(CFA_XSP16, literal(-8)))
          CFI (cfiCond183) V6 load(1, XDATA, add(CFA_XSP16, literal(-7)))
          CFI (cfiCond183) R7 load(1, XDATA, add(CFA_XSP16, literal(-6)))
          CFI (cfiCond183) ?RET_LOW load(1, XDATA, add(CFA_XSP16, literal(-5)))
          CFI (cfiCond183) ?RET_HIGH load(1, XDATA, add(CFA_XSP16, literal(-4)))
          CFI (cfiCond183) ?BRET_EXT load(1, XDATA, add(CFA_XSP16, literal(-3)))
          CFI (cfiCond183) DPL0 load(1, XDATA, add(CFA_XSP16, literal(-2)))
          CFI (cfiCond183) DPH0 load(1, XDATA, add(CFA_XSP16, literal(-1)))
          CFI (cfiCond183) CFA_SP SP+-2
          CFI (cfiCond183) CFA_XSP16 add(XSP16, 53)
          CFI Block cfiCond184 Using cfiCommon0
          CFI (cfiCond184) Function GAPBondMgr_ProcessGAPMsg
          CFI (cfiCond184) Conditional ??CrossCallReturnLabel_72
          CFI (cfiCond184) R6 load(1, XDATA, add(CFA_XSP16, literal(-16)))
          CFI (cfiCond184) VB load(1, XDATA, add(CFA_XSP16, literal(-15)))
          CFI (cfiCond184) V0 load(1, XDATA, add(CFA_XSP16, literal(-14)))
          CFI (cfiCond184) V1 load(1, XDATA, add(CFA_XSP16, literal(-13)))
          CFI (cfiCond184) V2 load(1, XDATA, add(CFA_XSP16, literal(-12)))
          CFI (cfiCond184) V3 load(1, XDATA, add(CFA_XSP16, literal(-11)))
          CFI (cfiCond184) V4 load(1, XDATA, add(CFA_XSP16, literal(-10)))
          CFI (cfiCond184) V5 load(1, XDATA, add(CFA_XSP16, literal(-9)))
          CFI (cfiCond184) V6 load(1, XDATA, add(CFA_XSP16, literal(-8)))
          CFI (cfiCond184) V7 load(1, XDATA, add(CFA_XSP16, literal(-7)))
          CFI (cfiCond184) R7 load(1, XDATA, add(CFA_XSP16, literal(-6)))
          CFI (cfiCond184) ?RET_LOW load(1, XDATA, add(CFA_XSP16, literal(-5)))
          CFI (cfiCond184) ?RET_HIGH load(1, XDATA, add(CFA_XSP16, literal(-4)))
          CFI (cfiCond184) ?BRET_EXT load(1, XDATA, add(CFA_XSP16, literal(-3)))
          CFI (cfiCond184) DPL0 load(1, XDATA, add(CFA_XSP16, literal(-2)))
          CFI (cfiCond184) DPH0 load(1, XDATA, add(CFA_XSP16, literal(-1)))
          CFI (cfiCond184) CFA_SP SP+-2
          CFI (cfiCond184) CFA_XSP16 add(XSP16, 36)
          CFI Block cfiCond185 Using cfiCommon0
          CFI (cfiCond185) Function GAPBondMgr_ProcessGAPMsg
          CFI (cfiCond185) Conditional ??CrossCallReturnLabel_73
          CFI (cfiCond185) R6 load(1, XDATA, add(CFA_XSP16, literal(-16)))
          CFI (cfiCond185) VB load(1, XDATA, add(CFA_XSP16, literal(-15)))
          CFI (cfiCond185) V0 load(1, XDATA, add(CFA_XSP16, literal(-14)))
          CFI (cfiCond185) V1 load(1, XDATA, add(CFA_XSP16, literal(-13)))
          CFI (cfiCond185) V2 load(1, XDATA, add(CFA_XSP16, literal(-12)))
          CFI (cfiCond185) V3 load(1, XDATA, add(CFA_XSP16, literal(-11)))
          CFI (cfiCond185) V4 load(1, XDATA, add(CFA_XSP16, literal(-10)))
          CFI (cfiCond185) V5 load(1, XDATA, add(CFA_XSP16, literal(-9)))
          CFI (cfiCond185) V6 load(1, XDATA, add(CFA_XSP16, literal(-8)))
          CFI (cfiCond185) V7 load(1, XDATA, add(CFA_XSP16, literal(-7)))
          CFI (cfiCond185) R7 load(1, XDATA, add(CFA_XSP16, literal(-6)))
          CFI (cfiCond185) ?RET_LOW load(1, XDATA, add(CFA_XSP16, literal(-5)))
          CFI (cfiCond185) ?RET_HIGH load(1, XDATA, add(CFA_XSP16, literal(-4)))
          CFI (cfiCond185) ?BRET_EXT load(1, XDATA, add(CFA_XSP16, literal(-3)))
          CFI (cfiCond185) DPL0 load(1, XDATA, add(CFA_XSP16, literal(-2)))
          CFI (cfiCond185) DPH0 load(1, XDATA, add(CFA_XSP16, literal(-1)))
          CFI (cfiCond185) CFA_SP SP+-2
          CFI (cfiCond185) CFA_XSP16 add(XSP16, 36)
          CFI Block cfiCond186 Using cfiCommon0
          CFI (cfiCond186) Function GAPBondMgr_ProcessGAPMsg
          CFI (cfiCond186) Conditional ??CrossCallReturnLabel_74
          CFI (cfiCond186) R6 load(1, XDATA, add(CFA_XSP16, literal(-16)))
          CFI (cfiCond186) VB load(1, XDATA, add(CFA_XSP16, literal(-15)))
          CFI (cfiCond186) V0 load(1, XDATA, add(CFA_XSP16, literal(-14)))
          CFI (cfiCond186) V1 load(1, XDATA, add(CFA_XSP16, literal(-13)))
          CFI (cfiCond186) V2 load(1, XDATA, add(CFA_XSP16, literal(-12)))
          CFI (cfiCond186) V3 load(1, XDATA, add(CFA_XSP16, literal(-11)))
          CFI (cfiCond186) V4 load(1, XDATA, add(CFA_XSP16, literal(-10)))
          CFI (cfiCond186) V5 load(1, XDATA, add(CFA_XSP16, literal(-9)))
          CFI (cfiCond186) V6 load(1, XDATA, add(CFA_XSP16, literal(-8)))
          CFI (cfiCond186) V7 load(1, XDATA, add(CFA_XSP16, literal(-7)))
          CFI (cfiCond186) R7 load(1, XDATA, add(CFA_XSP16, literal(-6)))
          CFI (cfiCond186) ?RET_LOW load(1, XDATA, add(CFA_XSP16, literal(-5)))
          CFI (cfiCond186) ?RET_HIGH load(1, XDATA, add(CFA_XSP16, literal(-4)))
          CFI (cfiCond186) ?BRET_EXT load(1, XDATA, add(CFA_XSP16, literal(-3)))
          CFI (cfiCond186) DPL0 load(1, XDATA, add(CFA_XSP16, literal(-2)))
          CFI (cfiCond186) DPH0 load(1, XDATA, add(CFA_XSP16, literal(-1)))
          CFI (cfiCond186) CFA_SP SP+-2
          CFI (cfiCond186) CFA_XSP16 add(XSP16, 36)
          CFI Block cfiCond187 Using cfiCommon0
          CFI (cfiCond187) Function GAPBondMgr_ProcessGAPMsg
          CFI (cfiCond187) Conditional ??CrossCallReturnLabel_75
          CFI (cfiCond187) R6 load(1, XDATA, add(CFA_XSP16, literal(-16)))
          CFI (cfiCond187) VB load(1, XDATA, add(CFA_XSP16, literal(-15)))
          CFI (cfiCond187) V0 load(1, XDATA, add(CFA_XSP16, literal(-14)))
          CFI (cfiCond187) V1 load(1, XDATA, add(CFA_XSP16, literal(-13)))
          CFI (cfiCond187) V2 load(1, XDATA, add(CFA_XSP16, literal(-12)))
          CFI (cfiCond187) V3 load(1, XDATA, add(CFA_XSP16, literal(-11)))
          CFI (cfiCond187) V4 load(1, XDATA, add(CFA_XSP16, literal(-10)))
          CFI (cfiCond187) V5 load(1, XDATA, add(CFA_XSP16, literal(-9)))
          CFI (cfiCond187) V6 load(1, XDATA, add(CFA_XSP16, literal(-8)))
          CFI (cfiCond187) V7 load(1, XDATA, add(CFA_XSP16, literal(-7)))
          CFI (cfiCond187) R7 load(1, XDATA, add(CFA_XSP16, literal(-6)))
          CFI (cfiCond187) ?RET_LOW load(1, XDATA, add(CFA_XSP16, literal(-5)))
          CFI (cfiCond187) ?RET_HIGH load(1, XDATA, add(CFA_XSP16, literal(-4)))
          CFI (cfiCond187) ?BRET_EXT load(1, XDATA, add(CFA_XSP16, literal(-3)))
          CFI (cfiCond187) DPL0 load(1, XDATA, add(CFA_XSP16, literal(-2)))
          CFI (cfiCond187) DPH0 load(1, XDATA, add(CFA_XSP16, literal(-1)))
          CFI (cfiCond187) CFA_SP SP+-2
          CFI (cfiCond187) CFA_XSP16 add(XSP16, 36)
          CFI Block cfiCond188 Using cfiCommon0
          CFI (cfiCond188) Function GAPBondMgr_ProcessEvent
          CFI (cfiCond188) Conditional ??CrossCallReturnLabel_76
          CFI (cfiCond188) R6 load(1, XDATA, add(CFA_XSP16, literal(-12)))
          CFI (cfiCond188) VB load(1, XDATA, add(CFA_XSP16, literal(-11)))
          CFI (cfiCond188) V0 load(1, XDATA, add(CFA_XSP16, literal(-10)))
          CFI (cfiCond188) V1 load(1, XDATA, add(CFA_XSP16, literal(-9)))
          CFI (cfiCond188) V2 load(1, XDATA, add(CFA_XSP16, literal(-8)))
          CFI (cfiCond188) V3 load(1, XDATA, add(CFA_XSP16, literal(-7)))
          CFI (cfiCond188) R7 load(1, XDATA, add(CFA_XSP16, literal(-6)))
          CFI (cfiCond188) ?RET_LOW load(1, XDATA, add(CFA_XSP16, literal(-5)))
          CFI (cfiCond188) ?RET_HIGH load(1, XDATA, add(CFA_XSP16, literal(-4)))
          CFI (cfiCond188) ?BRET_EXT load(1, XDATA, add(CFA_XSP16, literal(-3)))
          CFI (cfiCond188) DPL0 load(1, XDATA, add(CFA_XSP16, literal(-2)))
          CFI (cfiCond188) DPH0 load(1, XDATA, add(CFA_XSP16, literal(-1)))
          CFI (cfiCond188) CFA_SP SP+-2
          CFI (cfiCond188) CFA_XSP16 add(XSP16, 12)
          CFI Block cfiPicker189 Using cfiCommon1
          CFI (cfiPicker189) NoFunction
          CFI (cfiPicker189) Picker
        LCALL   ??Subroutine26_0 & 0xFFFF
??CrossCallReturnLabel_82:
        MOV     A,R0
        ORL     A,R1
        RET
          CFI EndBlock cfiCond177
          CFI EndBlock cfiCond178
          CFI EndBlock cfiCond179
          CFI EndBlock cfiCond180
          CFI EndBlock cfiCond181
          CFI EndBlock cfiCond182
          CFI EndBlock cfiCond183
          CFI EndBlock cfiCond184
          CFI EndBlock cfiCond185
          CFI EndBlock cfiCond186
          CFI EndBlock cfiCond187
          CFI EndBlock cfiCond188
          CFI EndBlock cfiPicker189

        RSEG XDATA_ID:CODE:NOROOT(0)
`?<Initializer for gapBond_PairingMode>`:
        DATA8
        DB 1

        RSEG XDATA_ID:CODE:NOROOT(0)
`?<Initializer for gapBond_InitiateWait>`:
        DATA16
        DW 1000

        RSEG XDATA_ID:CODE:NOROOT(0)
`?<Initializer for gapBond_AutoFailReason>`:
        DATA8
        DB 5

        RSEG XDATA_ID:CODE:NOROOT(0)
`?<Initializer for gapBond_KeyDistList>`:
        DATA8
        DB 63

        RSEG XDATA_ID:CODE:NOROOT(0)
`?<Initializer for gapBond_KeySize>`:
        DATA8
        DB 16

        RSEG XDATA_ID:CODE:NOROOT(0)
`?<Initializer for gapBond_BondFailOption>`:
        DATA8
        DB 2

        RSEG XDATA_ID:CODE:NOROOT(0)
`?<Initializer for bondIdx>`:
        DATA8
        DB 10

        RSEG BANK_RELAYS:CODE:REORDER:NOROOT(0)
??GAPBondMgr_SetParameter?relay:
        CODE
        LCALL   ?BDISPATCH
        DATA24
        DC24    GAPBondMgr_SetParameter

        RSEG BANK_RELAYS:CODE:REORDER:NOROOT(0)
??GAPBondMgr_GetParameter?relay:
        CODE
        LCALL   ?BDISPATCH
        DATA24
        DC24    GAPBondMgr_GetParameter

        RSEG BANK_RELAYS:CODE:REORDER:NOROOT(0)
??GAPBondMgr_LinkEst?relay:
        CODE
        LCALL   ?BDISPATCH
        DATA24
        DC24    GAPBondMgr_LinkEst

        RSEG BANK_RELAYS:CODE:REORDER:NOROOT(0)
??GAPBondMgr_ResolveAddr?relay:
        CODE
        LCALL   ?BDISPATCH
        DATA24
        DC24    GAPBondMgr_ResolveAddr

        RSEG BANK_RELAYS:CODE:REORDER:NOROOT(0)
??GAPBondMgr_ServiceChangeInd?relay:
        CODE
        LCALL   ?BDISPATCH
        DATA24
        DC24    GAPBondMgr_ServiceChangeInd

        RSEG BANK_RELAYS:CODE:REORDER:NOROOT(0)
??GAPBondMgr_UpdateCharCfg?relay:
        CODE
        LCALL   ?BDISPATCH
        DATA24
        DC24    GAPBondMgr_UpdateCharCfg

        RSEG BANK_RELAYS:CODE:REORDER:NOROOT(0)
??GAPBondMgr_Register?relay:
        CODE
        LCALL   ?BDISPATCH
        DATA24
        DC24    GAPBondMgr_Register

        RSEG BANK_RELAYS:CODE:REORDER:NOROOT(0)
??GAPBondMgr_PasscodeRsp?relay:
        CODE
        LCALL   ?BDISPATCH
        DATA24
        DC24    GAPBondMgr_PasscodeRsp

        RSEG BANK_RELAYS:CODE:REORDER:NOROOT(0)
??GAPBondMgr_ProcessGAPMsg?relay:
        CODE
        LCALL   ?BDISPATCH
        DATA24
        DC24    GAPBondMgr_ProcessGAPMsg

        RSEG BANK_RELAYS:CODE:REORDER:NOROOT(0)
??gapBondMgrChangeState?relay:
        CODE
        LCALL   ?BDISPATCH
        DATA24
        DC24    gapBondMgrChangeState

        RSEG BANK_RELAYS:CODE:REORDER:NOROOT(0)
??gapBondMgrUpdateCharCfg?relay:
        CODE
        LCALL   ?BDISPATCH
        DATA24
        DC24    gapBondMgrUpdateCharCfg

        RSEG BANK_RELAYS:CODE:REORDER:NOROOT(0)
??gapBondMgrFindCharCfgItem?relay:
        CODE
        LCALL   ?BDISPATCH
        DATA24
        DC24    gapBondMgrFindCharCfgItem

        RSEG BANK_RELAYS:CODE:REORDER:NOROOT(0)
??gapBondMgrInvertCharCfgItem?relay:
        CODE
        LCALL   ?BDISPATCH
        DATA24
        DC24    gapBondMgrInvertCharCfgItem

        RSEG BANK_RELAYS:CODE:REORDER:NOROOT(0)
??gapBondMgrAddBond?relay:
        CODE
        LCALL   ?BDISPATCH
        DATA24
        DC24    gapBondMgrAddBond

        RSEG BANK_RELAYS:CODE:REORDER:NOROOT(0)
??gapBondMgrGetStateFlags?relay:
        CODE
        LCALL   ?BDISPATCH
        DATA24
        DC24    gapBondMgrGetStateFlags

        RSEG BANK_RELAYS:CODE:REORDER:NOROOT(0)
??gapBondMgrGetPublicAddr?relay:
        CODE
        LCALL   ?BDISPATCH
        DATA24
        DC24    gapBondMgrGetPublicAddr

        RSEG BANK_RELAYS:CODE:REORDER:NOROOT(0)
??gapBondMgrFindAddr?relay:
        CODE
        LCALL   ?BDISPATCH
        DATA24
        DC24    gapBondMgrFindAddr

        RSEG BANK_RELAYS:CODE:REORDER:NOROOT(0)
??gapBondMgrReadBonds?relay:
        CODE
        LCALL   ?BDISPATCH
        DATA24
        DC24    gapBondMgrReadBonds

        RSEG BANK_RELAYS:CODE:REORDER:NOROOT(0)
??gapBondMgrBondTotal?relay:
        CODE
        LCALL   ?BDISPATCH
        DATA24
        DC24    gapBondMgrBondTotal

        RSEG BANK_RELAYS:CODE:REORDER:NOROOT(0)
??gapBondMgrEraseAllBondings?relay:
        CODE
        LCALL   ?BDISPATCH
        DATA24
        DC24    gapBondMgrEraseAllBondings

        RSEG BANK_RELAYS:CODE:REORDER:NOROOT(0)
??gapBondMgrEraseBonding?relay:
        CODE
        LCALL   ?BDISPATCH
        DATA24
        DC24    gapBondMgrEraseBonding

        RSEG BANK_RELAYS:CODE:REORDER:NOROOT(0)
??GAPBondMgr_Init?relay:
        CODE
        LCALL   ?BDISPATCH
        DATA24
        DC24    GAPBondMgr_Init

        RSEG BANK_RELAYS:CODE:REORDER:NOROOT(0)
??GAPBondMgr_ProcessEvent?relay:
        CODE
        LCALL   ?BDISPATCH
        DATA24
        DC24    GAPBondMgr_ProcessEvent

        RSEG BANK_RELAYS:CODE:REORDER:NOROOT(0)
??GAPBondMgr_CheckNVLen?relay:
        CODE
        LCALL   ?BDISPATCH
        DATA24
        DC24    GAPBondMgr_CheckNVLen

        RSEG BANK_RELAYS:CODE:REORDER:NOROOT(0)
??gapBondMgrSendServiceChange?relay:
        CODE
        LCALL   ?BDISPATCH
        DATA24
        DC24    gapBondMgrSendServiceChange

        RSEG BANK_RELAYS:CODE:REORDER:NOROOT(0)
??gapBondSetupPrivFlag?relay:
        CODE
        LCALL   ?BDISPATCH
        DATA24
        DC24    gapBondSetupPrivFlag

        RSEG BANK_RELAYS:CODE:REORDER:NOROOT(0)
??gapBondMgrAuthenticate?relay:
        CODE
        LCALL   ?BDISPATCH
        DATA24
        DC24    gapBondMgrAuthenticate

        RSEG BANK_RELAYS:CODE:REORDER:NOROOT(0)
??gapBondMgrBondReq?relay:
        CODE
        LCALL   ?BDISPATCH
        DATA24
        DC24    gapBondMgrBondReq

        RSEG BANK_RELAYS:CODE:REORDER:NOROOT(0)
??gapBondMgr_SyncWhiteList?relay:
        CODE
        LCALL   ?BDISPATCH
        DATA24
        DC24    gapBondMgr_SyncWhiteList

        RSEG BANK_RELAYS:CODE:REORDER:NOROOT(0)
??gapBondMgr_SyncCharCfg?relay:
        CODE
        LCALL   ?BDISPATCH
        DATA24
        DC24    gapBondMgr_SyncCharCfg

        RSEG BANK_RELAYS:CODE:REORDER:NOROOT(0)
??gapBondFreeAuthEvt?relay:
        CODE
        LCALL   ?BDISPATCH
        DATA24
        DC24    gapBondFreeAuthEvt

        RSEG XDATA_ROM_C:CONST:REORDER:NOROOT(0)
        DATA8
`?<Constant {0, 0, 0, 0, 0, 0}>`:
        DB 0
        DB 0
        DB 0
        DB 0
        DB 0
        DB 0

        RSEG XDATA_ROM_C:CONST:REORDER:NOROOT(0)
        DATA8
`?<Constant {0, 0, 0, 0, 0, 0}>_1`:
        DB 0
        DB 0
        DB 0
        DB 0
        DB 0
        DB 0

        RSEG XDATA_ROM_C:CONST:REORDER:NOROOT(0)
        DATA32
__Constant_f4240:
        DD 1000000

        END
// 2202 
// 2203 #endif // ( CENTRAL_CFG | PERIPHERAL_CFG )
// 2204 
// 2205 /*********************************************************************
// 2206 *********************************************************************/
// 
// 5 957 bytes in segment BANKED_CODE
//   186 bytes in segment BANK_RELAYS
//     8 bytes in segment XDATA_I
//     8 bytes in segment XDATA_ID
//    16 bytes in segment XDATA_ROM_C
//   186 bytes in segment XDATA_Z
// 
// 6 151 bytes of CODE  memory
//    12 bytes of CONST memory (+ 4 bytes shared)
//   194 bytes of XDATA memory
//
//Errors: none
//Warnings: none
