///////////////////////////////////////////////////////////////////////////////
//                                                                            /
// IAR C/C++ Compiler V8.30.1.41636 for 8051            02/Jun/2014  17:47:56 /
// Copyright 2004-2013 IAR Systems AB.                                        /
//                                                                            /
//    Core               =  plain                                             /
//    Code model         =  banked                                            /
//    Data model         =  large                                             /
//    Calling convention =  xdata reentrant                                   /
//    Constant location  =  data_rom                                          /
//    Dptr setup         =  1,16                                              /
//                                                                            /
//    Source file        =  c:\Users\Administrator\Documents\Dropbox\Fish     /
//                          Brain\HM-10 Hack\HM-10 Firmware\Projects\ble\Prof /
//                          iles\Roles\gapbondmgr.c                           /
//    Command line       =  -f "c:\Users\Administrator\Documents\Dropbox\Fish /
//                           Brain\HM-10 Hack\HM-10                           /
//                          Firmware\Projects\ble\HostTestApp\CC2540\..\..\co /
//                          nfig\buildComponents.cfg"                         /
//                          (-DBROADCASTER_CFG=0x01 -DOBSERVER_CFG=0x02       /
//                          -DPERIPHERAL_CFG=0x04 -DCENTRAL_CFG=0x08          /
//                          -DADV_NCONN_CFG=0x01 -DADV_CONN_CFG=0x02          /
//                          -DSCAN_CFG=0x04 -DINIT_CFG=0x08                   /
//                          -DADV_CFG=ADV_NCONN_CFG+ADV_CONN_CFG              /
//                          -DLINK_CFG=ADV_CONN_CFG+INIT_CFG                  /
//                          -DFULL_CFG=INIT_CFG+SCAN_CFG+ADV_NCONN_CFG+ADV_CO /
//                          NN_CFG) -f "c:\Users\Administrator\Documents\Drop /
//                          box\Fish Brain\HM-10 Hack\HM-10                   /
//                          Firmware\Projects\ble\HostTestApp\CC2540\buildCon /
//                          fig.cfg" (-DHOST_CONFIG=PERIPHERAL_CFG+CENTRAL_CF /
//                          G -DGAP_PRIVACY_RECONNECT)                        /
//                          "c:\Users\Administrator\Documents\Dropbox\Fish    /
//                          Brain\HM-10 Hack\HM-10 Firmware\Projects\ble\Prof /
//                          iles\Roles\gapbondmgr.c" -D INT_HEAP_LEN=2700 -D  /
//                          HALNODEBUG -D OSAL_CBTIMER_NUM_TASKS=1 -D         /
//                          POWER_SAVING -D HAL_AES_DMA=TRUE -D HAL_DMA=TRUE  /
//                          -D HAL_UART=TRUE -D HAL_UART_DMA=0 -D             /
//                          HAL_UART_ISR=0 -D HAL_UART_SPI=2 -D               /
//                          HAL_SPI_QUEUED_TX=TRUE -D HAL_KEY=FALSE -D        /
//                          HAL_LCD=FALSE -D HAL_LED=FALSE -D                 /
//                          GATT_DB_OFF_CHIP -D GAP_BOND_MGR -lCN             /
//                          "c:\Users\Administrator\Documents\Dropbox\Fish    /
//                          Brain\HM-10 Hack\HM-10 Firmware\Projects\ble\Host /
//                          TestApp\CC2540\CC2540SPI\List\" -lA               /
//                          "c:\Users\Administrator\Documents\Dropbox\Fish    /
//                          Brain\HM-10 Hack\HM-10 Firmware\Projects\ble\Host /
//                          TestApp\CC2540\CC2540SPI\List\" -o                /
//                          "c:\Users\Administrator\Documents\Dropbox\Fish    /
//                          Brain\HM-10 Hack\HM-10 Firmware\Projects\ble\Host /
//                          TestApp\CC2540\CC2540SPI\Obj\" -e --debug         /
//                          --core=plain --dptr=16,1 --data_model=large       /
//                          --code_model=banked --calling_convention=xdata_re /
//                          entrant --place_constants=data_rom                /
//                          --nr_virtual_regs 8 -I "c:\Users\Administrator\Do /
//                          cuments\Dropbox\Fish Brain\HM-10 Hack\HM-10       /
//                          Firmware\Projects\ble\HostTestApp\CC2540\..\..\co /
//                          mmon\" -I "c:\Users\Administrator\Documents\Dropb /
//                          ox\Fish Brain\HM-10 Hack\HM-10                    /
//                          Firmware\Projects\ble\HostTestApp\CC2540\..\..\.. /
//                          \..\Components\hal\include\" -I                   /
//                          "c:\Users\Administrator\Documents\Dropbox\Fish    /
//                          Brain\HM-10 Hack\HM-10 Firmware\Projects\ble\Host /
//                          TestApp\CC2540\..\..\..\..\Components\hal\target\ /
//                          CC2540EB\" -I "c:\Users\Administrator\Documents\D /
//                          ropbox\Fish Brain\HM-10 Hack\HM-10                /
//                          Firmware\Projects\ble\HostTestApp\CC2540\..\..\.. /
//                          \..\Components\osal\include\" -I                  /
//                          "c:\Users\Administrator\Documents\Dropbox\Fish    /
//                          Brain\HM-10 Hack\HM-10 Firmware\Projects\ble\Host /
//                          TestApp\CC2540\..\..\..\..\Components\services\sa /
//                          ddr\" -I "c:\Users\Administrator\Documents\Dropbo /
//                          x\Fish Brain\HM-10 Hack\HM-10                     /
//                          Firmware\Projects\ble\HostTestApp\CC2540\..\..\.. /
//                          \..\Components\ble\include\" -I                   /
//                          "c:\Users\Administrator\Documents\Dropbox\Fish    /
//                          Brain\HM-10 Hack\HM-10 Firmware\Projects\ble\Host /
//                          TestApp\CC2540\..\..\..\..\Components\ble\control /
//                          ler\phy\" -I "c:\Users\Administrator\Documents\Dr /
//                          opbox\Fish Brain\HM-10 Hack\HM-10                 /
//                          Firmware\Projects\ble\HostTestApp\CC2540\..\..\.. /
//                          \..\Components\ble\controller\include\" -I        /
//                          "c:\Users\Administrator\Documents\Dropbox\Fish    /
//                          Brain\HM-10 Hack\HM-10 Firmware\Projects\ble\Host /
//                          TestApp\CC2540\..\..\..\..\Components\ble\hci\"   /
//                          -I "c:\Users\Administrator\Documents\Dropbox\Fish /
//                           Brain\HM-10 Hack\HM-10                           /
//                          Firmware\Projects\ble\HostTestApp\CC2540\..\..\.. /
//                          \..\Components\ble\host\" -I                      /
//                          "c:\Users\Administrator\Documents\Dropbox\Fish    /
//                          Brain\HM-10 Hack\HM-10 Firmware\Projects\ble\Host /
//                          TestApp\CC2540\..\..\common\cc2540\" -I           /
//                          "c:\Users\Administrator\Documents\Dropbox\Fish    /
//                          Brain\HM-10 Hack\HM-10 Firmware\Projects\ble\Host /
//                          TestApp\CC2540\..\..\common\npi\npi_np\" -I       /
//                          "c:\Users\Administrator\Documents\Dropbox\Fish    /
//                          Brain\HM-10 Hack\HM-10 Firmware\Projects\ble\Host /
//                          TestApp\CC2540\..\..\Include\" -I                 /
//                          "c:\Users\Administrator\Documents\Dropbox\Fish    /
//                          Brain\HM-10 Hack\HM-10 Firmware\Projects\ble\Host /
//                          TestApp\CC2540\..\..\Profiles\Roles\" -I          /
//                          "c:\Users\Administrator\Documents\Dropbox\Fish    /
//                          Brain\HM-10 Hack\HM-10 Firmware\Projects\ble\Host /
//                          TestApp\CC2540\..\source\" -Ohz                   /
//    List file          =  c:\Users\Administrator\Documents\Dropbox\Fish     /
//                          Brain\HM-10 Hack\HM-10 Firmware\Projects\ble\Host /
//                          TestApp\CC2540\CC2540SPI\List\gapbondmgr.s51      /
//                                                                            /
//                                                                            /
///////////////////////////////////////////////////////////////////////////////

        NAME gapbondmgr

        RTMODEL "__SystemLibrary", "CLib"
        RTMODEL "__calling_convention", "xdata_reentrant"
        RTMODEL "__code_model", "banked"
        RTMODEL "__core", "plain"
        RTMODEL "__data_model", "large"
        RTMODEL "__dptr_size", "16"
        RTMODEL "__extended_stack", "disabled"
        RTMODEL "__location_for_constants", "data"
        RTMODEL "__number_of_dptrs", "1"
        RTMODEL "__rt_version", "1"

        RSEG DOVERLAY:DATA:NOROOT(0)
        RSEG IOVERLAY:IDATA:NOROOT(0)
        RSEG ISTACK:IDATA:NOROOT(0)
        RSEG PSTACK:XDATA:NOROOT(0)
        RSEG XSTACK:XDATA:NOROOT(0)

        EXTERN ?V0
        EXTERN ?V1
        EXTERN ?V2
        EXTERN ?V3
        EXTERN ?V4
        EXTERN ?V5
        EXTERN ?V6
        EXTERN ?V7
        EXTERN ?ALLOC_XSTACK8
        EXTERN ?BANKED_ENTER_XDATA
        EXTERN ?BANKED_LEAVE_XDATA
        EXTERN ?BDISPATCH
        EXTERN ?BRET
        EXTERN ?CALL_IND
        EXTERN ?DEALLOC_XSTACK8
        EXTERN ?L_MOV_TO_X
        EXTERN ?L_MOV_X
        EXTERN ?MOVE_LONG8_XDATA_XDATA
        EXTERN ?PUSH_XSTACK8_X_TWO
        EXTERN ?PUSH_XSTACK_I_ONE
        EXTERN ?PUSH_XSTACK_I_TWO
        EXTERN ?S_DIV_MOD
        EXTERN ?S_SHL
        EXTERN ?UL_DIV_MOD
        EXTERN ?UL_GE_X
        EXTERN ?US_SWITCH_DENSE
        EXTERN ?XLOAD_R0123
        EXTERN ?XLOAD_R2345
        EXTERN ?XSP
        EXTERN ?XSTACK_DISP0_8
        EXTERN ?XSTACK_DISP100_8
        EXTERN ?XSTACK_DISP101_8
        EXTERN ?XSTACK_DISP102_8
        EXTERN ?XSTORE_R0123
        EXTERN __INIT_XDATA_I
        EXTERN __INIT_XDATA_Z

        PUBLIC ??GAPBondMgr_CheckNVLen?relay
        FUNCTION ??GAPBondMgr_CheckNVLen?relay,0203H
        PUBLIC ??GAPBondMgr_GetParameter?relay
        FUNCTION ??GAPBondMgr_GetParameter?relay,0203H
        PUBLIC ??GAPBondMgr_Init?relay
        FUNCTION ??GAPBondMgr_Init?relay,0203H
        PUBLIC ??GAPBondMgr_LinkEst?relay
        FUNCTION ??GAPBondMgr_LinkEst?relay,0203H
        PUBLIC ??GAPBondMgr_PasscodeRsp?relay
        FUNCTION ??GAPBondMgr_PasscodeRsp?relay,0203H
        PUBLIC ??GAPBondMgr_ProcessEvent?relay
        FUNCTION ??GAPBondMgr_ProcessEvent?relay,0203H
        PUBLIC ??GAPBondMgr_ProcessGAPMsg?relay
        FUNCTION ??GAPBondMgr_ProcessGAPMsg?relay,0203H
        PUBLIC ??GAPBondMgr_Register?relay
        FUNCTION ??GAPBondMgr_Register?relay,0203H
        PUBLIC ??GAPBondMgr_ResolveAddr?relay
        FUNCTION ??GAPBondMgr_ResolveAddr?relay,0203H
        PUBLIC ??GAPBondMgr_ServiceChangeInd?relay
        FUNCTION ??GAPBondMgr_ServiceChangeInd?relay,0203H
        PUBLIC ??GAPBondMgr_SetParameter?relay
        FUNCTION ??GAPBondMgr_SetParameter?relay,0203H
        PUBLIC ??GAPBondMgr_UpdateCharCfg?relay
        FUNCTION ??GAPBondMgr_UpdateCharCfg?relay,0203H
        FUNCTION ??gapBondFreeAuthEvt?relay,0203H
        FUNCTION ??gapBondMgrAddBond?relay,0203H
        FUNCTION ??gapBondMgrAuthenticate?relay,0203H
        FUNCTION ??gapBondMgrBondReq?relay,0203H
        FUNCTION ??gapBondMgrBondTotal?relay,0203H
        FUNCTION ??gapBondMgrChangeState?relay,0203H
        FUNCTION ??gapBondMgrEraseAllBondings?relay,0203H
        FUNCTION ??gapBondMgrEraseBonding?relay,0203H
        FUNCTION ??gapBondMgrFindAddr?relay,0203H
        FUNCTION ??gapBondMgrFindCharCfgItem?relay,0203H
        FUNCTION ??gapBondMgrGetPublicAddr?relay,0203H
        FUNCTION ??gapBondMgrGetStateFlags?relay,0203H
        FUNCTION ??gapBondMgrInvertCharCfgItem?relay,0203H
        FUNCTION ??gapBondMgrReadBonds?relay,0203H
        FUNCTION ??gapBondMgrSendServiceChange?relay,0203H
        FUNCTION ??gapBondMgrUpdateCharCfg?relay,0203H
        FUNCTION ??gapBondMgr_SyncCharCfg?relay,0203H
        FUNCTION ??gapBondMgr_SyncWhiteList?relay,0203H
        FUNCTION ??gapBondSetupPrivFlag?relay,0203H
        PUBLIC GAPBondMgr_CheckNVLen
        FUNCTION GAPBondMgr_CheckNVLen,080203H
        ARGFRAME XSTACK, 0, STACK
        LOCFRAME XSTACK, 10, STACK
        PUBLIC GAPBondMgr_GetParameter
        FUNCTION GAPBondMgr_GetParameter,0a1203H
        ARGFRAME XSTACK, 0, STACK
        LOCFRAME ISTACK, 1, STACK
        LOCFRAME XSTACK, 14, STACK
        PUBLIC GAPBondMgr_Init
        FUNCTION GAPBondMgr_Init,021203H
        ARGFRAME XSTACK, 0, STACK
        LOCFRAME XSTACK, 9, STACK
        PUBLIC GAPBondMgr_LinkEst
        FUNCTION GAPBondMgr_LinkEst,0a1203H
        ARGFRAME XSTACK, 1, STACK
        LOCFRAME XSTACK, 55, STACK
        PUBLIC GAPBondMgr_PasscodeRsp
        FUNCTION GAPBondMgr_PasscodeRsp,0a1203H
        ARGFRAME XSTACK, 4, STACK
        LOCFRAME ISTACK, 1, STACK
        LOCFRAME XSTACK, 19, STACK
        PUBLIC GAPBondMgr_ProcessEvent
        FUNCTION GAPBondMgr_ProcessEvent,0a1203H
        ARGFRAME XSTACK, 0, STACK
        LOCFRAME XSTACK, 14, STACK
        PUBLIC GAPBondMgr_ProcessGAPMsg
        FUNCTION GAPBondMgr_ProcessGAPMsg,0a1203H
        ARGFRAME XSTACK, 12, STACK
        ARGFRAME IOVERLAY, 0, STATIC
        ARGFRAME DOVERLAY, 0, STATIC
        LOCFRAME XSTACK, 38, STACK
        PUBLIC GAPBondMgr_Register
        FUNCTION GAPBondMgr_Register,021203H
        ARGFRAME XSTACK, 0, STACK
        LOCFRAME ISTACK, 2, STACK
        PUBLIC GAPBondMgr_ResolveAddr
        FUNCTION GAPBondMgr_ResolveAddr,0a1203H
        ARGFRAME XSTACK, 53, STACK
        ARGFRAME IOVERLAY, 0, STATIC
        ARGFRAME DOVERLAY, 0, STATIC
        LOCFRAME XSTACK, 33, STACK
        PUBLIC GAPBondMgr_ServiceChangeInd
        FUNCTION GAPBondMgr_ServiceChangeInd,0a1203H
        ARGFRAME XSTACK, 12, STACK
        ARGFRAME IOVERLAY, 0, STATIC
        ARGFRAME DOVERLAY, 0, STATIC
        LOCFRAME XSTACK, 12, STACK
        PUBLIC GAPBondMgr_SetParameter
        FUNCTION GAPBondMgr_SetParameter,0a1203H
        ARGFRAME XSTACK, 36, STACK
        ARGFRAME IOVERLAY, 0, STATIC
        ARGFRAME DOVERLAY, 0, STATIC
        LOCFRAME XSTACK, 24, STACK
        PUBLIC GAPBondMgr_UpdateCharCfg
        FUNCTION GAPBondMgr_UpdateCharCfg,0a1203H
        ARGFRAME XSTACK, 15, STACK
        ARGFRAME IOVERLAY, 0, STATIC
        ARGFRAME DOVERLAY, 0, STATIC
        LOCFRAME XSTACK, 14, STACK
        PUBWEAK __Constant_f4240
        FUNCTION gapBondFreeAuthEvt,021203H
        ARGFRAME XSTACK, 66, STACK
        ARGFRAME IOVERLAY, 0, STATIC
        ARGFRAME DOVERLAY, 0, STATIC
        LOCFRAME ISTACK, 2, STACK
        FUNCTION gapBondMgrAddBond,0a1203H
        ARGFRAME XSTACK, 36, STACK
        ARGFRAME IOVERLAY, 0, STATIC
        ARGFRAME DOVERLAY, 0, STATIC
        LOCFRAME XSTACK, 26, STACK
        FUNCTION gapBondMgrAuthenticate,0a1203H
        ARGFRAME XSTACK, 53, STACK
        ARGFRAME IOVERLAY, 0, STATIC
        ARGFRAME DOVERLAY, 0, STATIC
        LOCFRAME ISTACK, 1, STACK
        LOCFRAME XSTACK, 38, STACK
        FUNCTION gapBondMgrBondReq,0a1203H
        ARGFRAME XSTACK, 54, STACK
        ARGFRAME IOVERLAY, 0, STATIC
        ARGFRAME DOVERLAY, 0, STATIC
        LOCFRAME XSTACK, 40, STACK
        FUNCTION gapBondMgrBondTotal,021203H
        ARGFRAME XSTACK, 12, STACK
        ARGFRAME IOVERLAY, 0, STATIC
        ARGFRAME DOVERLAY, 0, STATIC
        LOCFRAME XSTACK, 9, STACK
        FUNCTION gapBondMgrChangeState,0a1203H
        ARGFRAME XSTACK, 12, STACK
        ARGFRAME IOVERLAY, 0, STATIC
        ARGFRAME DOVERLAY, 0, STATIC
        LOCFRAME XSTACK, 26, STACK
        FUNCTION gapBondMgrEraseAllBondings,021203H
        ARGFRAME XSTACK, 36, STACK
        ARGFRAME IOVERLAY, 0, STATIC
        ARGFRAME DOVERLAY, 0, STATIC
        LOCFRAME XSTACK, 9, STACK
        FUNCTION gapBondMgrEraseBonding,0a1203H
        ARGFRAME XSTACK, 36, STACK
        ARGFRAME IOVERLAY, 0, STATIC
        ARGFRAME DOVERLAY, 0, STATIC
        LOCFRAME XSTACK, 66, STACK
        FUNCTION gapBondMgrFindAddr,0a1203H
        ARGFRAME XSTACK, 31, STACK
        ARGFRAME IOVERLAY, 0, STATIC
        ARGFRAME DOVERLAY, 0, STATIC
        LOCFRAME XSTACK, 14, STACK
        FUNCTION gapBondMgrFindCharCfgItem,0203H
        ARGFRAME XSTACK, 40, STACK
        ARGFRAME IOVERLAY, 0, STATIC
        ARGFRAME DOVERLAY, 0, STATIC
        LOCFRAME XSTACK, 9, STACK
        FUNCTION gapBondMgrGetPublicAddr,0a1203H
        ARGFRAME XSTACK, 31, STACK
        ARGFRAME IOVERLAY, 0, STATIC
        ARGFRAME DOVERLAY, 0, STATIC
        LOCFRAME XSTACK, 28, STACK
        FUNCTION gapBondMgrGetStateFlags,021203H
        ARGFRAME XSTACK, 53, STACK
        ARGFRAME IOVERLAY, 0, STATIC
        ARGFRAME DOVERLAY, 0, STATIC
        LOCFRAME XSTACK, 23, STACK
        FUNCTION gapBondMgrInvertCharCfgItem,0203H
        ARGFRAME XSTACK, 53, STACK
        ARGFRAME IOVERLAY, 0, STATIC
        ARGFRAME DOVERLAY, 0, STATIC
        LOCFRAME ISTACK, 1, STACK
        LOCFRAME XSTACK, 9, STACK
        FUNCTION gapBondMgrReadBonds,0a1203H
        ARGFRAME XSTACK, 36, STACK
        ARGFRAME IOVERLAY, 0, STATIC
        ARGFRAME DOVERLAY, 0, STATIC
        LOCFRAME XSTACK, 9, STACK
        FUNCTION gapBondMgrSendServiceChange,021603H
        ARGFRAME XSTACK, 12, STACK
        ARGFRAME IOVERLAY, 0, STATIC
        ARGFRAME DOVERLAY, 0, STATIC
        LOCFRAME ISTACK, 2, STACK
        FUNCTION gapBondMgrUpdateCharCfg,0a1203H
        ARGFRAME XSTACK, 14, STACK
        ARGFRAME IOVERLAY, 0, STATIC
        ARGFRAME DOVERLAY, 0, STATIC
        LOCFRAME ISTACK, 1, STACK
        LOCFRAME XSTACK, 40, STACK
        FUNCTION gapBondMgr_SyncCharCfg,0a1203H
        ARGFRAME XSTACK, 12, STACK
        ARGFRAME IOVERLAY, 0, STATIC
        ARGFRAME DOVERLAY, 0, STATIC
        LOCFRAME XSTACK, 21, STACK
        FUNCTION gapBondMgr_SyncWhiteList,0a1203H
        ARGFRAME XSTACK, 24, STACK
        ARGFRAME IOVERLAY, 0, STATIC
        ARGFRAME DOVERLAY, 0, STATIC
        LOCFRAME XSTACK, 9, STACK
        FUNCTION gapBondSetupPrivFlag,021203H
        ARGFRAME XSTACK, 24, STACK
        ARGFRAME IOVERLAY, 0, STATIC
        ARGFRAME DOVERLAY, 0, STATIC
        LOCFRAME ISTACK, 2, STACK
        LOCFRAME XSTACK, 1, STACK
        
          CFI Names cfiNames0
          CFI StackFrame CFA_SP SP IDATA
          CFI StackFrame CFA_PSP16 PSP16 XDATA
          CFI StackFrame CFA_XSP16 XSP16 XDATA
          CFI StaticOverlayFrame CFA_IOVERLAY IOVERLAY
          CFI StaticOverlayFrame CFA_DOVERLAY DOVERLAY
          CFI Resource `PSW.CY`:1, `B.BR0`:1, `B.BR1`:1, `B.BR2`:1, `B.BR3`:1
          CFI Resource `B.BR4`:1, `B.BR5`:1, `B.BR6`:1, `B.BR7`:1, `VB.BR8`:1
          CFI Resource `VB.BR9`:1, `VB.BR10`:1, `VB.BR11`:1, `VB.BR12`:1
          CFI Resource `VB.BR13`:1, `VB.BR14`:1, `VB.BR15`:1, VB:8, B:8, A:8
          CFI Resource PSW:8, DPL0:8, DPH0:8, R0:8, R1:8, R2:8, R3:8, R4:8, R5:8
          CFI Resource R6:8, R7:8, V0:8, V1:8, V2:8, V3:8, V4:8, V5:8, V6:8, V7:8
          CFI Resource SP:8, PSPH:8, PSPL:8, PSP16:16, XSPH:8, XSPL:8, XSP16:16
          CFI VirtualResource ?RET:24
          CFI Resource ?BRET_EXT:8
          CFI VirtualResource ?RET_HIGH:8, ?RET_LOW:8
          CFI ResourceParts PSP16 PSPH, PSPL
          CFI ResourceParts XSP16 XSPH, XSPL
          CFI ResourceParts ?RET ?BRET_EXT, ?RET_HIGH, ?RET_LOW
          CFI EndNames cfiNames0
        
          CFI Common cfiCommon0 Using cfiNames0
          CFI CodeAlign 1
          CFI DataAlign -1
          CFI ReturnAddress ?RET CODE
          CFI CFA_DOVERLAY Used
          CFI CFA_IOVERLAY Used
          CFI CFA_SP SP+-3
          CFI CFA_PSP16 PSP16+0
          CFI CFA_XSP16 XSP16+0
          CFI `PSW.CY` SameValue
          CFI `B.BR0` SameValue
          CFI `B.BR1` SameValue
          CFI `B.BR2` SameValue
          CFI `B.BR3` SameValue
          CFI `B.BR4` SameValue
          CFI `B.BR5` SameValue
          CFI `B.BR6` SameValue
          CFI `B.BR7` SameValue
          CFI `VB.BR8` SameValue
          CFI `VB.BR9` SameValue
          CFI `VB.BR10` SameValue
          CFI `VB.BR11` SameValue
          CFI `VB.BR12` SameValue
          CFI `VB.BR13` SameValue
          CFI `VB.BR14` SameValue
          CFI `VB.BR15` SameValue
          CFI VB SameValue
          CFI B Undefined
          CFI A Undefined
          CFI PSW SameValue
          CFI DPL0 SameValue
          CFI DPH0 SameValue
          CFI R0 Undefined
          CFI R1 Undefined
          CFI R2 Undefined
          CFI R3 Undefined
          CFI R4 Undefined
          CFI R5 Undefined
          CFI R6 SameValue
          CFI R7 SameValue
          CFI V0 SameValue
          CFI V1 SameValue
          CFI V2 SameValue
          CFI V3 SameValue
          CFI V4 SameValue
          CFI V5 SameValue
          CFI V6 SameValue
          CFI V7 SameValue
          CFI PSPH Undefined
          CFI PSPL Undefined
          CFI XSPH Undefined
          CFI XSPL Undefined
          CFI ?RET Concat
          CFI ?BRET_EXT Frame(CFA_SP, 3)
          CFI ?RET_HIGH Frame(CFA_SP, 2)
          CFI ?RET_LOW Frame(CFA_SP, 1)
          CFI EndCommon cfiCommon0
        
        
          CFI Common cfiCommon1 Using cfiNames0
          CFI CodeAlign 1
          CFI DataAlign -1
          CFI ReturnAddress ?RET CODE
          CFI CFA_DOVERLAY Used
          CFI CFA_IOVERLAY Used
          CFI CFA_SP SP+-2
          CFI CFA_PSP16 PSP16+0
          CFI CFA_XSP16 XSP16+0
          CFI `PSW.CY` SameValue
          CFI `B.BR0` SameValue
          CFI `B.BR1` SameValue
          CFI `B.BR2` SameValue
          CFI `B.BR3` SameValue
          CFI `B.BR4` SameValue
          CFI `B.BR5` SameValue
          CFI `B.BR6` SameValue
          CFI `B.BR7` SameValue
          CFI `VB.BR8` SameValue
          CFI `VB.BR9` SameValue
          CFI `VB.BR10` SameValue
          CFI `VB.BR11` SameValue
          CFI `VB.BR12` SameValue
          CFI `VB.BR13` SameValue
          CFI `VB.BR14` SameValue
          CFI `VB.BR15` SameValue
          CFI VB SameValue
          CFI B SameValue
          CFI A SameValue
          CFI PSW SameValue
          CFI DPL0 SameValue
          CFI DPH0 SameValue
          CFI R0 SameValue
          CFI R1 SameValue
          CFI R2 SameValue
          CFI R3 SameValue
          CFI R4 SameValue
          CFI R5 SameValue
          CFI R6 SameValue
          CFI R7 SameValue
          CFI V0 SameValue
          CFI V1 SameValue
          CFI V2 SameValue
          CFI V3 SameValue
          CFI V4 SameValue
          CFI V5 SameValue
          CFI V6 SameValue
          CFI V7 SameValue
          CFI PSPH Undefined
          CFI PSPL Undefined
          CFI XSPH Undefined
          CFI XSPL Undefined
          CFI ?RET Concat
          CFI ?BRET_EXT SameValue
          CFI ?RET_HIGH Frame(CFA_SP, 2)
          CFI ?RET_LOW Frame(CFA_SP, 1)
          CFI EndCommon cfiCommon1
        
GAP_Authenticate    SYMBOL "GAP_Authenticate"
??GAP_Authenticate?relay SYMBOL "?relay", GAP_Authenticate
GAP_Bond            SYMBOL "GAP_Bond"
??GAP_Bond?relay    SYMBOL "?relay", GAP_Bond
GAP_GetParamValue   SYMBOL "GAP_GetParamValue"
??GAP_GetParamValue?relay SYMBOL "?relay", GAP_GetParamValue
GAP_NumActiveConnections SYMBOL "GAP_NumActiveConnections"
??GAP_NumActiveConnections?relay SYMBOL "?relay", GAP_NumActiveConnections
GAP_PasscodeUpdate  SYMBOL "GAP_PasscodeUpdate"
??GAP_PasscodeUpdate?relay SYMBOL "?relay", GAP_PasscodeUpdate
GAP_ResolvePrivateAddr SYMBOL "GAP_ResolvePrivateAddr"
??GAP_ResolvePrivateAddr?relay SYMBOL "?relay", GAP_ResolvePrivateAddr
GAP_SendSlaveSecurityRequest SYMBOL "GAP_SendSlaveSecurityRequest"
??GAP_SendSlaveSecurityRequest?relay SYMBOL "?relay", GAP_SendSlaveSecurityRequest
GAP_SetParamValue   SYMBOL "GAP_SetParamValue"
??GAP_SetParamValue?relay SYMBOL "?relay", GAP_SetParamValue
GAP_Signable        SYMBOL "GAP_Signable"
??GAP_Signable?relay SYMBOL "?relay", GAP_Signable
GAP_TerminateAuth   SYMBOL "GAP_TerminateAuth"
??GAP_TerminateAuth?relay SYMBOL "?relay", GAP_TerminateAuth
GAP_TerminateLinkReq SYMBOL "GAP_TerminateLinkReq"
??GAP_TerminateLinkReq?relay SYMBOL "?relay", GAP_TerminateLinkReq
GATTServApp_ReadAttr SYMBOL "GATTServApp_ReadAttr"
??GATTServApp_ReadAttr?relay SYMBOL "?relay", GATTServApp_ReadAttr
GATTServApp_RegisterForMsg SYMBOL "GATTServApp_RegisterForMsg"
??GATTServApp_RegisterForMsg?relay SYMBOL "?relay", GATTServApp_RegisterForMsg
GATTServApp_SendServiceChangedInd SYMBOL "GATTServApp_SendServiceChangedInd"
??GATTServApp_SendServiceChangedInd?relay SYMBOL "?relay", GATTServApp_SendServiceChangedInd
GATTServApp_UpdateCharCfg SYMBOL "GATTServApp_UpdateCharCfg"
??GATTServApp_UpdateCharCfg?relay SYMBOL "?relay", GATTServApp_UpdateCharCfg
GATT_FindHandleUUID SYMBOL "GATT_FindHandleUUID"
??GATT_FindHandleUUID?relay SYMBOL "?relay", GATT_FindHandleUUID
GATT_FindNextAttr   SYMBOL "GATT_FindNextAttr"
??GATT_FindNextAttr?relay SYMBOL "?relay", GATT_FindNextAttr
GGS_SetParameter    SYMBOL "GGS_SetParameter"
??GGS_SetParameter?relay SYMBOL "?relay", GGS_SetParameter
HCI_LE_AddWhiteListCmd SYMBOL "HCI_LE_AddWhiteListCmd"
??HCI_LE_AddWhiteListCmd?relay SYMBOL "?relay", HCI_LE_AddWhiteListCmd
HCI_LE_ClearWhiteListCmd SYMBOL "HCI_LE_ClearWhiteListCmd"
??HCI_LE_ClearWhiteListCmd?relay SYMBOL "?relay", HCI_LE_ClearWhiteListCmd
linkDB_Find         SYMBOL "linkDB_Find"
??linkDB_Find?relay SYMBOL "?relay", linkDB_Find
linkDB_PerformFunc  SYMBOL "linkDB_PerformFunc"
??linkDB_PerformFunc?relay SYMBOL "?relay", linkDB_PerformFunc
osal_clear_event    SYMBOL "osal_clear_event"
??osal_clear_event?relay SYMBOL "?relay", osal_clear_event
osal_isbufset       SYMBOL "osal_isbufset"
??osal_isbufset?relay SYMBOL "?relay", osal_isbufset
osal_memcmp         SYMBOL "osal_memcmp"
??osal_memcmp?relay SYMBOL "?relay", osal_memcmp
osal_memcpy         SYMBOL "osal_memcpy"
??osal_memcpy?relay SYMBOL "?relay", osal_memcpy
osal_memset         SYMBOL "osal_memset"
??osal_memset?relay SYMBOL "?relay", osal_memset
osal_msg_deallocate SYMBOL "osal_msg_deallocate"
??osal_msg_deallocate?relay SYMBOL "?relay", osal_msg_deallocate
osal_msg_receive    SYMBOL "osal_msg_receive"
??osal_msg_receive?relay SYMBOL "?relay", osal_msg_receive
osal_revmemcpy      SYMBOL "osal_revmemcpy"
??osal_revmemcpy?relay SYMBOL "?relay", osal_revmemcpy
osal_set_event      SYMBOL "osal_set_event"
??osal_set_event?relay SYMBOL "?relay", osal_set_event
osal_snv_compact    SYMBOL "osal_snv_compact"
??osal_snv_compact?relay SYMBOL "?relay", osal_snv_compact
osal_snv_read       SYMBOL "osal_snv_read"
??osal_snv_read?relay SYMBOL "?relay", osal_snv_read
osal_snv_write      SYMBOL "osal_snv_write"
??osal_snv_write?relay SYMBOL "?relay", osal_snv_write
GAPBondMgr_CheckNVLen SYMBOL "GAPBondMgr_CheckNVLen"
??GAPBondMgr_CheckNVLen?relay SYMBOL "?relay", GAPBondMgr_CheckNVLen
GAPBondMgr_GetParameter SYMBOL "GAPBondMgr_GetParameter"
??GAPBondMgr_GetParameter?relay SYMBOL "?relay", GAPBondMgr_GetParameter
GAPBondMgr_Init     SYMBOL "GAPBondMgr_Init"
??GAPBondMgr_Init?relay SYMBOL "?relay", GAPBondMgr_Init
GAPBondMgr_LinkEst  SYMBOL "GAPBondMgr_LinkEst"
??GAPBondMgr_LinkEst?relay SYMBOL "?relay", GAPBondMgr_LinkEst
GAPBondMgr_PasscodeRsp SYMBOL "GAPBondMgr_PasscodeRsp"
??GAPBondMgr_PasscodeRsp?relay SYMBOL "?relay", GAPBondMgr_PasscodeRsp
GAPBondMgr_ProcessEvent SYMBOL "GAPBondMgr_ProcessEvent"
??GAPBondMgr_ProcessEvent?relay SYMBOL "?relay", GAPBondMgr_ProcessEvent
GAPBondMgr_ProcessGAPMsg SYMBOL "GAPBondMgr_ProcessGAPMsg"
??GAPBondMgr_ProcessGAPMsg?relay SYMBOL "?relay", GAPBondMgr_ProcessGAPMsg
GAPBondMgr_Register SYMBOL "GAPBondMgr_Register"
??GAPBondMgr_Register?relay SYMBOL "?relay", GAPBondMgr_Register
GAPBondMgr_ResolveAddr SYMBOL "GAPBondMgr_ResolveAddr"
??GAPBondMgr_ResolveAddr?relay SYMBOL "?relay", GAPBondMgr_ResolveAddr
GAPBondMgr_ServiceChangeInd SYMBOL "GAPBondMgr_ServiceChangeInd"
??GAPBondMgr_ServiceChangeInd?relay SYMBOL "?relay", GAPBondMgr_ServiceChangeInd
GAPBondMgr_SetParameter SYMBOL "GAPBondMgr_SetParameter"
??GAPBondMgr_SetParameter?relay SYMBOL "?relay", GAPBondMgr_SetParameter
GAPBondMgr_UpdateCharCfg SYMBOL "GAPBondMgr_UpdateCharCfg"
??GAPBondMgr_UpdateCharCfg?relay SYMBOL "?relay", GAPBondMgr_UpdateCharCfg

        EXTERN ??GAP_Authenticate?relay
        FUNCTION ??GAP_Authenticate?relay,00H
        EXTERN ??GAP_Bond?relay
        FUNCTION ??GAP_Bond?relay,00H
        EXTERN ??GAP_GetParamValue?relay
        FUNCTION ??GAP_GetParamValue?relay,00H
        EXTERN ??GAP_NumActiveConnections?relay
        FUNCTION ??GAP_NumActiveConnections?relay,00H
        EXTERN ??GAP_PasscodeUpdate?relay
        FUNCTION ??GAP_PasscodeUpdate?relay,00H
        EXTERN ??GAP_ResolvePrivateAddr?relay
        FUNCTION ??GAP_ResolvePrivateAddr?relay,00H
        EXTERN ??GAP_SendSlaveSecurityRequest?relay
        FUNCTION ??GAP_SendSlaveSecurityRequest?relay,00H
        EXTERN ??GAP_SetParamValue?relay
        FUNCTION ??GAP_SetParamValue?relay,00H
        EXTERN ??GAP_Signable?relay
        FUNCTION ??GAP_Signable?relay,00H
        EXTERN ??GAP_TerminateAuth?relay
        FUNCTION ??GAP_TerminateAuth?relay,00H
        EXTERN ??GAP_TerminateLinkReq?relay
        FUNCTION ??GAP_TerminateLinkReq?relay,00H
        EXTERN ??GATTServApp_ReadAttr?relay
        FUNCTION ??GATTServApp_ReadAttr?relay,00H
        EXTERN ??GATTServApp_RegisterForMsg?relay
        FUNCTION ??GATTServApp_RegisterForMsg?relay,00H
        EXTERN ??GATTServApp_SendServiceChangedInd?relay
        FUNCTION ??GATTServApp_SendServiceChangedInd?relay,00H
        EXTERN ??GATTServApp_UpdateCharCfg?relay
        FUNCTION ??GATTServApp_UpdateCharCfg?relay,00H
        EXTERN ??GATT_FindHandleUUID?relay
        FUNCTION ??GATT_FindHandleUUID?relay,00H
        EXTERN ??GATT_FindNextAttr?relay
        FUNCTION ??GATT_FindNextAttr?relay,00H
        EXTERN ??GGS_SetParameter?relay
        FUNCTION ??GGS_SetParameter?relay,00H
        EXTERN ??HCI_LE_AddWhiteListCmd?relay
        FUNCTION ??HCI_LE_AddWhiteListCmd?relay,00H
        EXTERN ??HCI_LE_ClearWhiteListCmd?relay
        FUNCTION ??HCI_LE_ClearWhiteListCmd?relay,00H
        EXTERN ??linkDB_Find?relay
        FUNCTION ??linkDB_Find?relay,00H
        EXTERN ??linkDB_PerformFunc?relay
        FUNCTION ??linkDB_PerformFunc?relay,00H
        EXTERN ??osal_clear_event?relay
        FUNCTION ??osal_clear_event?relay,00H
        EXTERN ??osal_isbufset?relay
        FUNCTION ??osal_isbufset?relay,00H
        EXTERN ??osal_memcmp?relay
        FUNCTION ??osal_memcmp?relay,00H
        EXTERN ??osal_memcpy?relay
        FUNCTION ??osal_memcpy?relay,00H
        EXTERN ??osal_memset?relay
        FUNCTION ??osal_memset?relay,00H
        EXTERN ??osal_msg_deallocate?relay
        FUNCTION ??osal_msg_deallocate?relay,00H
        EXTERN ??osal_msg_receive?relay
        FUNCTION ??osal_msg_receive?relay,00H
        EXTERN ??osal_revmemcpy?relay
        FUNCTION ??osal_revmemcpy?relay,00H
        EXTERN ??osal_set_event?relay
        FUNCTION ??osal_set_event?relay,00H
        EXTERN ??osal_snv_compact?relay
        FUNCTION ??osal_snv_compact?relay,00H
        EXTERN ??osal_snv_read?relay
        FUNCTION ??osal_snv_read?relay,00H
        EXTERN ??osal_snv_write?relay
        FUNCTION ??osal_snv_write?relay,00H
        EXTERN GAP_Authenticate
        FUNCTION GAP_Authenticate,0202H
        ARGFRAME ISTACK, 0, STACK
        ARGFRAME PSTACK, 0, STACK
        ARGFRAME XSTACK, 36, STACK
        ARGFRAME IOVERLAY, 0, STATIC
        ARGFRAME DOVERLAY, 0, STATIC
        EXTERN GAP_Bond
        FUNCTION GAP_Bond,0202H
        ARGFRAME ISTACK, 0, STACK
        ARGFRAME PSTACK, 0, STACK
        ARGFRAME XSTACK, 40, STACK
        ARGFRAME IOVERLAY, 0, STATIC
        ARGFRAME DOVERLAY, 0, STATIC
        EXTERN GAP_GetParamValue
        FUNCTION GAP_GetParamValue,0202H
        ARGFRAME ISTACK, 0, STACK
        ARGFRAME PSTACK, 0, STACK
        ARGFRAME XSTACK, 12, STACK
        ARGFRAME IOVERLAY, 0, STATIC
        ARGFRAME DOVERLAY, 0, STATIC
        EXTERN GAP_NumActiveConnections
        FUNCTION GAP_NumActiveConnections,0202H
        ARGFRAME ISTACK, 0, STACK
        ARGFRAME PSTACK, 0, STACK
        ARGFRAME XSTACK, 36, STACK
        ARGFRAME IOVERLAY, 0, STATIC
        ARGFRAME DOVERLAY, 0, STATIC
        EXTERN GAP_PasscodeUpdate
        FUNCTION GAP_PasscodeUpdate,0202H
        ARGFRAME ISTACK, 0, STACK
        ARGFRAME PSTACK, 0, STACK
        ARGFRAME XSTACK, 38, STACK
        ARGFRAME IOVERLAY, 0, STATIC
        ARGFRAME DOVERLAY, 0, STATIC
        EXTERN GAP_ResolvePrivateAddr
        FUNCTION GAP_ResolvePrivateAddr,0202H
        ARGFRAME ISTACK, 0, STACK
        ARGFRAME PSTACK, 0, STACK
        ARGFRAME XSTACK, 31, STACK
        ARGFRAME IOVERLAY, 0, STATIC
        ARGFRAME DOVERLAY, 0, STATIC
        EXTERN GAP_SendSlaveSecurityRequest
        FUNCTION GAP_SendSlaveSecurityRequest,0202H
        ARGFRAME ISTACK, 0, STACK
        ARGFRAME PSTACK, 0, STACK
        ARGFRAME XSTACK, 53, STACK
        ARGFRAME IOVERLAY, 0, STATIC
        ARGFRAME DOVERLAY, 0, STATIC
        EXTERN GAP_SetParamValue
        FUNCTION GAP_SetParamValue,0202H
        ARGFRAME ISTACK, 2, STACK
        ARGFRAME PSTACK, 0, STACK
        ARGFRAME XSTACK, 22, STACK
        ARGFRAME IOVERLAY, 0, STATIC
        ARGFRAME DOVERLAY, 0, STATIC
        EXTERN GAP_Signable
        FUNCTION GAP_Signable,0202H
        ARGFRAME ISTACK, 0, STACK
        ARGFRAME PSTACK, 0, STACK
        ARGFRAME XSTACK, 53, STACK
        ARGFRAME IOVERLAY, 0, STATIC
        ARGFRAME DOVERLAY, 0, STATIC
        EXTERN GAP_TerminateAuth
        FUNCTION GAP_TerminateAuth,0202H
        ARGFRAME ISTACK, 0, STACK
        ARGFRAME PSTACK, 0, STACK
        ARGFRAME XSTACK, 36, STACK
        ARGFRAME IOVERLAY, 0, STATIC
        ARGFRAME DOVERLAY, 0, STATIC
        EXTERN GAP_TerminateLinkReq
        FUNCTION GAP_TerminateLinkReq,0202H
        ARGFRAME ISTACK, 0, STACK
        ARGFRAME PSTACK, 0, STACK
        ARGFRAME XSTACK, 36, STACK
        ARGFRAME IOVERLAY, 0, STATIC
        ARGFRAME DOVERLAY, 0, STATIC
        EXTERN GATTServApp_ReadAttr
        FUNCTION GATTServApp_ReadAttr,0202H
        ARGFRAME ISTACK, 0, STACK
        ARGFRAME PSTACK, 0, STACK
        ARGFRAME XSTACK, 21, STACK
        ARGFRAME IOVERLAY, 0, STATIC
        ARGFRAME DOVERLAY, 0, STATIC
        EXTERN GATTServApp_RegisterForMsg
        FUNCTION GATTServApp_RegisterForMsg,0202H
        ARGFRAME ISTACK, 2, STACK
        ARGFRAME PSTACK, 0, STACK
        ARGFRAME XSTACK, 0, STACK
        ARGFRAME IOVERLAY, 0, STATIC
        ARGFRAME DOVERLAY, 0, STATIC
        EXTERN GATTServApp_SendServiceChangedInd
        FUNCTION GATTServApp_SendServiceChangedInd,0202H
        ARGFRAME ISTACK, 2, STACK
        ARGFRAME PSTACK, 0, STACK
        ARGFRAME XSTACK, 53, STACK
        ARGFRAME IOVERLAY, 0, STATIC
        ARGFRAME DOVERLAY, 0, STATIC
        EXTERN GATTServApp_UpdateCharCfg
        FUNCTION GATTServApp_UpdateCharCfg,0202H
        ARGFRAME ISTACK, 0, STACK
        ARGFRAME PSTACK, 0, STACK
        ARGFRAME XSTACK, 55, STACK
        ARGFRAME IOVERLAY, 0, STATIC
        ARGFRAME DOVERLAY, 0, STATIC
        EXTERN GATT_FindHandleUUID
        FUNCTION GATT_FindHandleUUID,0202H
        ARGFRAME ISTACK, 0, STACK
        ARGFRAME PSTACK, 0, STACK
        ARGFRAME XSTACK, 19, STACK
        ARGFRAME IOVERLAY, 0, STATIC
        ARGFRAME DOVERLAY, 0, STATIC
        EXTERN GATT_FindNextAttr
        FUNCTION GATT_FindNextAttr,0202H
        ARGFRAME ISTACK, 0, STACK
        ARGFRAME PSTACK, 0, STACK
        ARGFRAME XSTACK, 17, STACK
        ARGFRAME IOVERLAY, 0, STATIC
        ARGFRAME DOVERLAY, 0, STATIC
        EXTERN GGS_SetParameter
        FUNCTION GGS_SetParameter,0202H
        ARGFRAME ISTACK, 2, STACK
        ARGFRAME PSTACK, 0, STACK
        ARGFRAME XSTACK, 1, STACK
        ARGFRAME IOVERLAY, 0, STATIC
        ARGFRAME DOVERLAY, 0, STATIC
        EXTERN HCI_LE_AddWhiteListCmd
        FUNCTION HCI_LE_AddWhiteListCmd,0202H
        ARGFRAME ISTACK, 0, STACK
        ARGFRAME PSTACK, 0, STACK
        ARGFRAME XSTACK, 9, STACK
        ARGFRAME IOVERLAY, 0, STATIC
        ARGFRAME DOVERLAY, 0, STATIC
        EXTERN HCI_LE_ClearWhiteListCmd
        FUNCTION HCI_LE_ClearWhiteListCmd,0202H
        ARGFRAME ISTACK, 0, STACK
        ARGFRAME PSTACK, 0, STACK
        ARGFRAME XSTACK, 9, STACK
        ARGFRAME IOVERLAY, 0, STATIC
        ARGFRAME DOVERLAY, 0, STATIC
        EXTERN clientCharCfgUUID
        EXTERN linkDB_Find
        FUNCTION linkDB_Find,0202H
        ARGFRAME ISTACK, 0, STACK
        ARGFRAME PSTACK, 0, STACK
        ARGFRAME XSTACK, 36, STACK
        ARGFRAME IOVERLAY, 0, STATIC
        ARGFRAME DOVERLAY, 0, STATIC
        EXTERN linkDB_PerformFunc
        FUNCTION linkDB_PerformFunc,0202H
        ARGFRAME ISTACK, 0, STACK
        ARGFRAME PSTACK, 0, STACK
        ARGFRAME XSTACK, 12, STACK
        ARGFRAME IOVERLAY, 0, STATIC
        ARGFRAME DOVERLAY, 0, STATIC
        EXTERN osal_clear_event
        FUNCTION osal_clear_event,0202H
        ARGFRAME ISTACK, 0, STACK
        ARGFRAME PSTACK, 0, STACK
        ARGFRAME XSTACK, 66, STACK
        ARGFRAME IOVERLAY, 0, STATIC
        ARGFRAME DOVERLAY, 0, STATIC
        EXTERN osal_isbufset
        FUNCTION osal_isbufset,0202H
        ARGFRAME ISTACK, 0, STACK
        ARGFRAME PSTACK, 0, STACK
        ARGFRAME XSTACK, 66, STACK
        ARGFRAME IOVERLAY, 0, STATIC
        ARGFRAME DOVERLAY, 0, STATIC
        EXTERN osal_memcmp
        FUNCTION osal_memcmp,0202H
        ARGFRAME ISTACK, 0, STACK
        ARGFRAME PSTACK, 0, STACK
        ARGFRAME XSTACK, 33, STACK
        ARGFRAME IOVERLAY, 0, STATIC
        ARGFRAME DOVERLAY, 0, STATIC
        EXTERN osal_memcpy
        FUNCTION osal_memcpy,0202H
        ARGFRAME ISTACK, 0, STACK
        ARGFRAME PSTACK, 0, STACK
        ARGFRAME XSTACK, 38, STACK
        ARGFRAME IOVERLAY, 0, STATIC
        ARGFRAME DOVERLAY, 0, STATIC
        EXTERN osal_memset
        FUNCTION osal_memset,0202H
        ARGFRAME ISTACK, 0, STACK
        ARGFRAME PSTACK, 0, STACK
        ARGFRAME XSTACK, 66, STACK
        ARGFRAME IOVERLAY, 0, STATIC
        ARGFRAME DOVERLAY, 0, STATIC
        EXTERN osal_msg_deallocate
        FUNCTION osal_msg_deallocate,0202H
        ARGFRAME ISTACK, 2, STACK
        ARGFRAME PSTACK, 0, STACK
        ARGFRAME XSTACK, 12, STACK
        ARGFRAME IOVERLAY, 0, STATIC
        ARGFRAME DOVERLAY, 0, STATIC
        EXTERN osal_msg_receive
        FUNCTION osal_msg_receive,0202H
        ARGFRAME ISTACK, 0, STACK
        ARGFRAME PSTACK, 0, STACK
        ARGFRAME XSTACK, 12, STACK
        ARGFRAME IOVERLAY, 0, STATIC
        ARGFRAME DOVERLAY, 0, STATIC
        EXTERN osal_revmemcpy
        FUNCTION osal_revmemcpy,0202H
        ARGFRAME ISTACK, 0, STACK
        ARGFRAME PSTACK, 0, STACK
        ARGFRAME XSTACK, 24, STACK
        ARGFRAME IOVERLAY, 0, STATIC
        ARGFRAME DOVERLAY, 0, STATIC
        EXTERN osal_set_event
        FUNCTION osal_set_event,0202H
        ARGFRAME ISTACK, 0, STACK
        ARGFRAME PSTACK, 0, STACK
        ARGFRAME XSTACK, 36, STACK
        ARGFRAME IOVERLAY, 0, STATIC
        ARGFRAME DOVERLAY, 0, STATIC
        EXTERN osal_snv_compact
        FUNCTION osal_snv_compact,0202H
        ARGFRAME ISTACK, 0, STACK
        ARGFRAME PSTACK, 0, STACK
        ARGFRAME XSTACK, 36, STACK
        ARGFRAME IOVERLAY, 0, STATIC
        ARGFRAME DOVERLAY, 0, STATIC
        EXTERN osal_snv_read
        FUNCTION osal_snv_read,0202H
        ARGFRAME ISTACK, 0, STACK
        ARGFRAME PSTACK, 0, STACK
        ARGFRAME XSTACK, 66, STACK
        ARGFRAME IOVERLAY, 0, STATIC
        ARGFRAME DOVERLAY, 0, STATIC
        EXTERN osal_snv_write
        FUNCTION osal_snv_write,0202H
        ARGFRAME ISTACK, 0, STACK
        ARGFRAME PSTACK, 0, STACK
        ARGFRAME XSTACK, 66, STACK
        ARGFRAME IOVERLAY, 0, STATIC
        ARGFRAME DOVERLAY, 0, STATIC

// c:\Users\Administrator\Documents\Dropbox\Fish Brain\HM-10 Hack\HM-10 Firmware\Projects\ble\Profiles\Roles\gapbondmgr.c
//    1 /**************************************************************************************************
//    2   Filename:       gapbondmgr.c
//    3   Revised:        $Date: 2011-02-24 15:46:53 -0800 (Thu, 24 Feb 2011) $
//    4   Revision:       $Revision: 10 $
//    5 
//    6   Description:    GAP peripheral profile manages bonded connections
//    7 
//    8 
//    9   Copyright 2011-2013 Texas Instruments Incorporated. All rights reserved.
//   10 
//   11   IMPORTANT: Your use of this Software is limited to those specific rights
//   12   granted under the terms of a software license agreement between the user
//   13   who downloaded the software, his/her employer (which must be your employer)
//   14   and Texas Instruments Incorporated (the "License").  You may not use this
//   15   Software unless you agree to abide by the terms of the License. The License
//   16   limits your use, and you acknowledge, that the Software may not be modified,
//   17   copied or distributed unless embedded on a Texas Instruments microcontroller
//   18   or used solely and exclusively in conjunction with a Texas Instruments radio
//   19   frequency transceiver, which is integrated into your product.  Other than for
//   20   the foregoing purpose, you may not use, reproduce, copy, prepare derivative
//   21   works of, modify, distribute, perform, display or sell this Software and/or
//   22   its documentation for any purpose.
//   23 
//   24   YOU FURTHER ACKNOWLEDGE AND AGREE THAT THE SOFTWARE AND DOCUMENTATION ARE
//   25   PROVIDED “AS IS” WITHOUT WARRANTY OF ANY KIND, EITHER EXPRESS OR IMPLIED,
//   26   INCLUDING WITHOUT LIMITATION, ANY WARRANTY OF MERCHANTABILITY, TITLE,
//   27   NON-INFRINGEMENT AND FITNESS FOR A PARTICULAR PURPOSE. IN NO EVENT SHALL
//   28   TEXAS INSTRUMENTS OR ITS LICENSORS BE LIABLE OR OBLIGATED UNDER CONTRACT,
//   29   NEGLIGENCE, STRICT LIABILITY, CONTRIBUTION, BREACH OF WARRANTY, OR OTHER
//   30   LEGAL EQUITABLE THEORY ANY DIRECT OR INDIRECT DAMAGES OR EXPENSES
//   31   INCLUDING BUT NOT LIMITED TO ANY INCIDENTAL, SPECIAL, INDIRECT, PUNITIVE
//   32   OR CONSEQUENTIAL DAMAGES, LOST PROFITS OR LOST DATA, COST OF PROCUREMENT
//   33   OF SUBSTITUTE GOODS, TECHNOLOGY, SERVICES, OR ANY CLAIMS BY THIRD PARTIES
//   34   (INCLUDING BUT NOT LIMITED TO ANY DEFENSE THEREOF), OR OTHER SIMILAR COSTS.
//   35 
//   36   Should you have any questions regarding your right to use this Software,
//   37   contact Texas Instruments Incorporated at www.TI.com.
//   38 **************************************************************************************************/
//   39 
//   40 #if ( HOST_CONFIG & ( CENTRAL_CFG | PERIPHERAL_CFG ) )
//   41 
//   42 /*********************************************************************
//   43  * INCLUDES
//   44  */
//   45 #include "bcomdef.h"
//   46 #include "OSAL.h"
//   47 #include "osal_snv.h"
//   48 #include "gap.h"
//   49 #include "linkdb.h"
//   50 #include "gatt.h"
//   51 #include "gatt_uuid.h"
//   52 #include "hci.h"
//   53 #include "gattservapp.h"
//   54 #include "gapgattserver.h"
//   55 #include "gapbondmgr.h"
//   56 
//   57 /*********************************************************************
//   58  * MACROS
//   59  */
//   60 
//   61 /*********************************************************************
//   62  * CONSTANTS
//   63  */
//   64 // Task event types
//   65 #define GAP_BOND_SYNC_CC_EVT                            0x0001 // Sync char config
//   66 #define GAP_BOND_SAVE_REC_EVT                           0x0002 // Save bond record in NV
//   67 
//   68 // Once NV usage reaches this percentage threshold, NV compaction gets triggered.
//   69 #define NV_COMPACT_THRESHOLD                            80
//   70 
//   71 // Bonded State Flags
//   72 #define GAP_BONDED_STATE_AUTHENTICATED                  0x0001
//   73 #define GAP_BONDED_STATE_SERVICE_CHANGED                0x0002
//   74 
//   75 /**
//   76  * GAP Bond Manager NV layout
//   77  *
//   78  * The NV definitions:
//   79  *     BLE_NVID_GAP_BOND_START - starting NV ID
//   80  *     GAP_BONDINGS_MAX - Maximum number of bonding allowed (10 is max for number of NV IDs allocated in bcomdef.h).
//   81  *
//   82  * A single bonding entry consists of 6 components (NV items):
//   83  *     Bond Record - defined as gapBondRec_t and uses GAP_BOND_REC_ID_OFFSET for an NV ID
//   84  *     local LTK Info - defined as gapBondLTK_t and uses GAP_BOND_LOCAL_LTK_OFFSET for an NV ID
//   85  *     device LTK Info - defined as gapBondLTK_t and uses GAP_BOND_DEV_LTK_OFFSET for an NV ID
//   86  *     device IRK - defined as "uint8 devIRK[KEYLEN]" and uses GAP_BOND_DEV_IRK_OFFSET for an NV ID
//   87  *     device CSRK - defined as "uint8 devCSRK[KEYLEN]" and uses GAP_BOND_DEV_CSRK_OFFSET for an NV ID
//   88  *     device Sign Counter - defined as a uint32 and uses GAP_BOND_DEV_SIGN_COUNTER_OFFSET for an NV ID
//   89  *
//   90  * When the device is initialized for the first time, all (GAP_BONDINGS_MAX) NV items are created and
//   91  * initialized to all 0xFF's. A bonding record of all 0xFF's indicates that the bonding record is empty
//   92  * and free to use.
//   93  *
//   94  * The calculation for each bonding records NV IDs:
//   95  *    mainRecordNvID = ((bondIdx * GAP_BOND_REC_IDS) + BLE_NVID_GAP_BOND_START)
//   96  *    localLTKNvID = (((bondIdx * GAP_BOND_REC_IDS) + GAP_BOND_LOCAL_LTK_OFFSET) + BLE_NVID_GAP_BOND_START)
//   97  *
//   98  */
//   99 #define GAP_BOND_REC_ID_OFFSET              0 //!< NV ID for the main bonding record
//  100 #define GAP_BOND_LOCAL_LTK_OFFSET           1 //!< NV ID for the bonding record's local LTK information
//  101 #define GAP_BOND_DEV_LTK_OFFSET             2 //!< NV ID for the bonding records' device LTK information
//  102 #define GAP_BOND_DEV_IRK_OFFSET             3 //!< NV ID for the bonding records' device IRK
//  103 #define GAP_BOND_DEV_CSRK_OFFSET            4 //!< NV ID for the bonding records' device CSRK
//  104 #define GAP_BOND_DEV_SIGN_COUNTER_OFFSET    5 //!< NV ID for the bonding records' device Sign Counter
//  105 
//  106 #define GAP_BOND_REC_IDS                    6
//  107 
//  108 // Macros to calculate the index/offset in to NV space
//  109 #define calcNvID(Idx, offset)               (((((Idx) * GAP_BOND_REC_IDS) + (offset))) + BLE_NVID_GAP_BOND_START)
//  110 #define mainRecordNvID(bondIdx)             (calcNvID((bondIdx), GAP_BOND_REC_ID_OFFSET))
//  111 #define localLTKNvID(bondIdx)               (calcNvID((bondIdx), GAP_BOND_LOCAL_LTK_OFFSET))
//  112 #define devLTKNvID(bondIdx)                 (calcNvID((bondIdx), GAP_BOND_DEV_LTK_OFFSET))
//  113 #define devIRKNvID(bondIdx)                 (calcNvID((bondIdx), GAP_BOND_DEV_IRK_OFFSET))
//  114 #define devCSRKNvID(bondIdx)                (calcNvID((bondIdx), GAP_BOND_DEV_CSRK_OFFSET))
//  115 #define devSignCounterNvID(bondIdx)         (calcNvID((bondIdx), GAP_BOND_DEV_SIGN_COUNTER_OFFSET))
//  116 
//  117 // Macros to calculate the GATT index/offset in to NV space
//  118 #define gattCfgNvID(Idx)                    ((Idx) + BLE_NVID_GATT_CFG_START)
//  119 
//  120 // Key Size Limits
//  121 #define MIN_ENC_KEYSIZE                     7  //!< Minimum number of bytes for the encryption key
//  122 #define MAX_ENC_KEYSIZE                     16 //!< Maximum number of bytes for the encryption key
//  123 
//  124 /*********************************************************************
//  125  * TYPEDEFS
//  126  */
//  127 
//  128 // Structure of NV data for the connected device's encryption information
//  129 typedef struct
//  130 {
//  131   uint8   LTK[KEYLEN];              // Long Term Key (LTK)
//  132   uint16  div;  //lint -e754        // LTK eDiv
//  133   uint8   rand[B_RANDOM_NUM_SIZE];  // LTK random number
//  134   uint8   keySize;                  // LTK key size
//  135 } gapBondLTK_t;
//  136 
//  137 // Structure of NV data for the connected device's address information
//  138 typedef struct
//  139 {
//  140   uint8   publicAddr[B_ADDR_LEN];     // Master's address
//  141   uint8   reconnectAddr[B_ADDR_LEN];  // Privacy Reconnection Address
//  142   uint16  stateFlags;                 // State flags: SM_AUTH_STATE_AUTHENTICATED & SM_AUTH_STATE_BONDING
//  143 } gapBondRec_t;
//  144 
//  145 // Structure of NV data for the connected device's characteristic configuration
//  146 typedef struct
//  147 {
//  148   uint16 attrHandle;  // attribute handle
//  149   uint8  value;       // attribute value for this device
//  150 } gapBondCharCfg_t;
//  151 
//  152 /*********************************************************************
//  153  * GLOBAL VARIABLES
//  154  */
//  155 
//  156 /*********************************************************************
//  157  * EXTERNAL VARIABLES
//  158  */
//  159 
//  160 /*********************************************************************
//  161  * EXTERNAL FUNCTIONS
//  162  */
//  163 
//  164 /*********************************************************************
//  165  * LOCAL VARIABLES
//  166  */

        RSEG XDATA_Z:XDATA:NOROOT(0)
        DATA8
//  167 static uint8 gapBondMgr_TaskID;   // Task ID for internal task/event processing
gapBondMgr_TaskID:
        DS 1
        REQUIRE __INIT_XDATA_Z
//  168 
//  169 // GAPBonding Parameters

        RSEG XDATA_I:XDATA:NOROOT(0)
//  170 static uint8 gapBond_PairingMode = GAPBOND_PAIRING_MODE_WAIT_FOR_REQ;
gapBond_PairingMode:
        DATA8
        DS 1
        REQUIRE `?<Initializer for gapBond_PairingMode>`
        REQUIRE __INIT_XDATA_I

        RSEG XDATA_I:XDATA:NOROOT(0)
//  171 static uint16 gapBond_InitiateWait = 1000;  // Default to 1 second
gapBond_InitiateWait:
        DATA16
        DS 2
        REQUIRE `?<Initializer for gapBond_InitiateWait>`
        REQUIRE __INIT_XDATA_I

        RSEG XDATA_Z:XDATA:NOROOT(0)
        DATA8
//  172 static uint8 gapBond_MITM = FALSE;
gapBond_MITM:
        DS 1
        REQUIRE __INIT_XDATA_Z

        RSEG XDATA_Z:XDATA:NOROOT(0)
        DATA8
//  173 static uint8 gapBond_IOCap = GAPBOND_IO_CAP_DISPLAY_ONLY;
gapBond_IOCap:
        DS 1
        REQUIRE __INIT_XDATA_Z

        RSEG XDATA_Z:XDATA:NOROOT(0)
        DATA8
//  174 static uint8 gapBond_OOBDataFlag = FALSE;
gapBond_OOBDataFlag:
        DS 1
        REQUIRE __INIT_XDATA_Z

        RSEG XDATA_Z:XDATA:NOROOT(0)
        DATA8
//  175 static uint8 gapBond_OOBData[KEYLEN] = {0,0,0,0,0,0,0,0,0,0,0,0,0,0,0,0};
gapBond_OOBData:
        DS 16
        REQUIRE __INIT_XDATA_Z

        RSEG XDATA_Z:XDATA:NOROOT(0)
        DATA8
//  176 static uint8 gapBond_Bonding = FALSE;
gapBond_Bonding:
        DS 1
        REQUIRE __INIT_XDATA_Z

        RSEG XDATA_Z:XDATA:NOROOT(0)
        DATA8
//  177 static uint8 gapBond_AutoFail = FALSE;
gapBond_AutoFail:
        DS 1
        REQUIRE __INIT_XDATA_Z

        RSEG XDATA_I:XDATA:NOROOT(0)
//  178 static uint8 gapBond_AutoFailReason = SMP_PAIRING_FAILED_NOT_SUPPORTED;
gapBond_AutoFailReason:
        DATA8
        DS 1
        REQUIRE `?<Initializer for gapBond_AutoFailReason>`
        REQUIRE __INIT_XDATA_I

        RSEG XDATA_I:XDATA:NOROOT(0)
//  179 static uint8 gapBond_KeyDistList =
gapBond_KeyDistList:
        DATA8
        DS 1
        REQUIRE `?<Initializer for gapBond_KeyDistList>`
        REQUIRE __INIT_XDATA_I
//  180 (
//  181   GAPBOND_KEYDIST_SENCKEY     // sEncKey enabled, to send the encryption key
//  182    | GAPBOND_KEYDIST_SIDKEY   // sIdKey enabled, to send the IRK, and BD_ADDR
//  183    | GAPBOND_KEYDIST_SSIGN    // sSign enabled, to send the CSRK
//  184    | GAPBOND_KEYDIST_MENCKEY  // mEncKey enabled, to get the master's encryption key
//  185    | GAPBOND_KEYDIST_MIDKEY   // mIdKey enabled, to get the master's IRK and BD_ADDR
//  186    | GAPBOND_KEYDIST_MSIGN    // mSign enabled, to get the master's CSRK
//  187 );

        RSEG XDATA_Z:XDATA:NOROOT(0)
        DATA32
//  188 static uint32 gapBond_Passcode = 0;
gapBond_Passcode:
        DS 4
        REQUIRE __INIT_XDATA_Z

        RSEG XDATA_I:XDATA:NOROOT(0)
//  189 static uint8  gapBond_KeySize = MAX_ENC_KEYSIZE;
gapBond_KeySize:
        DATA8
        DS 1
        REQUIRE `?<Initializer for gapBond_KeySize>`
        REQUIRE __INIT_XDATA_I
//  190 
//  191 #if ( HOST_CONFIG & CENTRAL_CFG )

        RSEG XDATA_I:XDATA:NOROOT(0)
//  192 static uint8  gapBond_BondFailOption = GAPBOND_FAIL_TERMINATE_LINK;
gapBond_BondFailOption:
        DATA8
        DS 1
        REQUIRE `?<Initializer for gapBond_BondFailOption>`
        REQUIRE __INIT_XDATA_I
//  193 #endif
//  194 

        RSEG XDATA_Z:XDATA:NOROOT(0)
        DATA16
//  195 static const gapBondCBs_t *pGapBondCB = NULL;
pGapBondCB:
        DS 2
        REQUIRE __INIT_XDATA_Z
//  196 
//  197 // Local RAM shadowed bond records

        RSEG XDATA_Z:XDATA:NOROOT(0)
        DATA8
//  198 static gapBondRec_t bonds[GAP_BONDINGS_MAX] = {0};
bonds:
        DS 140
        REQUIRE __INIT_XDATA_Z
//  199 

        RSEG XDATA_Z:XDATA:NOROOT(0)
        DATA8
//  200 static uint8 autoSyncWhiteList = FALSE;
autoSyncWhiteList:
        DS 1
        REQUIRE __INIT_XDATA_Z
//  201 

        RSEG XDATA_Z:XDATA:NOROOT(0)
        DATA8
//  202 static uint8 eraseAllBonds = FALSE;
eraseAllBonds:
        DS 1
        REQUIRE __INIT_XDATA_Z
//  203 

        RSEG XDATA_Z:XDATA:NOROOT(0)
        DATA8
//  204 static uint8 bondsToDelete[GAP_BONDINGS_MAX] = {FALSE};
bondsToDelete:
        DS 10
        REQUIRE __INIT_XDATA_Z
//  205 
//  206 // Globals used for saving bond record and CCC values in NV

        RSEG XDATA_I:XDATA:NOROOT(0)
//  207 static uint8 bondIdx = GAP_BONDINGS_MAX;
bondIdx:
        DATA8
        DS 1
        REQUIRE `?<Initializer for bondIdx>`
        REQUIRE __INIT_XDATA_I

        RSEG XDATA_Z:XDATA:NOROOT(0)
        DATA16
//  208 static gapAuthCompleteEvent_t *pAuthEvt = NULL;
pAuthEvt:
        DS 2
        REQUIRE __INIT_XDATA_Z
//  209 
//  210 /*********************************************************************
//  211  * LOCAL FUNCTIONS
//  212  */
//  213 static uint8 gapBondMgrChangeState( uint8 idx, uint16 state, uint8 set );
//  214 static uint8 gapBondMgrUpdateCharCfg( uint8 idx, uint16 attrHandle, uint16 value );
//  215 static gapBondCharCfg_t *gapBondMgrFindCharCfgItem( uint16 attrHandle,
//  216                                                     gapBondCharCfg_t *charCfgTbl );
//  217 static void gapBondMgrInvertCharCfgItem( gapBondCharCfg_t *charCfgTbl );
//  218 static uint8 gapBondMgrAddBond( gapBondRec_t *pBondRec, gapAuthCompleteEvent_t *pPkt );
//  219 static uint8 gapBondMgrGetStateFlags( uint8 idx );
//  220 static bStatus_t gapBondMgrGetPublicAddr( uint8 idx, uint8 *pAddr );
//  221 static uint8 gapBondMgrFindReconnectAddr( uint8 *pReconnectAddr );
//  222 static uint8 gapBondMgrFindAddr( uint8 *pDevAddr );
//  223 static uint8 gapBondMgrResolvePrivateAddr( uint8 *pAddr );
//  224 static void gapBondMgrReadBonds( void );
//  225 static uint8 gapBondMgrFindEmpty( void );
//  226 static uint8 gapBondMgrBondTotal( void );
//  227 static bStatus_t gapBondMgrEraseAllBondings( void );
//  228 static bStatus_t gapBondMgrEraseBonding( uint8 idx );
//  229 static uint8 gapBondMgr_ProcessOSALMsg( osal_event_hdr_t *pMsg );
//  230 static void gapBondMgrSendServiceChange( linkDBItem_t *pLinkItem );
//  231 static void gapBondMgr_ProcessGATTMsg( gattMsgEvent_t *pMsg );
//  232 static void gapBondMgr_ProcessGATTServMsg( gattEventHdr_t *pMsg );
//  233 static void gapBondSetupPrivFlag( void );
//  234 static void gapBondMgrBondReq( uint16 connHandle, uint8 idx, uint8 stateFlags,
//  235                                uint8 role, uint8 startEncryption );
//  236 static void gapBondMgrAuthenticate( uint16 connHandle, uint8 addrType,
//  237                                     gapPairingReq_t *pPairReq );
//  238 static void gapBondMgr_SyncWhiteList( void );
//  239 static uint8 gapBondMgr_SyncCharCfg( uint16 connHandle );
//  240 static void gapBondFreeAuthEvt( void );
//  241 
//  242 #if ( HOST_CONFIG & PERIPHERAL_CFG )
//  243 static void gapBondMgrSlaveSecurityReq( uint16 connHandle );
//  244 #endif
//  245 
//  246 /*********************************************************************
//  247  * NETWORK LAYER CALLBACKS
//  248  */
//  249 
//  250 /*********************************************************************
//  251  * PUBLIC FUNCTIONS
//  252  */
//  253 
//  254 /*********************************************************************
//  255  * @brief   Set a GAP Bond Manager parameter.
//  256  *
//  257  * Public function defined in gapbondmgr.h.
//  258  */

        RSEG BANKED_CODE:CODE:NOROOT(0)
//  259 bStatus_t GAPBondMgr_SetParameter( uint16 param, uint8 len, void *pValue )
GAPBondMgr_SetParameter:
          CFI Block cfiBlock0 Using cfiCommon0
          CFI Function GAPBondMgr_SetParameter
        CODE
//  260 {
        FUNCALL GAPBondMgr_SetParameter, osal_memcpy
        LOCFRAME ISTACK, 0, STACK
        LOCFRAME PSTACK, 0, STACK
        LOCFRAME XSTACK, 24, STACK
        LOCFRAME IOVERLAY, 0, STATIC
        LOCFRAME DOVERLAY, 0, STATIC
        ARGFRAME ISTACK, 0, STACK
        ARGFRAME PSTACK, 0, STACK
        ARGFRAME XSTACK, 24, STACK
        ARGFRAME IOVERLAY, 0, STATIC
        ARGFRAME DOVERLAY, 0, STATIC
        FUNCALL GAPBondMgr_SetParameter, GAP_NumActiveConnections
        LOCFRAME ISTACK, 0, STACK
        LOCFRAME PSTACK, 0, STACK
        LOCFRAME XSTACK, 22, STACK
        LOCFRAME IOVERLAY, 0, STATIC
        LOCFRAME DOVERLAY, 0, STATIC
        ARGFRAME ISTACK, 0, STACK
        ARGFRAME PSTACK, 0, STACK
        ARGFRAME XSTACK, 22, STACK
        ARGFRAME IOVERLAY, 0, STATIC
        ARGFRAME DOVERLAY, 0, STATIC
        FUNCALL GAPBondMgr_SetParameter, gapBondMgrEraseAllBondings
        LOCFRAME ISTACK, 0, STACK
        LOCFRAME PSTACK, 0, STACK
        LOCFRAME XSTACK, 22, STACK
        LOCFRAME IOVERLAY, 0, STATIC
        LOCFRAME DOVERLAY, 0, STATIC
        ARGFRAME ISTACK, 0, STACK
        ARGFRAME PSTACK, 0, STACK
        ARGFRAME XSTACK, 22, STACK
        ARGFRAME IOVERLAY, 0, STATIC
        ARGFRAME DOVERLAY, 0, STATIC
        FUNCALL GAPBondMgr_SetParameter, osal_snv_compact
        LOCFRAME ISTACK, 0, STACK
        LOCFRAME PSTACK, 0, STACK
        LOCFRAME XSTACK, 22, STACK
        LOCFRAME IOVERLAY, 0, STATIC
        LOCFRAME DOVERLAY, 0, STATIC
        ARGFRAME ISTACK, 0, STACK
        ARGFRAME PSTACK, 0, STACK
        ARGFRAME XSTACK, 22, STACK
        ARGFRAME IOVERLAY, 0, STATIC
        ARGFRAME DOVERLAY, 0, STATIC
        FUNCALL GAPBondMgr_SetParameter, gapBondMgrReadBonds
        LOCFRAME ISTACK, 0, STACK
        LOCFRAME PSTACK, 0, STACK
        LOCFRAME XSTACK, 22, STACK
        LOCFRAME IOVERLAY, 0, STATIC
        LOCFRAME DOVERLAY, 0, STATIC
        ARGFRAME ISTACK, 0, STACK
        ARGFRAME PSTACK, 0, STACK
        ARGFRAME XSTACK, 22, STACK
        ARGFRAME IOVERLAY, 0, STATIC
        ARGFRAME DOVERLAY, 0, STATIC
        FUNCALL GAPBondMgr_SetParameter, osal_revmemcpy
        LOCFRAME ISTACK, 0, STACK
        LOCFRAME PSTACK, 0, STACK
        LOCFRAME XSTACK, 24, STACK
        LOCFRAME IOVERLAY, 0, STATIC
        LOCFRAME DOVERLAY, 0, STATIC
        ARGFRAME ISTACK, 0, STACK
        ARGFRAME PSTACK, 0, STACK
        ARGFRAME XSTACK, 24, STACK
        ARGFRAME IOVERLAY, 0, STATIC
        ARGFRAME DOVERLAY, 0, STATIC
        FUNCALL GAPBondMgr_SetParameter, GAPBondMgr_ResolveAddr
        LOCFRAME ISTACK, 0, STACK
        LOCFRAME PSTACK, 0, STACK
        LOCFRAME XSTACK, 22, STACK
        LOCFRAME IOVERLAY, 0, STATIC
        LOCFRAME DOVERLAY, 0, STATIC
        ARGFRAME ISTACK, 0, STACK
        ARGFRAME PSTACK, 0, STACK
        ARGFRAME XSTACK, 22, STACK
        ARGFRAME IOVERLAY, 0, STATIC
        ARGFRAME DOVERLAY, 0, STATIC
        FUNCALL GAPBondMgr_SetParameter, GAP_NumActiveConnections
        LOCFRAME ISTACK, 0, STACK
        LOCFRAME PSTACK, 0, STACK
        LOCFRAME XSTACK, 22, STACK
        LOCFRAME IOVERLAY, 0, STATIC
        LOCFRAME DOVERLAY, 0, STATIC
        ARGFRAME ISTACK, 0, STACK
        ARGFRAME PSTACK, 0, STACK
        ARGFRAME XSTACK, 22, STACK
        ARGFRAME IOVERLAY, 0, STATIC
        ARGFRAME DOVERLAY, 0, STATIC
        FUNCALL GAPBondMgr_SetParameter, gapBondMgrEraseBonding
        LOCFRAME ISTACK, 0, STACK
        LOCFRAME PSTACK, 0, STACK
        LOCFRAME XSTACK, 22, STACK
        LOCFRAME IOVERLAY, 0, STATIC
        LOCFRAME DOVERLAY, 0, STATIC
        ARGFRAME ISTACK, 0, STACK
        ARGFRAME PSTACK, 0, STACK
        ARGFRAME XSTACK, 22, STACK
        ARGFRAME IOVERLAY, 0, STATIC
        ARGFRAME DOVERLAY, 0, STATIC
        FUNCALL GAPBondMgr_SetParameter, osal_snv_compact
        LOCFRAME ISTACK, 0, STACK
        LOCFRAME PSTACK, 0, STACK
        LOCFRAME XSTACK, 22, STACK
        LOCFRAME IOVERLAY, 0, STATIC
        LOCFRAME DOVERLAY, 0, STATIC
        ARGFRAME ISTACK, 0, STACK
        ARGFRAME PSTACK, 0, STACK
        ARGFRAME XSTACK, 22, STACK
        ARGFRAME IOVERLAY, 0, STATIC
        ARGFRAME DOVERLAY, 0, STATIC
        FUNCALL GAPBondMgr_SetParameter, gapBondMgrReadBonds
        LOCFRAME ISTACK, 0, STACK
        LOCFRAME PSTACK, 0, STACK
        LOCFRAME XSTACK, 22, STACK
        LOCFRAME IOVERLAY, 0, STATIC
        LOCFRAME DOVERLAY, 0, STATIC
        ARGFRAME ISTACK, 0, STACK
        ARGFRAME PSTACK, 0, STACK
        ARGFRAME XSTACK, 22, STACK
        ARGFRAME IOVERLAY, 0, STATIC
        ARGFRAME DOVERLAY, 0, STATIC
        FUNCALL GAPBondMgr_SetParameter, gapBondMgrReadBonds
        LOCFRAME ISTACK, 0, STACK
        LOCFRAME PSTACK, 0, STACK
        LOCFRAME XSTACK, 22, STACK
        LOCFRAME IOVERLAY, 0, STATIC
        LOCFRAME DOVERLAY, 0, STATIC
        ARGFRAME ISTACK, 0, STACK
        ARGFRAME PSTACK, 0, STACK
        ARGFRAME XSTACK, 22, STACK
        ARGFRAME IOVERLAY, 0, STATIC
        ARGFRAME DOVERLAY, 0, STATIC
        FUNCALL GAPBondMgr_SetParameter, GAP_SetParamValue
        LOCFRAME ISTACK, 0, STACK
        LOCFRAME PSTACK, 0, STACK
        LOCFRAME XSTACK, 22, STACK
        LOCFRAME IOVERLAY, 0, STATIC
        LOCFRAME DOVERLAY, 0, STATIC
        ARGFRAME ISTACK, 0, STACK
        ARGFRAME PSTACK, 0, STACK
        ARGFRAME XSTACK, 22, STACK
        ARGFRAME IOVERLAY, 0, STATIC
        ARGFRAME DOVERLAY, 0, STATIC
        REQUIRE ?V0
        REQUIRE ?V1
        REQUIRE ?V2
        REQUIRE ?V3
        REQUIRE ?V4
        REQUIRE ?V5
        REQUIRE ?V6
        REQUIRE ?V7
        MOV     A,#-0x10
        LCALL   ?BANKED_ENTER_XDATA
          CFI DPH0 load(1, XDATA, add(CFA_XSP16, literal(-1)))
          CFI DPL0 load(1, XDATA, add(CFA_XSP16, literal(-2)))
          CFI ?BRET_EXT load(1, XDATA, add(CFA_XSP16, literal(-3)))
          CFI ?RET_HIGH load(1, XDATA, add(CFA_XSP16, literal(-4)))
          CFI ?RET_LOW load(1, XDATA, add(CFA_XSP16, literal(-5)))
          CFI R7 load(1, XDATA, add(CFA_XSP16, literal(-6)))
          CFI V7 load(1, XDATA, add(CFA_XSP16, literal(-7)))
          CFI V6 load(1, XDATA, add(CFA_XSP16, literal(-8)))
          CFI V5 load(1, XDATA, add(CFA_XSP16, literal(-9)))
          CFI V4 load(1, XDATA, add(CFA_XSP16, literal(-10)))
          CFI V3 load(1, XDATA, add(CFA_XSP16, literal(-11)))
          CFI V2 load(1, XDATA, add(CFA_XSP16, literal(-12)))
          CFI V1 load(1, XDATA, add(CFA_XSP16, literal(-13)))
          CFI V0 load(1, XDATA, add(CFA_XSP16, literal(-14)))
          CFI VB load(1, XDATA, add(CFA_XSP16, literal(-15)))
          CFI R6 load(1, XDATA, add(CFA_XSP16, literal(-16)))
          CFI CFA_SP SP+0
          CFI CFA_XSP16 add(XSP16, 16)
        ; Saved register size: 16
        ; Auto size: 6
        MOV     A,#-0x6
        LCALL   ?ALLOC_XSTACK8
          CFI CFA_XSP16 add(XSP16, 22)
        MOV     ?V0,R1
        MOV     A,R4
        MOV     R6,A
        MOV     A,R5
        MOV     R7,A
//  261   bStatus_t ret = SUCCESS;  // return value
        MOV     ?V1,#0x0
//  262 
//  263   switch ( param )
        MOV     ?V2,R2
        MOV     ?V3,R3
        MOV     R0,#?V2
        LCALL   ?US_SWITCH_DENSE
`?<Jumptable for GAPBondMgr_SetParameter>_0`:
        DATA
        DATA16
        DATA
        DATA16
        DW        1024
        DATA
        DATA8
        DATA
        DATA8
        DB        16
        DATA
        DATA16
        DATA
        DATA16
        DW        ??GAPBondMgr_SetParameter_0
        DATA
        DATA16
        DATA
        DATA16
        DW        ??GAPBondMgr_SetParameter_1
        DATA
        DATA16
        DATA
        DATA16
        DW        ??GAPBondMgr_SetParameter_2
        DATA
        DATA16
        DATA
        DATA16
        DW        ??GAPBondMgr_SetParameter_3
        DATA
        DATA16
        DATA
        DATA16
        DW        ??GAPBondMgr_SetParameter_4
        DATA
        DATA16
        DATA
        DATA16
        DW        ??GAPBondMgr_SetParameter_5
        DATA
        DATA16
        DATA
        DATA16
        DW        ??GAPBondMgr_SetParameter_6
        DATA
        DATA16
        DATA
        DATA16
        DW        ??GAPBondMgr_SetParameter_7
        DATA
        DATA16
        DATA
        DATA16
        DW        ??GAPBondMgr_SetParameter_8
        DATA
        DATA16
        DATA
        DATA16
        DW        ??GAPBondMgr_SetParameter_9
        DATA
        DATA16
        DATA
        DATA16
        DW        ??GAPBondMgr_SetParameter_10
        DATA
        DATA16
        DATA
        DATA16
        DW        ??GAPBondMgr_SetParameter_11
        DATA
        DATA16
        DATA
        DATA16
        DW        ??GAPBondMgr_SetParameter_12
        DATA
        DATA16
        DATA
        DATA16
        DW        ??GAPBondMgr_SetParameter_13
        DATA
        DATA16
        DATA
        DATA16
        DW        ??GAPBondMgr_SetParameter_14
        DATA
        DATA16
        DATA
        DATA16
        DW        ??GAPBondMgr_SetParameter_0
        DATA
        DATA16
        DATA
        DATA16
        DW        ??GAPBondMgr_SetParameter_15
        DATA
        DATA16
        DATA
        DATA16
        DW        ??GAPBondMgr_SetParameter_16
        CODE
//  264   {
//  265     case GAPBOND_PAIRING_MODE:
//  266       if ( (len == sizeof ( uint8 )) && (*((uint8*)pValue) <= GAPBOND_PAIRING_MODE_INITIATE) )
??GAPBondMgr_SetParameter_1:
        MOV     A,#0x1
        XRL     A,?V0
        JZ      $+5
        LJMP    ??GAPBondMgr_SetParameter_17 & 0xFFFF
        MOV     DPL,R6
        MOV     DPH,R7
        MOVX    A,@DPTR
        MOV     R0,A
        CLR     C
        SUBB    A,#0x3
        JC      $+5
        LJMP    ??GAPBondMgr_SetParameter_17 & 0xFFFF
//  267       {
//  268         gapBond_PairingMode = *((uint8*)pValue);
        MOV     A,R0
        MOV     DPTR,#gapBond_PairingMode
        LJMP    ??GAPBondMgr_SetParameter_18 & 0xFFFF
//  269       }
//  270       else
//  271       {
//  272         ret = bleInvalidRange;
//  273       }
//  274       break;
//  275 
//  276     case GAPBOND_INITIATE_WAIT:
//  277       if ( len == sizeof ( uint16 ) )
??GAPBondMgr_SetParameter_2:
        MOV     A,#0x2
        XRL     A,?V0
        JZ      $+5
        LJMP    ??GAPBondMgr_SetParameter_17 & 0xFFFF
//  278       {
//  279         gapBond_InitiateWait = *((uint16*)pValue);
        MOV     DPL,R6
        MOV     DPH,R7
        LCALL   ??Subroutine26_0 & 0xFFFF
//  280       }
??CrossCallReturnLabel_77:
        MOV     DPTR,#gapBond_InitiateWait
        MOV     A,R0
        MOVX    @DPTR,A
        INC     DPTR
        MOV     A,R1
        LJMP    ??GAPBondMgr_SetParameter_18 & 0xFFFF
//  281       else
//  282       {
//  283         ret = bleInvalidRange;
//  284       }
//  285       break;
//  286 
//  287     case GAPBOND_MITM_PROTECTION:
//  288       if ( (len == sizeof ( uint8 )) && (*((uint8*)pValue) <= TRUE) )
??GAPBondMgr_SetParameter_3:
        MOV     A,#0x1
        XRL     A,?V0
        JZ      $+5
        LJMP    ??GAPBondMgr_SetParameter_17 & 0xFFFF
        LCALL   ?Subroutine14 & 0xFFFF
??CrossCallReturnLabel_12:
        JC      $+5
        LJMP    ??GAPBondMgr_SetParameter_17 & 0xFFFF
//  289       {
//  290         gapBond_MITM = *((uint8*)pValue);
        MOV     A,R0
        MOV     DPTR,#gapBond_MITM
        LJMP    ??GAPBondMgr_SetParameter_18 & 0xFFFF
//  291       }
//  292       else
//  293       {
//  294         ret = bleInvalidRange;
//  295       }
//  296       break;
//  297 
//  298     case GAPBOND_IO_CAPABILITIES:
//  299       if ( (len == sizeof ( uint8 )) && (*((uint8*)pValue) <= GAPBOND_IO_CAP_KEYBOARD_DISPLAY) )
??GAPBondMgr_SetParameter_4:
        MOV     A,#0x1
        XRL     A,?V0
        JZ      $+5
        LJMP    ??GAPBondMgr_SetParameter_17 & 0xFFFF
        MOV     DPL,R6
        MOV     DPH,R7
        MOVX    A,@DPTR
        MOV     R0,A
        CLR     C
        SUBB    A,#0x5
        JC      $+5
        LJMP    ??GAPBondMgr_SetParameter_17 & 0xFFFF
//  300       {
//  301         gapBond_IOCap = *((uint8*)pValue);
        MOV     A,R0
        MOV     DPTR,#gapBond_IOCap
        LJMP    ??GAPBondMgr_SetParameter_18 & 0xFFFF
//  302       }
//  303       else
//  304       {
//  305         ret = bleInvalidRange;
//  306       }
//  307       break;
//  308 
//  309     case GAPBOND_OOB_ENABLED:
//  310       if ( (len == sizeof ( uint8 )) && (*((uint8*)pValue) <= TRUE) )
??GAPBondMgr_SetParameter_5:
        MOV     A,#0x1
        XRL     A,?V0
        JZ      $+5
        LJMP    ??GAPBondMgr_SetParameter_17 & 0xFFFF
        LCALL   ?Subroutine14 & 0xFFFF
??CrossCallReturnLabel_13:
        JC      $+5
        LJMP    ??GAPBondMgr_SetParameter_17 & 0xFFFF
//  311       {
//  312         gapBond_OOBDataFlag = *((uint8*)pValue);
        MOV     A,R0
        MOV     DPTR,#gapBond_OOBDataFlag
        LJMP    ??GAPBondMgr_SetParameter_18 & 0xFFFF
//  313       }
//  314       else
//  315       {
//  316         ret = bleInvalidRange;
//  317       }
//  318       break;
//  319 
//  320     case GAPBOND_OOB_DATA:
//  321       if ( len == KEYLEN )
??GAPBondMgr_SetParameter_6:
        MOV     A,#0x10
        XRL     A,?V0
        JZ      $+5
        LJMP    ??GAPBondMgr_SetParameter_17 & 0xFFFF
//  322       {
//  323         VOID osal_memcpy( gapBond_OOBData, pValue, KEYLEN ) ;
        ; Setup parameters for call to function osal_memcpy
        MOV     ?V2,#0x10
        MOV     ?V3,#0x0
        MOV     R0,#?V2
        LCALL   ?PUSH_XSTACK_I_TWO
          CFI CFA_XSP16 add(XSP16, 24)
        MOV     R2,#gapBond_OOBData & 0xff
        MOV     R3,#(gapBond_OOBData >> 8) & 0xff
        LCALL   ??osal_memcpy?relay  ; Banked call to: osal_memcpy
        MOV     A,#0x2
        LCALL   ?DEALLOC_XSTACK8
          CFI CFA_XSP16 add(XSP16, 22)
        LJMP    ??GAPBondMgr_SetParameter_19 & 0xFFFF
//  324       }
//  325       else
//  326       {
//  327         ret = bleInvalidRange;
//  328       }
//  329       break;
//  330 
//  331     case GAPBOND_BONDING_ENABLED:
//  332       if ( (len == sizeof ( uint8 )) && (*((uint8*)pValue) <= TRUE) )
??GAPBondMgr_SetParameter_7:
        MOV     A,#0x1
        XRL     A,?V0
        JZ      $+5
        LJMP    ??GAPBondMgr_SetParameter_17 & 0xFFFF
        LCALL   ?Subroutine14 & 0xFFFF
??CrossCallReturnLabel_14:
        JC      $+5
        LJMP    ??GAPBondMgr_SetParameter_17 & 0xFFFF
//  333       {
//  334         gapBond_Bonding = *((uint8*)pValue);
        MOV     A,R0
        MOV     DPTR,#gapBond_Bonding
        LJMP    ??GAPBondMgr_SetParameter_18 & 0xFFFF
//  335       }
//  336       else
//  337       {
//  338         ret = bleInvalidRange;
//  339       }
//  340       break;
//  341 
//  342     case GAPBOND_KEY_DIST_LIST:
//  343       if ( len == sizeof ( uint8 ) )
??GAPBondMgr_SetParameter_8:
        MOV     A,#0x1
        XRL     A,?V0
        JZ      $+5
        LJMP    ??GAPBondMgr_SetParameter_17 & 0xFFFF
//  344       {
//  345         gapBond_KeyDistList = *((uint8*)pValue);
        MOV     DPL,R6
        MOV     DPH,R7
        MOVX    A,@DPTR
        MOV     DPTR,#gapBond_KeyDistList
        LJMP    ??GAPBondMgr_SetParameter_18 & 0xFFFF
//  346       }
//  347       else
//  348       {
//  349         ret = bleInvalidRange;
//  350       }
//  351       break;
//  352 
//  353     case GAPBOND_DEFAULT_PASSCODE:
//  354       if ( (len == sizeof ( uint32 ))
//  355           && (*((uint32*)pValue) <= GAP_PASSCODE_MAX) )
??GAPBondMgr_SetParameter_9:
        MOV     A,#0x4
        XRL     A,?V0
        JZ      $+5
        LJMP    ??GAPBondMgr_SetParameter_17 & 0xFFFF
        MOV     DPL,R6
        MOV     DPH,R7
        MOV     R0,#?V4
        LCALL   ?L_MOV_X
        MOV     DPTR,#__Constant_f4240
        MOV     R0,#?V4
        LCALL   ?UL_GE_X
        JNC     $+5
        LJMP    ??GAPBondMgr_SetParameter_17 & 0xFFFF
//  356       {
//  357         gapBond_Passcode = *((uint32*)pValue);
        MOV     DPTR,#gapBond_Passcode
        MOV     R0,#?V4
        LCALL   ?L_MOV_TO_X
        LJMP    ??GAPBondMgr_SetParameter_19 & 0xFFFF
//  358       }
//  359       else
//  360       {
//  361         ret = bleInvalidRange;
//  362       }
//  363       break;
//  364 
//  365     case GAPBOND_ERASE_ALLBONDS:
//  366       if ( len == 0 )
??GAPBondMgr_SetParameter_10:
        MOV     A,R1
        JZ      $+5
        LJMP    ??GAPBondMgr_SetParameter_17 & 0xFFFF
//  367       {
//  368         // Make sure there's no active connection
//  369         if ( GAP_NumActiveConnections() == 0 )
        ; Setup parameters for call to function GAP_NumActiveConnections
        LCALL   ??GAP_NumActiveConnections?relay; Banked call to: GAP_NumActiveConnections
        MOV     A,R1
        JNZ     ??GAPBondMgr_SetParameter_20
//  370         {
//  371           // Erase all bonding records
//  372           VOID gapBondMgrEraseAllBondings();
        ; Setup parameters for call to function gapBondMgrEraseAllBondings
        LCALL   ??gapBondMgrEraseAllBondings?relay; Banked call to: gapBondMgrEraseAllBondings
//  373 
//  374           // See if NV needs a compaction
//  375           VOID osal_snv_compact( NV_COMPACT_THRESHOLD );
        ; Setup parameters for call to function osal_snv_compact
        SJMP    ??GAPBondMgr_SetParameter_21
//  376 
//  377           // Make sure Bond RAM Shadow is up-to-date
//  378           gapBondMgrReadBonds();
//  379         }
//  380         else
//  381         {
//  382           eraseAllBonds = TRUE;
??GAPBondMgr_SetParameter_20:
        MOV     DPTR,#eraseAllBonds
        SJMP    ??GAPBondMgr_SetParameter_22
//  383         }
//  384       }
//  385       else
//  386       {
//  387         ret = bleInvalidRange;
//  388       }
//  389       break;
//  390 
//  391     case GAPBOND_ERASE_SINGLEBOND:
//  392       if ( len == (1 + B_ADDR_LEN) )
??GAPBondMgr_SetParameter_16:
        MOV     A,#0x7
        XRL     A,?V0
        JZ      $+5
        LJMP    ??GAPBondMgr_SetParameter_17 & 0xFFFF
//  393       {
//  394         uint8 idx;
//  395         uint8 devAddr[B_ADDR_LEN];
//  396 
//  397         // Reverse bytes
//  398         VOID osal_revmemcpy( devAddr, (uint8 *)pValue+1, B_ADDR_LEN );
        ; Setup parameters for call to function osal_revmemcpy
        MOV     ?V2,#0x6
        MOV     ?V3,#0x0
        MOV     R0,#?V2
        LCALL   ?PUSH_XSTACK_I_TWO
          CFI CFA_XSP16 add(XSP16, 24)
        MOV     DPL,R6
        MOV     DPH,R7
        INC     DPTR
        MOV     R4,DPL
        MOV     R5,DPH
        MOV     A,#0x2
        LCALL   ?XSTACK_DISP101_8
        LCALL   ??osal_revmemcpy?relay; Banked call to: osal_revmemcpy
        MOV     A,#0x2
        LCALL   ?DEALLOC_XSTACK8
          CFI CFA_XSP16 add(XSP16, 22)
//  399         
//  400         // Resolve address and find index
//  401         idx = GAPBondMgr_ResolveAddr( *((uint8 *)pValue), devAddr, NULL );
        ; Setup parameters for call to function GAPBondMgr_ResolveAddr
        MOV     R4,#0x0
        MOV     R5,#0x0
        MOV     R2,?XSP + 0
        MOV     R3,?XSP + 1
        MOV     DPL,R6
        MOV     DPH,R7
        MOVX    A,@DPTR
        MOV     R1,A
        LCALL   ??GAPBondMgr_ResolveAddr?relay; Banked call to: GAPBondMgr_ResolveAddr
        MOV     A,R1
        MOV     ?V2,A
//  402         if ( idx < GAP_BONDINGS_MAX )
        CLR     C
        SUBB    A,#0xa
        JC      $+5
        LJMP    ??GAPBondMgr_SetParameter_23 & 0xFFFF
//  403         {
//  404           // Make sure there's no active connection
//  405           if ( GAP_NumActiveConnections() == 0 )
        ; Setup parameters for call to function GAP_NumActiveConnections
        LCALL   ??GAP_NumActiveConnections?relay; Banked call to: GAP_NumActiveConnections
        MOV     A,R1
        JNZ     ??GAPBondMgr_SetParameter_24
//  406           {
//  407             // Erase bond
//  408             VOID gapBondMgrEraseBonding( idx );
        ; Setup parameters for call to function gapBondMgrEraseBonding
        MOV     R1,?V2
        LCALL   ??gapBondMgrEraseBonding?relay; Banked call to: gapBondMgrEraseBonding
//  409             
//  410             // See if NV needs a compaction
//  411             VOID osal_snv_compact( NV_COMPACT_THRESHOLD );
        ; Setup parameters for call to function osal_snv_compact
??GAPBondMgr_SetParameter_21:
        MOV     R1,#0x50
        LCALL   ??osal_snv_compact?relay; Banked call to: osal_snv_compact
//  412             
//  413             // Make sure Bond RAM Shadow is up-to-date
//  414             gapBondMgrReadBonds();
        ; Setup parameters for call to function gapBondMgrReadBonds
        SJMP    ??GAPBondMgr_SetParameter_25
//  415           }
//  416           else
//  417           {
//  418             // Mark entry to be deleted when disconnected
//  419             bondsToDelete[idx] = TRUE;
??GAPBondMgr_SetParameter_24:
        MOV     A,#bondsToDelete & 0xff
        ADD     A,?V2
        MOV     DPL,A
        CLR     A
        ADDC    A,#(bondsToDelete >> 8) & 0xff
        MOV     DPH,A
??GAPBondMgr_SetParameter_22:
        MOV     A,#0x1
        SJMP    ??GAPBondMgr_SetParameter_18
//  420           }
//  421         }
//  422         else
//  423         {
//  424           ret = INVALIDPARAMETER;
//  425         }
//  426       }
//  427       else
//  428       {
//  429         // Parameter is not the correct length
//  430         ret = bleInvalidRange;
//  431       }
//  432       break;
//  433       
//  434     case GAPBOND_AUTO_FAIL_PAIRING:
//  435       if ( (len == sizeof ( uint8 )) && (*((uint8*)pValue) <= TRUE) )
??GAPBondMgr_SetParameter_11:
        MOV     A,#0x1
        XRL     A,?V0
        JNZ     ??GAPBondMgr_SetParameter_17
        LCALL   ?Subroutine14 & 0xFFFF
??CrossCallReturnLabel_15:
        JNC     ??GAPBondMgr_SetParameter_17
//  436       {
//  437         gapBond_AutoFail = *((uint8*)pValue);
        MOV     A,R0
        MOV     DPTR,#gapBond_AutoFail
        SJMP    ??GAPBondMgr_SetParameter_18
//  438       }
//  439       else
//  440       {
//  441         ret = bleInvalidRange;
//  442       }
//  443       break;
//  444 
//  445     case GAPBOND_AUTO_FAIL_REASON:
//  446       if ( (len == sizeof ( uint8 )) && (*((uint8*)pValue) <= SMP_PAIRING_FAILED_REPEATED_ATTEMPTS) )
??GAPBondMgr_SetParameter_12:
        MOV     A,#0x1
        XRL     A,?V0
        JNZ     ??GAPBondMgr_SetParameter_17
        MOV     DPL,R6
        MOV     DPH,R7
        MOVX    A,@DPTR
        MOV     R0,A
        CLR     C
        SUBB    A,#0xa
        JNC     ??GAPBondMgr_SetParameter_17
//  447       {
//  448         gapBond_AutoFailReason = *((uint8*)pValue);
        MOV     A,R0
        MOV     DPTR,#gapBond_AutoFailReason
        SJMP    ??GAPBondMgr_SetParameter_18
//  449       }
//  450       else
//  451       {
//  452         ret = bleInvalidRange;
//  453       }
//  454       break;
//  455 
//  456     case GAPBOND_KEYSIZE:
//  457       if ( (len == sizeof ( uint8 ))
//  458           && ((*((uint8*)pValue) >= MIN_ENC_KEYSIZE) && (*((uint8*)pValue) <= MAX_ENC_KEYSIZE)) )
??GAPBondMgr_SetParameter_13:
        MOV     A,#0x1
        XRL     A,?V0
        JNZ     ??GAPBondMgr_SetParameter_17
        MOV     DPL,R6
        MOV     DPH,R7
        MOVX    A,@DPTR
        MOV     R0,A
        MOV     A,#-0x7
        ADD     A,R0
        CLR     C
        SUBB    A,#0xa
        JNC     ??GAPBondMgr_SetParameter_17
//  459       {
//  460         gapBond_KeySize = *((uint8*)pValue);
        MOV     A,R0
        MOV     DPTR,#gapBond_KeySize
        SJMP    ??GAPBondMgr_SetParameter_18
//  461       }
//  462       else
//  463       {
//  464         ret = bleInvalidRange;
//  465       }
//  466       break;
//  467 
//  468     case GAPBOND_AUTO_SYNC_WL:
//  469       if ( len == sizeof( uint8 ) )
??GAPBondMgr_SetParameter_14:
        MOV     A,#0x1
        XRL     A,?V0
        JNZ     ??GAPBondMgr_SetParameter_17
//  470       {
//  471         uint8 oldVal = autoSyncWhiteList;
        MOV     DPTR,#autoSyncWhiteList
        MOVX    A,@DPTR
        MOV     R0,A
//  472 
//  473         autoSyncWhiteList = *((uint8 *)pValue);
        MOV     DPL,R6
        MOV     DPH,R7
        MOVX    A,@DPTR
        MOV     DPTR,#autoSyncWhiteList
        MOVX    @DPTR,A
//  474 
//  475         // only call if parameter changes from FALSE to TRUE
//  476         if ( ( oldVal == FALSE ) && ( autoSyncWhiteList == TRUE ) )
        MOV     A,R0
        JNZ     ??GAPBondMgr_SetParameter_19
        MOVX    A,@DPTR
        XRL     A,#0x1
        JNZ     ??GAPBondMgr_SetParameter_19
//  477         {
//  478           // make sure bond is updated from NV
//  479           gapBondMgrReadBonds();
        ; Setup parameters for call to function gapBondMgrReadBonds
??GAPBondMgr_SetParameter_25:
        LCALL   ??gapBondMgrReadBonds?relay; Banked call to: gapBondMgrReadBonds
        SJMP    ??GAPBondMgr_SetParameter_19
//  480         }
//  481       }
//  482       else
//  483       {
//  484         ret = bleInvalidRange;
//  485       }
//  486       break;
//  487 
//  488 #if ( HOST_CONFIG & CENTRAL_CFG )
//  489     case GAPBOND_BOND_FAIL_ACTION:
//  490       if ( (len == sizeof ( uint8 )) && (*((uint8*)pValue) <= GAPBOND_FAIL_TERMINATE_ERASE_BONDS) )
??GAPBondMgr_SetParameter_15:
        MOV     A,#0x1
        XRL     A,?V0
        JNZ     ??GAPBondMgr_SetParameter_17
        MOV     DPL,R6
        MOV     DPH,R7
        MOVX    A,@DPTR
        MOV     R0,A
        CLR     C
        SUBB    A,#0x4
        JNC     ??GAPBondMgr_SetParameter_17
//  491       {
//  492         gapBond_BondFailOption = *((uint8*)pValue);
        MOV     A,R0
        MOV     DPTR,#gapBond_BondFailOption
??GAPBondMgr_SetParameter_18:
        MOVX    @DPTR,A
        SJMP    ??GAPBondMgr_SetParameter_19
//  493       }
//  494       else
//  495       {
//  496         ret = bleInvalidRange;
??GAPBondMgr_SetParameter_17:
        MOV     ?V1,#0x18
        SJMP    ??GAPBondMgr_SetParameter_19
//  497       }
//  498       break;
//  499 #endif
//  500 
//  501     default:
//  502       // The param value isn't part of this profile, try the GAP.
//  503       if ( (param < TGAP_PARAMID_MAX) && (len == sizeof ( uint16 )) )
??GAPBondMgr_SetParameter_0:
        CLR     C
        MOV     A,R2
        SUBB    A,#0x27
        MOV     A,R3
        SUBB    A,#0x0
        JNC     ??GAPBondMgr_SetParameter_23
        MOV     A,#0x2
        XRL     A,?V0
        JNZ     ??GAPBondMgr_SetParameter_23
//  504       {
//  505         ret = GAP_SetParamValue( param, *((uint16*)pValue) );
        ; Setup parameters for call to function GAP_SetParamValue
        MOV     DPL,R6
        MOV     DPH,R7
        LCALL   ?Subroutine24 & 0xFFFF
//  506       }
??CrossCallReturnLabel_45:
        LCALL   ??GAP_SetParamValue?relay; Banked call to: GAP_SetParamValue
        MOV     A,R1
        MOV     ?V1,A
        SJMP    ??GAPBondMgr_SetParameter_19
//  507       else
//  508       {
//  509         ret = INVALIDPARAMETER;
??GAPBondMgr_SetParameter_23:
        MOV     ?V1,#0x2
//  510       }
//  511       break;
//  512   }
//  513 
//  514   return ( ret );
??GAPBondMgr_SetParameter_19:
        MOV     R1,?V1
        MOV     A,#0x6
          CFI EndBlock cfiBlock0
        REQUIRE ?Subroutine0
        ; // Fall through to label ?Subroutine0
//  515 }

        RSEG BANKED_CODE:CODE:NOROOT(0)
?Subroutine0:
          CFI Block cfiBlock1 Using cfiCommon0
          CFI NoFunction
          CFI CFA_SP SP+0
          CFI CFA_XSP16 add(XSP16, 22)
          CFI VB load(1, XDATA, add(CFA_XSP16, literal(-15)))
          CFI DPL0 load(1, XDATA, add(CFA_XSP16, literal(-2)))
          CFI DPH0 load(1, XDATA, add(CFA_XSP16, literal(-1)))
          CFI R6 load(1, XDATA, add(CFA_XSP16, literal(-16)))
          CFI R7 load(1, XDATA, add(CFA_XSP16, literal(-6)))
          CFI V0 load(1, XDATA, add(CFA_XSP16, literal(-14)))
          CFI V1 load(1, XDATA, add(CFA_XSP16, literal(-13)))
          CFI V2 load(1, XDATA, add(CFA_XSP16, literal(-12)))
          CFI V3 load(1, XDATA, add(CFA_XSP16, literal(-11)))
          CFI V4 load(1, XDATA, add(CFA_XSP16, literal(-10)))
          CFI V5 load(1, XDATA, add(CFA_XSP16, literal(-9)))
          CFI V6 load(1, XDATA, add(CFA_XSP16, literal(-8)))
          CFI V7 load(1, XDATA, add(CFA_XSP16, literal(-7)))
          CFI ?BRET_EXT load(1, XDATA, add(CFA_XSP16, literal(-3)))
          CFI ?RET_HIGH load(1, XDATA, add(CFA_XSP16, literal(-4)))
          CFI ?RET_LOW load(1, XDATA, add(CFA_XSP16, literal(-5)))
          CFI Invalid
        LCALL   ?DEALLOC_XSTACK8
          CFI CFA_XSP16 add(XSP16, 16)
          CFI Valid
        MOV     R7,#0x8
        LJMP    ?BANKED_LEAVE_XDATA
          CFI EndBlock cfiBlock1

        RSEG BANKED_CODE:CODE:NOROOT(0)
?Subroutine14:
          CFI Block cfiCond2 Using cfiCommon0
          CFI Function GAPBondMgr_SetParameter
          CFI Conditional ??CrossCallReturnLabel_12
          CFI R6 load(1, XDATA, add(CFA_XSP16, literal(-16)))
          CFI VB load(1, XDATA, add(CFA_XSP16, literal(-15)))
          CFI V0 load(1, XDATA, add(CFA_XSP16, literal(-14)))
          CFI V1 load(1, XDATA, add(CFA_XSP16, literal(-13)))
          CFI V2 load(1, XDATA, add(CFA_XSP16, literal(-12)))
          CFI V3 load(1, XDATA, add(CFA_XSP16, literal(-11)))
          CFI V4 load(1, XDATA, add(CFA_XSP16, literal(-10)))
          CFI V5 load(1, XDATA, add(CFA_XSP16, literal(-9)))
          CFI V6 load(1, XDATA, add(CFA_XSP16, literal(-8)))
          CFI V7 load(1, XDATA, add(CFA_XSP16, literal(-7)))
          CFI R7 load(1, XDATA, add(CFA_XSP16, literal(-6)))
          CFI ?RET_LOW load(1, XDATA, add(CFA_XSP16, literal(-5)))
          CFI ?RET_HIGH load(1, XDATA, add(CFA_XSP16, literal(-4)))
          CFI ?BRET_EXT load(1, XDATA, add(CFA_XSP16, literal(-3)))
          CFI DPL0 load(1, XDATA, add(CFA_XSP16, literal(-2)))
          CFI DPH0 load(1, XDATA, add(CFA_XSP16, literal(-1)))
          CFI CFA_SP SP+-2
          CFI CFA_XSP16 add(XSP16, 22)
          CFI Block cfiCond3 Using cfiCommon0
          CFI (cfiCond3) Function GAPBondMgr_SetParameter
          CFI (cfiCond3) Conditional ??CrossCallReturnLabel_13
          CFI (cfiCond3) R6 load(1, XDATA, add(CFA_XSP16, literal(-16)))
          CFI (cfiCond3) VB load(1, XDATA, add(CFA_XSP16, literal(-15)))
          CFI (cfiCond3) V0 load(1, XDATA, add(CFA_XSP16, literal(-14)))
          CFI (cfiCond3) V1 load(1, XDATA, add(CFA_XSP16, literal(-13)))
          CFI (cfiCond3) V2 load(1, XDATA, add(CFA_XSP16, literal(-12)))
          CFI (cfiCond3) V3 load(1, XDATA, add(CFA_XSP16, literal(-11)))
          CFI (cfiCond3) V4 load(1, XDATA, add(CFA_XSP16, literal(-10)))
          CFI (cfiCond3) V5 load(1, XDATA, add(CFA_XSP16, literal(-9)))
          CFI (cfiCond3) V6 load(1, XDATA, add(CFA_XSP16, literal(-8)))
          CFI (cfiCond3) V7 load(1, XDATA, add(CFA_XSP16, literal(-7)))
          CFI (cfiCond3) R7 load(1, XDATA, add(CFA_XSP16, literal(-6)))
          CFI (cfiCond3) ?RET_LOW load(1, XDATA, add(CFA_XSP16, literal(-5)))
          CFI (cfiCond3) ?RET_HIGH load(1, XDATA, add(CFA_XSP16, literal(-4)))
          CFI (cfiCond3) ?BRET_EXT load(1, XDATA, add(CFA_XSP16, literal(-3)))
          CFI (cfiCond3) DPL0 load(1, XDATA, add(CFA_XSP16, literal(-2)))
          CFI (cfiCond3) DPH0 load(1, XDATA, add(CFA_XSP16, literal(-1)))
          CFI (cfiCond3) CFA_SP SP+-2
          CFI (cfiCond3) CFA_XSP16 add(XSP16, 22)
          CFI Block cfiCond4 Using cfiCommon0
          CFI (cfiCond4) Function GAPBondMgr_SetParameter
          CFI (cfiCond4) Conditional ??CrossCallReturnLabel_14
          CFI (cfiCond4) R6 load(1, XDATA, add(CFA_XSP16, literal(-16)))
          CFI (cfiCond4) VB load(1, XDATA, add(CFA_XSP16, literal(-15)))
          CFI (cfiCond4) V0 load(1, XDATA, add(CFA_XSP16, literal(-14)))
          CFI (cfiCond4) V1 load(1, XDATA, add(CFA_XSP16, literal(-13)))
          CFI (cfiCond4) V2 load(1, XDATA, add(CFA_XSP16, literal(-12)))
          CFI (cfiCond4) V3 load(1, XDATA, add(CFA_XSP16, literal(-11)))
          CFI (cfiCond4) V4 load(1, XDATA, add(CFA_XSP16, literal(-10)))
          CFI (cfiCond4) V5 load(1, XDATA, add(CFA_XSP16, literal(-9)))
          CFI (cfiCond4) V6 load(1, XDATA, add(CFA_XSP16, literal(-8)))
          CFI (cfiCond4) V7 load(1, XDATA, add(CFA_XSP16, literal(-7)))
          CFI (cfiCond4) R7 load(1, XDATA, add(CFA_XSP16, literal(-6)))
          CFI (cfiCond4) ?RET_LOW load(1, XDATA, add(CFA_XSP16, literal(-5)))
          CFI (cfiCond4) ?RET_HIGH load(1, XDATA, add(CFA_XSP16, literal(-4)))
          CFI (cfiCond4) ?BRET_EXT load(1, XDATA, add(CFA_XSP16, literal(-3)))
          CFI (cfiCond4) DPL0 load(1, XDATA, add(CFA_XSP16, literal(-2)))
          CFI (cfiCond4) DPH0 load(1, XDATA, add(CFA_XSP16, literal(-1)))
          CFI (cfiCond4) CFA_SP SP+-2
          CFI (cfiCond4) CFA_XSP16 add(XSP16, 22)
          CFI Block cfiCond5 Using cfiCommon0
          CFI (cfiCond5) Function GAPBondMgr_SetParameter
          CFI (cfiCond5) Conditional ??CrossCallReturnLabel_15
          CFI (cfiCond5) R6 load(1, XDATA, add(CFA_XSP16, literal(-16)))
          CFI (cfiCond5) VB load(1, XDATA, add(CFA_XSP16, literal(-15)))
          CFI (cfiCond5) V0 load(1, XDATA, add(CFA_XSP16, literal(-14)))
          CFI (cfiCond5) V1 load(1, XDATA, add(CFA_XSP16, literal(-13)))
          CFI (cfiCond5) V2 load(1, XDATA, add(CFA_XSP16, literal(-12)))
          CFI (cfiCond5) V3 load(1, XDATA, add(CFA_XSP16, literal(-11)))
          CFI (cfiCond5) V4 load(1, XDATA, add(CFA_XSP16, literal(-10)))
          CFI (cfiCond5) V5 load(1, XDATA, add(CFA_XSP16, literal(-9)))
          CFI (cfiCond5) V6 load(1, XDATA, add(CFA_XSP16, literal(-8)))
          CFI (cfiCond5) V7 load(1, XDATA, add(CFA_XSP16, literal(-7)))
          CFI (cfiCond5) R7 load(1, XDATA, add(CFA_XSP16, literal(-6)))
          CFI (cfiCond5) ?RET_LOW load(1, XDATA, add(CFA_XSP16, literal(-5)))
          CFI (cfiCond5) ?RET_HIGH load(1, XDATA, add(CFA_XSP16, literal(-4)))
          CFI (cfiCond5) ?BRET_EXT load(1, XDATA, add(CFA_XSP16, literal(-3)))
          CFI (cfiCond5) DPL0 load(1, XDATA, add(CFA_XSP16, literal(-2)))
          CFI (cfiCond5) DPH0 load(1, XDATA, add(CFA_XSP16, literal(-1)))
          CFI (cfiCond5) CFA_SP SP+-2
          CFI (cfiCond5) CFA_XSP16 add(XSP16, 22)
          CFI Block cfiPicker6 Using cfiCommon1
          CFI (cfiPicker6) NoFunction
          CFI (cfiPicker6) Picker
        MOV     DPL,R6
        MOV     DPH,R7
        MOVX    A,@DPTR
        MOV     R0,A
        CLR     C
        SUBB    A,#0x2
        RET
          CFI EndBlock cfiCond2
          CFI EndBlock cfiCond3
          CFI EndBlock cfiCond4
          CFI EndBlock cfiCond5
          CFI EndBlock cfiPicker6
//  516 
//  517 /*********************************************************************
//  518  * @brief   Get a GAP Bond Manager parameter.
//  519  *
//  520  * Public function defined in gapbondmgr.h.
//  521  */

        RSEG BANKED_CODE:CODE:NOROOT(0)
//  522 bStatus_t GAPBondMgr_GetParameter( uint16 param, void *pValue )
GAPBondMgr_GetParameter:
          CFI Block cfiBlock7 Using cfiCommon0
          CFI Function GAPBondMgr_GetParameter
        CODE
//  523 {
        FUNCALL GAPBondMgr_GetParameter, osal_memcpy
        LOCFRAME ISTACK, 0, STACK
        LOCFRAME PSTACK, 0, STACK
        LOCFRAME XSTACK, 14, STACK
        LOCFRAME IOVERLAY, 0, STATIC
        LOCFRAME DOVERLAY, 0, STATIC
        ARGFRAME ISTACK, 0, STACK
        ARGFRAME PSTACK, 0, STACK
        ARGFRAME XSTACK, 14, STACK
        ARGFRAME IOVERLAY, 0, STATIC
        ARGFRAME DOVERLAY, 0, STATIC
        FUNCALL GAPBondMgr_GetParameter, gapBondMgrBondTotal
        LOCFRAME ISTACK, 0, STACK
        LOCFRAME PSTACK, 0, STACK
        LOCFRAME XSTACK, 12, STACK
        LOCFRAME IOVERLAY, 0, STATIC
        LOCFRAME DOVERLAY, 0, STATIC
        ARGFRAME ISTACK, 0, STACK
        ARGFRAME PSTACK, 0, STACK
        ARGFRAME XSTACK, 12, STACK
        ARGFRAME IOVERLAY, 0, STATIC
        ARGFRAME DOVERLAY, 0, STATIC
        FUNCALL GAPBondMgr_GetParameter, GAP_GetParamValue
        LOCFRAME ISTACK, 0, STACK
        LOCFRAME PSTACK, 0, STACK
        LOCFRAME XSTACK, 12, STACK
        LOCFRAME IOVERLAY, 0, STATIC
        LOCFRAME DOVERLAY, 0, STATIC
        ARGFRAME ISTACK, 0, STACK
        ARGFRAME PSTACK, 0, STACK
        ARGFRAME XSTACK, 12, STACK
        ARGFRAME IOVERLAY, 0, STATIC
        ARGFRAME DOVERLAY, 0, STATIC
        REQUIRE ?V0
        REQUIRE ?V2
        REQUIRE ?V3
        MOV     A,#-0xc
        LCALL   ?BANKED_ENTER_XDATA
          CFI DPH0 load(1, XDATA, add(CFA_XSP16, literal(-1)))
          CFI DPL0 load(1, XDATA, add(CFA_XSP16, literal(-2)))
          CFI ?BRET_EXT load(1, XDATA, add(CFA_XSP16, literal(-3)))
          CFI ?RET_HIGH load(1, XDATA, add(CFA_XSP16, literal(-4)))
          CFI ?RET_LOW load(1, XDATA, add(CFA_XSP16, literal(-5)))
          CFI R7 load(1, XDATA, add(CFA_XSP16, literal(-6)))
          CFI V3 load(1, XDATA, add(CFA_XSP16, literal(-7)))
          CFI V2 load(1, XDATA, add(CFA_XSP16, literal(-8)))
          CFI V1 load(1, XDATA, add(CFA_XSP16, literal(-9)))
          CFI V0 load(1, XDATA, add(CFA_XSP16, literal(-10)))
          CFI VB load(1, XDATA, add(CFA_XSP16, literal(-11)))
          CFI R6 load(1, XDATA, add(CFA_XSP16, literal(-12)))
          CFI CFA_SP SP+0
          CFI CFA_XSP16 add(XSP16, 12)
        ; Saved register size: 12
        ; Auto size: 0
        MOV     A,R4
        MOV     R6,A
        MOV     A,R5
        MOV     R7,A
//  524   bStatus_t ret = SUCCESS;  // return value
        MOV     ?V0,#0x0
//  525 
//  526   switch ( param )
        MOV     ?V2,R2
        MOV     ?V3,R3
        MOV     R0,#?V2
        LCALL   ?US_SWITCH_DENSE
`?<Jumptable for GAPBondMgr_GetParameter>_0`:
        DATA
        DATA16
        DATA
        DATA16
        DW        1024
        DATA
        DATA8
        DATA
        DATA8
        DB        14
        DATA
        DATA16
        DATA
        DATA16
        DW        ??GAPBondMgr_GetParameter_0
        DATA
        DATA16
        DATA
        DATA16
        DW        ??GAPBondMgr_GetParameter_1
        DATA
        DATA16
        DATA
        DATA16
        DW        ??GAPBondMgr_GetParameter_2
        DATA
        DATA16
        DATA
        DATA16
        DW        ??GAPBondMgr_GetParameter_3
        DATA
        DATA16
        DATA
        DATA16
        DW        ??GAPBondMgr_GetParameter_4
        DATA
        DATA16
        DATA
        DATA16
        DW        ??GAPBondMgr_GetParameter_5
        DATA
        DATA16
        DATA
        DATA16
        DW        ??GAPBondMgr_GetParameter_6
        DATA
        DATA16
        DATA
        DATA16
        DW        ??GAPBondMgr_GetParameter_7
        DATA
        DATA16
        DATA
        DATA16
        DW        ??GAPBondMgr_GetParameter_8
        DATA
        DATA16
        DATA
        DATA16
        DW        ??GAPBondMgr_GetParameter_9
        DATA
        DATA16
        DATA
        DATA16
        DW        ??GAPBondMgr_GetParameter_0
        DATA
        DATA16
        DATA
        DATA16
        DW        ??GAPBondMgr_GetParameter_10
        DATA
        DATA16
        DATA
        DATA16
        DW        ??GAPBondMgr_GetParameter_11
        DATA
        DATA16
        DATA
        DATA16
        DW        ??GAPBondMgr_GetParameter_12
        DATA
        DATA16
        DATA
        DATA16
        DW        ??GAPBondMgr_GetParameter_13
        DATA
        DATA16
        DATA
        DATA16
        DW        ??GAPBondMgr_GetParameter_14
        CODE
//  527   {
//  528     case GAPBOND_PAIRING_MODE:
//  529       *((uint8*)pValue) = gapBond_PairingMode;
??GAPBondMgr_GetParameter_1:
        MOV     DPTR,#gapBond_PairingMode
        SJMP    ??GAPBondMgr_GetParameter_15
//  530       break;
//  531 
//  532     case GAPBOND_INITIATE_WAIT:
//  533       *((uint16*)pValue) = gapBond_InitiateWait;
??GAPBondMgr_GetParameter_2:
        MOV     DPTR,#gapBond_InitiateWait
        LCALL   ??Subroutine26_0 & 0xFFFF
??CrossCallReturnLabel_78:
        MOV     DPL,R6
        MOV     DPH,R7
        MOV     A,R0
        MOVX    @DPTR,A
        INC     DPTR
        MOV     A,R1
        SJMP    ??GAPBondMgr_GetParameter_16
//  534       break;
//  535 
//  536     case GAPBOND_MITM_PROTECTION:
//  537       *((uint8*)pValue) = gapBond_MITM;
??GAPBondMgr_GetParameter_3:
        MOV     DPTR,#gapBond_MITM
        SJMP    ??GAPBondMgr_GetParameter_15
//  538       break;
//  539 
//  540     case GAPBOND_IO_CAPABILITIES:
//  541       *((uint8*)pValue) = gapBond_IOCap;
??GAPBondMgr_GetParameter_4:
        MOV     DPTR,#gapBond_IOCap
        SJMP    ??GAPBondMgr_GetParameter_15
//  542       break;
//  543 
//  544     case GAPBOND_OOB_ENABLED:
//  545       *((uint8*)pValue) = gapBond_OOBDataFlag;
??GAPBondMgr_GetParameter_5:
        MOV     DPTR,#gapBond_OOBDataFlag
        SJMP    ??GAPBondMgr_GetParameter_15
//  546       break;
//  547 
//  548     case GAPBOND_OOB_DATA:
//  549       VOID osal_memcpy( pValue, gapBond_OOBData, KEYLEN ) ;
??GAPBondMgr_GetParameter_6:
        ; Setup parameters for call to function osal_memcpy
        MOV     ?V2,#0x10
        MOV     ?V3,#0x0
        MOV     R0,#?V2
        LCALL   ?PUSH_XSTACK_I_TWO
          CFI CFA_XSP16 add(XSP16, 14)
        MOV     R4,#gapBond_OOBData & 0xff
        MOV     R5,#(gapBond_OOBData >> 8) & 0xff
        MOV     A,R6
        MOV     R2,A
        MOV     A,R7
        MOV     R3,A
        LCALL   ??osal_memcpy?relay  ; Banked call to: osal_memcpy
        MOV     A,#0x2
        LCALL   ?DEALLOC_XSTACK8
          CFI CFA_XSP16 add(XSP16, 12)
//  550       break;
        SJMP    ??GAPBondMgr_GetParameter_17
//  551 
//  552     case GAPBOND_BONDING_ENABLED:
//  553       *((uint8*)pValue) = gapBond_Bonding;
??GAPBondMgr_GetParameter_7:
        MOV     DPTR,#gapBond_Bonding
        SJMP    ??GAPBondMgr_GetParameter_15
//  554       break;
//  555 
//  556     case GAPBOND_KEY_DIST_LIST:
//  557       *((uint8*)pValue) = gapBond_KeyDistList;
??GAPBondMgr_GetParameter_8:
        MOV     DPTR,#gapBond_KeyDistList
        SJMP    ??GAPBondMgr_GetParameter_15
//  558       break;
//  559 
//  560     case GAPBOND_DEFAULT_PASSCODE:
//  561       *((uint32*)pValue) = gapBond_Passcode;
??GAPBondMgr_GetParameter_9:
        MOV     DPTR,#gapBond_Passcode
        LCALL   ?XLOAD_R0123
        MOV     DPL,R6
        MOV     DPH,R7
        LCALL   ?XSTORE_R0123
//  562       break;
        SJMP    ??GAPBondMgr_GetParameter_17
//  563 
//  564     case GAPBOND_AUTO_FAIL_PAIRING:
//  565       *((uint8*)pValue) = gapBond_AutoFail;
??GAPBondMgr_GetParameter_10:
        MOV     DPTR,#gapBond_AutoFail
        SJMP    ??GAPBondMgr_GetParameter_15
//  566       break;
//  567 
//  568     case GAPBOND_AUTO_FAIL_REASON:
//  569       *((uint8*)pValue) = gapBond_AutoFailReason;
??GAPBondMgr_GetParameter_11:
        MOV     DPTR,#gapBond_AutoFailReason
        SJMP    ??GAPBondMgr_GetParameter_15
//  570       break;
//  571 
//  572     case GAPBOND_KEYSIZE:
//  573       *((uint8*)pValue) = gapBond_KeySize;
??GAPBondMgr_GetParameter_12:
        MOV     DPTR,#gapBond_KeySize
        SJMP    ??GAPBondMgr_GetParameter_15
//  574       break;
//  575 
//  576     case GAPBOND_AUTO_SYNC_WL:
//  577       *((uint8*)pValue) = autoSyncWhiteList;
??GAPBondMgr_GetParameter_13:
        MOV     DPTR,#autoSyncWhiteList
??GAPBondMgr_GetParameter_15:
        MOVX    A,@DPTR
        SJMP    ??GAPBondMgr_GetParameter_18
//  578       break;
//  579 
//  580     case GAPBOND_BOND_COUNT:
//  581       *((uint8*)pValue) = gapBondMgrBondTotal();
??GAPBondMgr_GetParameter_14:
        ; Setup parameters for call to function gapBondMgrBondTotal
        LCALL   ??gapBondMgrBondTotal?relay; Banked call to: gapBondMgrBondTotal
        MOV     A,R1
??GAPBondMgr_GetParameter_18:
        MOV     DPL,R6
        MOV     DPH,R7
        SJMP    ??GAPBondMgr_GetParameter_16
//  582       break;
//  583 
//  584     default:
//  585       // The param value isn't part of this profile, try the GAP.
//  586       if ( param < TGAP_PARAMID_MAX )
??GAPBondMgr_GetParameter_0:
        CLR     C
        MOV     A,R2
        SUBB    A,#0x27
        MOV     A,R3
        SUBB    A,#0x0
        JNC     ??GAPBondMgr_GetParameter_19
//  587       {
//  588         *((uint16*)pValue) = GAP_GetParamValue( param );
        ; Setup parameters for call to function GAP_GetParamValue
        LCALL   ??GAP_GetParamValue?relay; Banked call to: GAP_GetParamValue
        MOV     DPL,R6
        MOV     DPH,R7
        MOV     A,R2
        MOVX    @DPTR,A
        INC     DPTR
        MOV     A,R3
??GAPBondMgr_GetParameter_16:
        MOVX    @DPTR,A
        SJMP    ??GAPBondMgr_GetParameter_17
//  589       }
//  590       else
//  591       {
//  592         ret = INVALIDPARAMETER;
??GAPBondMgr_GetParameter_19:
        MOV     ?V0,#0x2
//  593       }
//  594       break;
//  595   }
//  596 
//  597   return ( ret );
??GAPBondMgr_GetParameter_17:
        MOV     R1,?V0
        LJMP    ??Subroutine30_0 & 0xFFFF
          CFI EndBlock cfiBlock7
//  598 }
//  599 
//  600 /*********************************************************************
//  601  * @brief   Notify the Bond Manager that a connection has been made.
//  602  *
//  603  * Public function defined in gapbondmgr.h.
//  604  */

        RSEG BANKED_CODE:CODE:NOROOT(0)
//  605 bStatus_t GAPBondMgr_LinkEst( uint8 addrType, uint8 *pDevAddr, uint16 connHandle, uint8 role )
GAPBondMgr_LinkEst:
          CFI Block cfiBlock8 Using cfiCommon0
          CFI Function GAPBondMgr_LinkEst
        CODE
//  606 {
        FUNCALL GAPBondMgr_LinkEst, GAPBondMgr_ResolveAddr
        LOCFRAME ISTACK, 0, STACK
        LOCFRAME PSTACK, 0, STACK
        LOCFRAME XSTACK, 53, STACK
        LOCFRAME IOVERLAY, 0, STATIC
        LOCFRAME DOVERLAY, 0, STATIC
        ARGFRAME ISTACK, 0, STACK
        ARGFRAME PSTACK, 0, STACK
        ARGFRAME XSTACK, 53, STACK
        ARGFRAME IOVERLAY, 0, STATIC
        ARGFRAME DOVERLAY, 0, STATIC
        FUNCALL GAPBondMgr_LinkEst, gapBondMgrGetStateFlags
        LOCFRAME ISTACK, 0, STACK
        LOCFRAME PSTACK, 0, STACK
        LOCFRAME XSTACK, 53, STACK
        LOCFRAME IOVERLAY, 0, STATIC
        LOCFRAME DOVERLAY, 0, STATIC
        ARGFRAME ISTACK, 0, STACK
        ARGFRAME PSTACK, 0, STACK
        ARGFRAME XSTACK, 53, STACK
        ARGFRAME IOVERLAY, 0, STATIC
        ARGFRAME DOVERLAY, 0, STATIC
        FUNCALL GAPBondMgr_LinkEst, gapBondMgrBondReq
        LOCFRAME ISTACK, 0, STACK
        LOCFRAME PSTACK, 0, STACK
        LOCFRAME XSTACK, 54, STACK
        LOCFRAME IOVERLAY, 0, STATIC
        LOCFRAME DOVERLAY, 0, STATIC
        ARGFRAME ISTACK, 0, STACK
        ARGFRAME PSTACK, 0, STACK
        ARGFRAME XSTACK, 54, STACK
        ARGFRAME IOVERLAY, 0, STATIC
        ARGFRAME DOVERLAY, 0, STATIC
        FUNCALL GAPBondMgr_LinkEst, osal_memset
        LOCFRAME ISTACK, 0, STACK
        LOCFRAME PSTACK, 0, STACK
        LOCFRAME XSTACK, 53, STACK
        LOCFRAME IOVERLAY, 0, STATIC
        LOCFRAME DOVERLAY, 0, STATIC
        ARGFRAME ISTACK, 0, STACK
        ARGFRAME PSTACK, 0, STACK
        ARGFRAME XSTACK, 53, STACK
        ARGFRAME IOVERLAY, 0, STATIC
        ARGFRAME DOVERLAY, 0, STATIC
        FUNCALL GAPBondMgr_LinkEst, osal_snv_read
        LOCFRAME ISTACK, 0, STACK
        LOCFRAME PSTACK, 0, STACK
        LOCFRAME XSTACK, 53, STACK
        LOCFRAME IOVERLAY, 0, STATIC
        LOCFRAME DOVERLAY, 0, STATIC
        ARGFRAME ISTACK, 0, STACK
        ARGFRAME PSTACK, 0, STACK
        ARGFRAME XSTACK, 53, STACK
        ARGFRAME IOVERLAY, 0, STATIC
        ARGFRAME DOVERLAY, 0, STATIC
        FUNCALL GAPBondMgr_LinkEst, osal_isbufset
        LOCFRAME ISTACK, 0, STACK
        LOCFRAME PSTACK, 0, STACK
        LOCFRAME XSTACK, 53, STACK
        LOCFRAME IOVERLAY, 0, STATIC
        LOCFRAME DOVERLAY, 0, STATIC
        ARGFRAME ISTACK, 0, STACK
        ARGFRAME PSTACK, 0, STACK
        ARGFRAME XSTACK, 53, STACK
        ARGFRAME IOVERLAY, 0, STATIC
        ARGFRAME DOVERLAY, 0, STATIC
        FUNCALL GAPBondMgr_LinkEst, osal_snv_read
        LOCFRAME ISTACK, 0, STACK
        LOCFRAME PSTACK, 0, STACK
        LOCFRAME XSTACK, 53, STACK
        LOCFRAME IOVERLAY, 0, STATIC
        LOCFRAME DOVERLAY, 0, STATIC
        ARGFRAME ISTACK, 0, STACK
        ARGFRAME PSTACK, 0, STACK
        ARGFRAME XSTACK, 53, STACK
        ARGFRAME IOVERLAY, 0, STATIC
        ARGFRAME DOVERLAY, 0, STATIC
        FUNCALL GAPBondMgr_LinkEst, GAP_Signable
        LOCFRAME ISTACK, 0, STACK
        LOCFRAME PSTACK, 0, STACK
        LOCFRAME XSTACK, 53, STACK
        LOCFRAME IOVERLAY, 0, STATIC
        LOCFRAME DOVERLAY, 0, STATIC
        ARGFRAME ISTACK, 0, STACK
        ARGFRAME PSTACK, 0, STACK
        ARGFRAME XSTACK, 53, STACK
        ARGFRAME IOVERLAY, 0, STATIC
        ARGFRAME DOVERLAY, 0, STATIC
        FUNCALL GAPBondMgr_LinkEst, osal_snv_read
        LOCFRAME ISTACK, 0, STACK
        LOCFRAME PSTACK, 0, STACK
        LOCFRAME XSTACK, 53, STACK
        LOCFRAME IOVERLAY, 0, STATIC
        LOCFRAME DOVERLAY, 0, STATIC
        ARGFRAME ISTACK, 0, STACK
        ARGFRAME PSTACK, 0, STACK
        ARGFRAME XSTACK, 53, STACK
        ARGFRAME IOVERLAY, 0, STATIC
        ARGFRAME DOVERLAY, 0, STATIC
        FUNCALL GAPBondMgr_LinkEst, gapBondMgrInvertCharCfgItem
        LOCFRAME ISTACK, 0, STACK
        LOCFRAME PSTACK, 0, STACK
        LOCFRAME XSTACK, 53, STACK
        LOCFRAME IOVERLAY, 0, STATIC
        LOCFRAME DOVERLAY, 0, STATIC
        ARGFRAME ISTACK, 0, STACK
        ARGFRAME PSTACK, 0, STACK
        ARGFRAME XSTACK, 53, STACK
        ARGFRAME IOVERLAY, 0, STATIC
        ARGFRAME DOVERLAY, 0, STATIC
        FUNCALL GAPBondMgr_LinkEst, GATTServApp_UpdateCharCfg
        LOCFRAME ISTACK, 0, STACK
        LOCFRAME PSTACK, 0, STACK
        LOCFRAME XSTACK, 55, STACK
        LOCFRAME IOVERLAY, 0, STATIC
        LOCFRAME DOVERLAY, 0, STATIC
        ARGFRAME ISTACK, 0, STACK
        ARGFRAME PSTACK, 0, STACK
        ARGFRAME XSTACK, 55, STACK
        ARGFRAME IOVERLAY, 0, STATIC
        ARGFRAME DOVERLAY, 0, STATIC
        FUNCALL GAPBondMgr_LinkEst, GATTServApp_SendServiceChangedInd
        LOCFRAME ISTACK, 0, STACK
        LOCFRAME PSTACK, 0, STACK
        LOCFRAME XSTACK, 53, STACK
        LOCFRAME IOVERLAY, 0, STATIC
        LOCFRAME DOVERLAY, 0, STATIC
        ARGFRAME ISTACK, 0, STACK
        ARGFRAME PSTACK, 0, STACK
        ARGFRAME XSTACK, 53, STACK
        ARGFRAME IOVERLAY, 0, STATIC
        ARGFRAME DOVERLAY, 0, STATIC
        FUNCALL GAPBondMgr_LinkEst, gapBondMgrAuthenticate
        LOCFRAME ISTACK, 0, STACK
        LOCFRAME PSTACK, 0, STACK
        LOCFRAME XSTACK, 53, STACK
        LOCFRAME IOVERLAY, 0, STATIC
        LOCFRAME DOVERLAY, 0, STATIC
        ARGFRAME ISTACK, 0, STACK
        ARGFRAME PSTACK, 0, STACK
        ARGFRAME XSTACK, 53, STACK
        ARGFRAME IOVERLAY, 0, STATIC
        ARGFRAME DOVERLAY, 0, STATIC
        FUNCALL GAPBondMgr_LinkEst, GAP_SendSlaveSecurityRequest
        LOCFRAME ISTACK, 0, STACK
        LOCFRAME PSTACK, 0, STACK
        LOCFRAME XSTACK, 53, STACK
        LOCFRAME IOVERLAY, 0, STATIC
        LOCFRAME DOVERLAY, 0, STATIC
        ARGFRAME ISTACK, 0, STACK
        ARGFRAME PSTACK, 0, STACK
        ARGFRAME XSTACK, 53, STACK
        ARGFRAME IOVERLAY, 0, STATIC
        ARGFRAME DOVERLAY, 0, STATIC
        REQUIRE ?V0
        REQUIRE ?V1
        REQUIRE ?V2
        REQUIRE ?V3
        REQUIRE ?V4
        REQUIRE ?V5
        REQUIRE ?V6
        MOV     A,#-0xf
        LCALL   ?BANKED_ENTER_XDATA
          CFI DPH0 load(1, XDATA, add(CFA_XSP16, literal(-1)))
          CFI DPL0 load(1, XDATA, add(CFA_XSP16, literal(-2)))
          CFI ?BRET_EXT load(1, XDATA, add(CFA_XSP16, literal(-3)))
          CFI ?RET_HIGH load(1, XDATA, add(CFA_XSP16, literal(-4)))
          CFI ?RET_LOW load(1, XDATA, add(CFA_XSP16, literal(-5)))
          CFI R7 load(1, XDATA, add(CFA_XSP16, literal(-6)))
          CFI V6 load(1, XDATA, add(CFA_XSP16, literal(-7)))
          CFI V5 load(1, XDATA, add(CFA_XSP16, literal(-8)))
          CFI V4 load(1, XDATA, add(CFA_XSP16, literal(-9)))
          CFI V3 load(1, XDATA, add(CFA_XSP16, literal(-10)))
          CFI V2 load(1, XDATA, add(CFA_XSP16, literal(-11)))
          CFI V1 load(1, XDATA, add(CFA_XSP16, literal(-12)))
          CFI V0 load(1, XDATA, add(CFA_XSP16, literal(-13)))
          CFI VB load(1, XDATA, add(CFA_XSP16, literal(-14)))
          CFI R6 load(1, XDATA, add(CFA_XSP16, literal(-15)))
          CFI CFA_SP SP+0
          CFI CFA_XSP16 add(XSP16, 15)
        ; Saved register size: 15
        ; Auto size: 38
        MOV     A,#-0x26
        LCALL   ?ALLOC_XSTACK8
          CFI CFA_XSP16 add(XSP16, 53)
        MOV     ?V6,R1
        MOV     A,R4
        MOV     R6,A
        MOV     A,R5
        MOV     R7,A
//  607   uint8 idx;                          // NV Index
//  608   uint8 publicAddr[B_ADDR_LEN]        // Place to put the public address
//  609       = {0, 0, 0, 0, 0, 0};
        MOV     DPTR,#`?<Constant {0, 0, 0, 0, 0, 0}>`
        MOV     A,#0x20
        LCALL   ?XSTACK_DISP102_8
        MOV     A,#0x6
        LCALL   ?MOVE_LONG8_XDATA_XDATA
//  610 
//  611   idx = GAPBondMgr_ResolveAddr( addrType, pDevAddr, publicAddr );
        ; Setup parameters for call to function GAPBondMgr_ResolveAddr
        MOV     A,#0x20
        LCALL   ?XSTACK_DISP102_8
        LCALL   ??GAPBondMgr_ResolveAddr?relay; Banked call to: GAPBondMgr_ResolveAddr
        MOV     A,R1
        MOV     ?V0,A
        MOV     A,#0x35
        LCALL   ?XSTACK_DISP0_8
        MOVX    A,@DPTR
        MOV     ?V3,A
//  612   if ( idx < GAP_BONDINGS_MAX )
        MOV     A,R1
        CLR     C
        SUBB    A,#0xa
        JC      $+5
        LJMP    ??GAPBondMgr_LinkEst_0 & 0xFFFF
//  613   {
//  614     uint8 stateFlags = gapBondMgrGetStateFlags( idx );
        ; Setup parameters for call to function gapBondMgrGetStateFlags
        LCALL   ??gapBondMgrGetStateFlags?relay; Banked call to: gapBondMgrGetStateFlags
        MOV     A,R1
        MOV     ?V2,A
//  615     smSigningInfo_t signingInfo;
//  616     gapBondCharCfg_t charCfg[GAP_CHAR_CFG_MAX]; // Space to read a char cfg record from NV
//  617 
//  618     // On peripheral, load the key information for the bonding
//  619     // On central and initiaiting security, load key to initiate encyption
//  620     gapBondMgrBondReq( connHandle, idx, stateFlags, role,
//  621                        ((gapBond_PairingMode == GAPBOND_PAIRING_MODE_INITIATE ) ? TRUE : FALSE) );
        MOV     DPTR,#gapBond_PairingMode
        MOVX    A,@DPTR
        XRL     A,#0x2
        JNZ     ??GAPBondMgr_LinkEst_1
        MOV     A,#0x1
        SJMP    ??GAPBondMgr_LinkEst_2
??GAPBondMgr_LinkEst_1:
        CLR     A
??GAPBondMgr_LinkEst_2:
        ; Setup parameters for call to function gapBondMgrBondReq
        MOV     ?V1,A
        MOV     R0,#?V1
        LCALL   ?PUSH_XSTACK_I_ONE
          CFI CFA_XSP16 add(XSP16, 54)
        MOV     R5,?V3
        MOV     R4,?V2
        MOV     R1,?V0
        MOV     A,R6
        MOV     R2,A
        MOV     A,R7
        MOV     R3,A
        LCALL   ??gapBondMgrBondReq?relay; Banked call to: gapBondMgrBondReq
        MOV     A,#0x1
        LCALL   ?DEALLOC_XSTACK8
          CFI CFA_XSP16 add(XSP16, 53)
//  622 
//  623     // Load the Signing Key
//  624     VOID osal_memset( &signingInfo, 0, sizeof ( smSigningInfo_t ) );
        ; Setup parameters for call to function osal_memset
        MOV     R4,#0x14
        MOV     R5,#0x0
        MOV     R1,#0x0
        MOV     A,#0xc
        LCALL   ?XSTACK_DISP101_8
        LCALL   ??osal_memset?relay  ; Banked call to: osal_memset
//  625     if ( osal_snv_read( devCSRKNvID(idx), KEYLEN, signingInfo.srk ) == SUCCESS )
        MOV     B,#0x6
        MOV     A,?V0
        MUL     AB
        MOV     ?V1,A
        ; Setup parameters for call to function osal_snv_read
        MOV     A,#0xc
        LCALL   ?XSTACK_DISP102_8
        MOV     R2,#0x10
        MOV     A,#0x24
        ADD     A,?V1
        MOV     R1,A
        LCALL   ??osal_snv_read?relay; Banked call to: osal_snv_read
        MOV     A,R1
        JNZ     ??GAPBondMgr_LinkEst_3
//  626     {
//  627       if ( osal_isbufset( signingInfo.srk, 0xFF, KEYLEN ) == FALSE )
        ; Setup parameters for call to function osal_isbufset
        MOV     R4,#0x10
        MOV     R1,#-0x1
        MOV     A,#0xc
        LCALL   ?XSTACK_DISP101_8
        LCALL   ??osal_isbufset?relay; Banked call to: osal_isbufset
        MOV     A,R1
        JNZ     ??GAPBondMgr_LinkEst_3
//  628       {
//  629         // Load the signing information for this connection
//  630         VOID osal_snv_read( devSignCounterNvID(idx), sizeof ( uint32 ), &(signingInfo.signCounter) );
        ; Setup parameters for call to function osal_snv_read
        MOV     A,#0x1c
        LCALL   ?XSTACK_DISP0_8
        MOV     R4,DPL
        MOV     R5,DPH
        MOV     R2,#0x4
        MOV     A,#0x25
        ADD     A,?V1
        MOV     R1,A
        LCALL   ??osal_snv_read?relay; Banked call to: osal_snv_read
//  631         VOID GAP_Signable( connHandle,
//  632                           ((stateFlags & GAP_BONDED_STATE_AUTHENTICATED) ? TRUE : FALSE),
//  633                           &signingInfo );
        ; Setup parameters for call to function GAP_Signable
        MOV     A,#0xc
        LCALL   ?XSTACK_DISP102_8
        MOV     A,?V2
        MOV     C,0xE0 /* A   */.0
        CLR     A
        RLC     A
        MOV     R1,A
        MOV     A,R6
        MOV     R2,A
        MOV     A,R7
        MOV     R3,A
        LCALL   ??GAP_Signable?relay ; Banked call to: GAP_Signable
//  634       }
//  635     }
//  636 
//  637     // Load the characteristic configuration
//  638     if ( osal_snv_read( gattCfgNvID(idx), sizeof ( charCfg ), charCfg ) == SUCCESS )
??GAPBondMgr_LinkEst_3:
        ; Setup parameters for call to function osal_snv_read
        MOV     R4,?XSP + 0
        MOV     R5,?XSP + 1
        MOV     R2,#0xc
        MOV     A,#0x70
        ADD     A,?V0
        MOV     R1,A
        LCALL   ??osal_snv_read?relay; Banked call to: osal_snv_read
        MOV     A,R1
        JNZ     ??GAPBondMgr_LinkEst_4
//  639     {
//  640       gapBondMgrInvertCharCfgItem( charCfg );
        ; Setup parameters for call to function gapBondMgrInvertCharCfgItem
        MOV     R2,?XSP + 0
        MOV     R3,?XSP + 1
        LCALL   ??gapBondMgrInvertCharCfgItem?relay; Banked call to: gapBondMgrInvertCharCfgItem
//  641 
//  642       for ( uint8 i = 0; i < GAP_CHAR_CFG_MAX; i++ )
        MOV     ?V0,#0x0
//  643       {
//  644         gapBondCharCfg_t *pItem = &(charCfg[i]);
??GAPBondMgr_LinkEst_5:
        MOV     A,?V0
        MOV     B,#0x3
        MUL     AB
        MOV     R0,A
        MOV     R1,B
        MOV     DPL,?XSP + 0
        MOV     DPH,?XSP + 1
        MOV     A,DPL
        ADD     A,R0
        MOV     R0,A
        MOV     A,DPH
        LCALL   ?Subroutine18 & 0xFFFF
//  645 
//  646         // Apply the characteristic configuration for this connection
//  647         if ( pItem->attrHandle != GATT_INVALID_HANDLE )
??CrossCallReturnLabel_27:
        LCALL   ??Subroutine25_0 & 0xFFFF
??CrossCallReturnLabel_40:
        JZ      ??GAPBondMgr_LinkEst_6
//  648         {
//  649           VOID GATTServApp_UpdateCharCfg( connHandle, pItem->attrHandle,
//  650                                           (uint16)(pItem->value) );
        ; Setup parameters for call to function GATTServApp_UpdateCharCfg
        MOV     DPL,R0
        MOV     DPH,R1
        INC     DPTR
        INC     DPTR
        MOVX    A,@DPTR
        MOV     ?V4,A
        MOV     ?V5,#0x0
        MOV     R0,#?V4
        LCALL   ?PUSH_XSTACK_I_TWO
          CFI CFA_XSP16 add(XSP16, 55)
        MOV     A,R6
        MOV     R2,A
        MOV     A,R7
        MOV     R3,A
        LCALL   ??GATTServApp_UpdateCharCfg?relay; Banked call to: GATTServApp_UpdateCharCfg
        MOV     A,#0x2
        LCALL   ?DEALLOC_XSTACK8
          CFI CFA_XSP16 add(XSP16, 53)
//  651         }
//  652       }
??GAPBondMgr_LinkEst_6:
        INC     ?V0
        MOV     A,?V0
        CLR     C
        SUBB    A,#0x4
        JC      ??GAPBondMgr_LinkEst_5
//  653     }
//  654 
//  655     // Has there been a service change?
//  656     if ( stateFlags & GAP_BONDED_STATE_SERVICE_CHANGED )
??GAPBondMgr_LinkEst_4:
        MOV     A,?V2
        MOV     C,0xE0 /* A   */.1
        JNC     ??GAPBondMgr_LinkEst_7
//  657     {
//  658       VOID GATTServApp_SendServiceChangedInd( connHandle, gapBondMgr_TaskID );
        ; Setup parameters for call to function GATTServApp_SendServiceChangedInd
        MOV     DPTR,#gapBondMgr_TaskID
        MOVX    A,@DPTR
        MOV     R1,A
        MOV     A,R6
        MOV     R2,A
        MOV     A,R7
        MOV     R3,A
        LCALL   ??GATTServApp_SendServiceChangedInd?relay; Banked call to: GATTServApp_SendServiceChangedInd
//  659     }
//  660   }
//  661 #if ( HOST_CONFIG & CENTRAL_CFG )
//  662   else if ( role == GAP_PROFILE_CENTRAL &&
//  663             gapBond_PairingMode == GAPBOND_PAIRING_MODE_INITIATE )
//  664   {
//  665     // If Central and initiating and not bonded, then initiate pairing
//  666     gapBondMgrAuthenticate( connHandle, addrType, NULL );
//  667 
//  668     // Call app state callback
//  669     if ( pGapBondCB && pGapBondCB->pairStateCB )
//  670     {
//  671       pGapBondCB->pairStateCB( connHandle, GAPBOND_PAIRING_STATE_STARTED, SUCCESS );
//  672     }
//  673   }
//  674 #endif
//  675 
//  676 #if ( HOST_CONFIG & PERIPHERAL_CFG )
//  677   // If Peripheral and initiating, send a slave security request to
//  678   // initiate either pairing or encryption
//  679   if ( role == GAP_PROFILE_PERIPHERAL &&
//  680        gapBond_PairingMode == GAPBOND_PAIRING_MODE_INITIATE )
??GAPBondMgr_LinkEst_7:
        MOV     A,#0x4
        XRL     A,?V3
        JNZ     ??GAPBondMgr_LinkEst_8
        MOV     DPTR,#gapBond_PairingMode
        MOVX    A,@DPTR
        XRL     A,#0x2
        JNZ     ??GAPBondMgr_LinkEst_8
//  681   {
//  682     gapBondMgrSlaveSecurityReq( connHandle );
        MOV     R2,#0x0
        MOV     DPTR,#gapBond_Bonding
        MOVX    A,@DPTR
        JZ      ??GAPBondMgr_LinkEst_9
        INC     R2
??GAPBondMgr_LinkEst_9:
        MOV     DPTR,#gapBond_MITM
        MOVX    A,@DPTR
        JZ      ??GAPBondMgr_LinkEst_10
        MOV     R0,#0x4
        SJMP    ??GAPBondMgr_LinkEst_11
??GAPBondMgr_LinkEst_0:
        MOV     A,#0x8
        XRL     A,?V3
        JNZ     ??GAPBondMgr_LinkEst_7
        MOV     DPTR,#gapBond_PairingMode
        MOVX    A,@DPTR
        XRL     A,#0x2
        JNZ     ??GAPBondMgr_LinkEst_8
        ; Setup parameters for call to function gapBondMgrAuthenticate
        MOV     R4,#0x0
        MOV     R5,#0x0
        MOV     R1,?V6
        MOV     A,R6
        MOV     R2,A
        MOV     A,R7
        MOV     R3,A
        LCALL   ??gapBondMgrAuthenticate?relay; Banked call to: gapBondMgrAuthenticate
        LCALL   ?Subroutine7 & 0xFFFF
??CrossCallReturnLabel_71:
        JZ      ??GAPBondMgr_LinkEst_8
        LCALL   ?Subroutine12 & 0xFFFF
??CrossCallReturnLabel_5:
        MOV     DPL,R0
        MOV     DPH,R1
        MOV     A,DPL
        ORL     A,DPH
        JZ      ??GAPBondMgr_LinkEst_8
        ; Setup parameters for indirect call
        MOV     R4,#0x0
        MOV     R1,#0x0
        MOV     A,R6
        MOV     R2,A
        MOV     A,R7
        MOV     R3,A
        LCALL   ?CALL_IND
        SJMP    ??GAPBondMgr_LinkEst_8
??GAPBondMgr_LinkEst_10:
        MOV     R0,#0x0
??GAPBondMgr_LinkEst_11:
        ; Setup parameters for call to function GAP_SendSlaveSecurityRequest
        MOV     A,R0
        ORL     A,R2
        MOV     R1,A
        MOV     A,R6
        MOV     R2,A
        MOV     A,R7
        MOV     R3,A
        LCALL   ??GAP_SendSlaveSecurityRequest?relay; Banked call to: GAP_SendSlaveSecurityRequest
//  683   }
//  684 #endif
//  685 
//  686   return ( SUCCESS );
??GAPBondMgr_LinkEst_8:
        MOV     R1,#0x0
        MOV     A,#0x26
          CFI EndBlock cfiBlock8
        REQUIRE ?Subroutine2
        ; // Fall through to label ?Subroutine2
//  687 }

        RSEG BANKED_CODE:CODE:NOROOT(0)
?Subroutine2:
          CFI Block cfiBlock9 Using cfiCommon0
          CFI NoFunction
          CFI CFA_SP SP+0
          CFI CFA_XSP16 add(XSP16, 53)
          CFI VB load(1, XDATA, add(CFA_XSP16, literal(-14)))
          CFI DPL0 load(1, XDATA, add(CFA_XSP16, literal(-2)))
          CFI DPH0 load(1, XDATA, add(CFA_XSP16, literal(-1)))
          CFI R6 load(1, XDATA, add(CFA_XSP16, literal(-15)))
          CFI R7 load(1, XDATA, add(CFA_XSP16, literal(-6)))
          CFI V0 load(1, XDATA, add(CFA_XSP16, literal(-13)))
          CFI V1 load(1, XDATA, add(CFA_XSP16, literal(-12)))
          CFI V2 load(1, XDATA, add(CFA_XSP16, literal(-11)))
          CFI V3 load(1, XDATA, add(CFA_XSP16, literal(-10)))
          CFI V4 load(1, XDATA, add(CFA_XSP16, literal(-9)))
          CFI V5 load(1, XDATA, add(CFA_XSP16, literal(-8)))
          CFI V6 load(1, XDATA, add(CFA_XSP16, literal(-7)))
          CFI ?BRET_EXT load(1, XDATA, add(CFA_XSP16, literal(-3)))
          CFI ?RET_HIGH load(1, XDATA, add(CFA_XSP16, literal(-4)))
          CFI ?RET_LOW load(1, XDATA, add(CFA_XSP16, literal(-5)))
          CFI Invalid
        LCALL   ?DEALLOC_XSTACK8
          CFI CFA_XSP16 add(XSP16, 15)
          CFI Valid
        MOV     R7,#0x7
        LJMP    ?BANKED_LEAVE_XDATA
          CFI EndBlock cfiBlock9
//  688 
//  689 /*********************************************************************
//  690  * @brief   Resolve an address from bonding information.
//  691  *
//  692  * Public function defined in gapbondmgr.h.
//  693  */

        RSEG BANKED_CODE:CODE:NOROOT(0)
//  694 uint8 GAPBondMgr_ResolveAddr( uint8 addrType, uint8 *pDevAddr, uint8 *pResolvedAddr )
GAPBondMgr_ResolveAddr:
          CFI Block cfiBlock10 Using cfiCommon0
          CFI Function GAPBondMgr_ResolveAddr
        CODE
//  695 {
        FUNCALL GAPBondMgr_ResolveAddr, gapBondMgrFindAddr
        LOCFRAME ISTACK, 0, STACK
        LOCFRAME PSTACK, 0, STACK
        LOCFRAME XSTACK, 31, STACK
        LOCFRAME IOVERLAY, 0, STATIC
        LOCFRAME DOVERLAY, 0, STATIC
        ARGFRAME ISTACK, 0, STACK
        ARGFRAME PSTACK, 0, STACK
        ARGFRAME XSTACK, 31, STACK
        ARGFRAME IOVERLAY, 0, STATIC
        ARGFRAME DOVERLAY, 0, STATIC
        FUNCALL GAPBondMgr_ResolveAddr, osal_memcpy
        LOCFRAME ISTACK, 0, STACK
        LOCFRAME PSTACK, 0, STACK
        LOCFRAME XSTACK, 33, STACK
        LOCFRAME IOVERLAY, 0, STATIC
        LOCFRAME DOVERLAY, 0, STATIC
        ARGFRAME ISTACK, 0, STACK
        ARGFRAME PSTACK, 0, STACK
        ARGFRAME XSTACK, 33, STACK
        ARGFRAME IOVERLAY, 0, STATIC
        ARGFRAME DOVERLAY, 0, STATIC
        FUNCALL GAPBondMgr_ResolveAddr, osal_memcmp
        LOCFRAME ISTACK, 0, STACK
        LOCFRAME PSTACK, 0, STACK
        LOCFRAME XSTACK, 33, STACK
        LOCFRAME IOVERLAY, 0, STATIC
        LOCFRAME DOVERLAY, 0, STATIC
        ARGFRAME ISTACK, 0, STACK
        ARGFRAME PSTACK, 0, STACK
        ARGFRAME XSTACK, 33, STACK
        ARGFRAME IOVERLAY, 0, STATIC
        ARGFRAME DOVERLAY, 0, STATIC
        FUNCALL GAPBondMgr_ResolveAddr, osal_snv_read
        LOCFRAME ISTACK, 0, STACK
        LOCFRAME PSTACK, 0, STACK
        LOCFRAME XSTACK, 31, STACK
        LOCFRAME IOVERLAY, 0, STATIC
        LOCFRAME DOVERLAY, 0, STATIC
        ARGFRAME ISTACK, 0, STACK
        ARGFRAME PSTACK, 0, STACK
        ARGFRAME XSTACK, 31, STACK
        ARGFRAME IOVERLAY, 0, STATIC
        ARGFRAME DOVERLAY, 0, STATIC
        FUNCALL GAPBondMgr_ResolveAddr, osal_isbufset
        LOCFRAME ISTACK, 0, STACK
        LOCFRAME PSTACK, 0, STACK
        LOCFRAME XSTACK, 31, STACK
        LOCFRAME IOVERLAY, 0, STATIC
        LOCFRAME DOVERLAY, 0, STATIC
        ARGFRAME ISTACK, 0, STACK
        ARGFRAME PSTACK, 0, STACK
        ARGFRAME XSTACK, 31, STACK
        ARGFRAME IOVERLAY, 0, STATIC
        ARGFRAME DOVERLAY, 0, STATIC
        FUNCALL GAPBondMgr_ResolveAddr, GAP_ResolvePrivateAddr
        LOCFRAME ISTACK, 0, STACK
        LOCFRAME PSTACK, 0, STACK
        LOCFRAME XSTACK, 31, STACK
        LOCFRAME IOVERLAY, 0, STATIC
        LOCFRAME DOVERLAY, 0, STATIC
        ARGFRAME ISTACK, 0, STACK
        ARGFRAME PSTACK, 0, STACK
        ARGFRAME XSTACK, 31, STACK
        ARGFRAME IOVERLAY, 0, STATIC
        ARGFRAME DOVERLAY, 0, STATIC
        FUNCALL GAPBondMgr_ResolveAddr, gapBondMgrGetPublicAddr
        LOCFRAME ISTACK, 0, STACK
        LOCFRAME PSTACK, 0, STACK
        LOCFRAME XSTACK, 31, STACK
        LOCFRAME IOVERLAY, 0, STATIC
        LOCFRAME DOVERLAY, 0, STATIC
        ARGFRAME ISTACK, 0, STACK
        ARGFRAME PSTACK, 0, STACK
        ARGFRAME XSTACK, 31, STACK
        ARGFRAME IOVERLAY, 0, STATIC
        ARGFRAME DOVERLAY, 0, STATIC
        REQUIRE ?V0
        REQUIRE ?V1
        REQUIRE ?V2
        REQUIRE ?V3
        REQUIRE ?V4
        REQUIRE ?V5
        REQUIRE ?V6
        MOV     A,#-0xf
        LCALL   ?BANKED_ENTER_XDATA
          CFI DPH0 load(1, XDATA, add(CFA_XSP16, literal(-1)))
          CFI DPL0 load(1, XDATA, add(CFA_XSP16, literal(-2)))
          CFI ?BRET_EXT load(1, XDATA, add(CFA_XSP16, literal(-3)))
          CFI ?RET_HIGH load(1, XDATA, add(CFA_XSP16, literal(-4)))
          CFI ?RET_LOW load(1, XDATA, add(CFA_XSP16, literal(-5)))
          CFI R7 load(1, XDATA, add(CFA_XSP16, literal(-6)))
          CFI V6 load(1, XDATA, add(CFA_XSP16, literal(-7)))
          CFI V5 load(1, XDATA, add(CFA_XSP16, literal(-8)))
          CFI V4 load(1, XDATA, add(CFA_XSP16, literal(-9)))
          CFI V3 load(1, XDATA, add(CFA_XSP16, literal(-10)))
          CFI V2 load(1, XDATA, add(CFA_XSP16, literal(-11)))
          CFI V1 load(1, XDATA, add(CFA_XSP16, literal(-12)))
          CFI V0 load(1, XDATA, add(CFA_XSP16, literal(-13)))
          CFI VB load(1, XDATA, add(CFA_XSP16, literal(-14)))
          CFI R6 load(1, XDATA, add(CFA_XSP16, literal(-15)))
          CFI CFA_SP SP+0
          CFI CFA_XSP16 add(XSP16, 15)
        ; Saved register size: 15
        ; Auto size: 16
        MOV     A,#-0x10
        LCALL   ?ALLOC_XSTACK8
          CFI CFA_XSP16 add(XSP16, 31)
        MOV     ?V4,R2
        MOV     ?V5,R3
        MOV     ?V0,R4
        MOV     ?V1,R5
//  696   uint8 idx = GAP_BONDINGS_MAX;
        MOV     R6,#0xa
//  697 
//  698   switch ( addrType )
        MOV     A,R1
        JZ      ??GAPBondMgr_ResolveAddr_0
        DEC     A
        JZ      ??GAPBondMgr_ResolveAddr_0
        DEC     A
        JZ      ??GAPBondMgr_ResolveAddr_1
        DEC     A
        JZ      ??GAPBondMgr_ResolveAddr_2
        LJMP    ??GAPBondMgr_ResolveAddr_3 & 0xFFFF
//  699   {
//  700     case ADDRTYPE_PUBLIC:
//  701     case ADDRTYPE_STATIC:
//  702       idx = gapBondMgrFindAddr( pDevAddr );
??GAPBondMgr_ResolveAddr_0:
        ; Setup parameters for call to function gapBondMgrFindAddr
        LCALL   ??gapBondMgrFindAddr?relay; Banked call to: gapBondMgrFindAddr
        MOV     A,R1
        MOV     R6,A
//  703       if ( (idx < GAP_BONDINGS_MAX) && (pResolvedAddr) )
        CLR     C
        SUBB    A,#0xa
        JC      $+5
        LJMP    ??GAPBondMgr_ResolveAddr_3 & 0xFFFF
        MOV     A,?V0
        ORL     A,?V1
        JNZ     $+5
        LJMP    ??GAPBondMgr_ResolveAddr_3 & 0xFFFF
//  704       {
//  705         VOID osal_memcpy( pResolvedAddr, pDevAddr, B_ADDR_LEN );
        ; Setup parameters for call to function osal_memcpy
        MOV     ?V2,#0x6
        MOV     ?V3,#0x0
        MOV     R0,#?V2
        LCALL   ?PUSH_XSTACK_I_TWO
          CFI CFA_XSP16 add(XSP16, 33)
        MOV     R4,?V4
        MOV     R5,?V5
        MOV     R2,?V0
        MOV     R3,?V1
        LCALL   ??osal_memcpy?relay  ; Banked call to: osal_memcpy
        MOV     A,#0x2
        LCALL   ?DEALLOC_XSTACK8
          CFI CFA_XSP16 add(XSP16, 31)
        LJMP    ??GAPBondMgr_ResolveAddr_3 & 0xFFFF
//  706       }
//  707       break;
//  708 
//  709     case ADDRTYPE_PRIVATE_NONRESOLVE:
//  710       // This could be a reconnection address
//  711       idx = gapBondMgrFindReconnectAddr( pDevAddr );
??GAPBondMgr_ResolveAddr_1:
        MOV     R7,#0x0
??GAPBondMgr_ResolveAddr_4:
        ; Setup parameters for call to function osal_memcmp
        MOV     ?V2,#0x6
        MOV     ?V3,#0x0
        MOV     R0,#?V2
        LCALL   ?PUSH_XSTACK_I_TWO
          CFI CFA_XSP16 add(XSP16, 33)
        MOV     R4,?V4
        MOV     R5,?V5
        MOV     A,R7
        MOV     B,#0xe
        MUL     AB
        MOV     R0,A
        MOV     R1,B
        MOV     A,#(bonds + 6) & 0xff
        ADD     A,R0
        MOV     R2,A
        MOV     A,#((bonds + 6) >> 8) & 0xff
        ADDC    A,R1
        MOV     R3,A
        LCALL   ??osal_memcmp?relay  ; Banked call to: osal_memcmp
        MOV     A,#0x2
        LCALL   ?DEALLOC_XSTACK8
          CFI CFA_XSP16 add(XSP16, 31)
        MOV     A,R1
        JNZ     ??GAPBondMgr_ResolveAddr_5
        INC     R7
        MOV     A,R7
        CLR     C
        SUBB    A,#0xa
        JNC     ??GAPBondMgr_ResolveAddr_3
        SJMP    ??GAPBondMgr_ResolveAddr_4
??GAPBondMgr_ResolveAddr_5:
        MOV     A,R7
        MOV     R6,A
//  712       if ( (idx < GAP_BONDINGS_MAX) && (pResolvedAddr) )
        CLR     C
        SUBB    A,#0xa
        JNC     ??GAPBondMgr_ResolveAddr_3
        SJMP    ??GAPBondMgr_ResolveAddr_6
//  713       {
//  714         VOID gapBondMgrGetPublicAddr( idx, pResolvedAddr );
//  715       }
//  716       break;
//  717 
//  718     case ADDRTYPE_PRIVATE_RESOLVE:
//  719       // Master's don't use Private Resolvable addresses but just in case
//  720       idx = gapBondMgrResolvePrivateAddr( pDevAddr );
??GAPBondMgr_ResolveAddr_2:
        MOV     R7,#0x0
??GAPBondMgr_ResolveAddr_7:
        ; Setup parameters for call to function osal_snv_read
        MOV     R4,?XSP + 0
        MOV     R5,?XSP + 1
        MOV     R2,#0x10
        MOV     B,#0x6
        MOV     A,R7
        MUL     AB
        ADD     A,#0x23
        MOV     R1,A
        LCALL   ??osal_snv_read?relay; Banked call to: osal_snv_read
        MOV     A,R1
        JNZ     ??GAPBondMgr_ResolveAddr_8
        ; Setup parameters for call to function osal_isbufset
        MOV     R4,#0x10
        MOV     R1,#-0x1
        MOV     R2,?XSP + 0
        MOV     R3,?XSP + 1
        LCALL   ??osal_isbufset?relay; Banked call to: osal_isbufset
        MOV     A,R1
        JNZ     ??GAPBondMgr_ResolveAddr_8
        ; Setup parameters for call to function GAP_ResolvePrivateAddr
        MOV     R4,?V4
        MOV     R5,?V5
        MOV     R2,?XSP + 0
        MOV     R3,?XSP + 1
        LCALL   ??GAP_ResolvePrivateAddr?relay; Banked call to: GAP_ResolvePrivateAddr
        MOV     A,R1
        JZ      ??GAPBondMgr_ResolveAddr_9
??GAPBondMgr_ResolveAddr_8:
        INC     R7
        MOV     A,R7
        CLR     C
        SUBB    A,#0xa
        JNC     ??GAPBondMgr_ResolveAddr_3
        SJMP    ??GAPBondMgr_ResolveAddr_7
??GAPBondMgr_ResolveAddr_9:
        MOV     A,R7
        MOV     R6,A
//  721       if ( (idx < GAP_BONDINGS_MAX) && (pResolvedAddr) )
        CLR     C
        SUBB    A,#0xa
        JNC     ??GAPBondMgr_ResolveAddr_3
??GAPBondMgr_ResolveAddr_6:
        MOV     A,?V0
        ORL     A,?V1
        JZ      ??GAPBondMgr_ResolveAddr_3
//  722       {
//  723         VOID gapBondMgrGetPublicAddr( idx, pResolvedAddr );
        ; Setup parameters for call to function gapBondMgrGetPublicAddr
        MOV     R2,?V0
        MOV     R3,?V1
        MOV     A,R6
        MOV     R1,A
        LCALL   ??gapBondMgrGetPublicAddr?relay; Banked call to: gapBondMgrGetPublicAddr
//  724       }
//  725       break;
//  726 
//  727     default:
//  728       break;
//  729   }
//  730 
//  731   return ( idx );
??GAPBondMgr_ResolveAddr_3:
        MOV     A,R6
        MOV     R1,A
        MOV     A,#0x10
        LJMP    ?Subroutine2 & 0xFFFF
          CFI EndBlock cfiBlock10
//  732 }
//  733 
//  734 /*********************************************************************
//  735  * @brief   Set/clear the service change indication in a bond record.
//  736  *
//  737  * Public function defined in gapbondmgr.h.
//  738  */

        RSEG BANKED_CODE:CODE:NOROOT(0)
//  739 bStatus_t GAPBondMgr_ServiceChangeInd( uint16 connectionHandle, uint8 setParam )
GAPBondMgr_ServiceChangeInd:
          CFI Block cfiBlock11 Using cfiCommon0
          CFI Function GAPBondMgr_ServiceChangeInd
        CODE
//  740 {
        FUNCALL GAPBondMgr_ServiceChangeInd, gapBondMgrChangeState
        LOCFRAME ISTACK, 0, STACK
        LOCFRAME PSTACK, 0, STACK
        LOCFRAME XSTACK, 12, STACK
        LOCFRAME IOVERLAY, 0, STATIC
        LOCFRAME DOVERLAY, 0, STATIC
        ARGFRAME ISTACK, 0, STACK
        ARGFRAME PSTACK, 0, STACK
        ARGFRAME XSTACK, 12, STACK
        ARGFRAME IOVERLAY, 0, STATIC
        ARGFRAME DOVERLAY, 0, STATIC
        FUNCALL GAPBondMgr_ServiceChangeInd, linkDB_PerformFunc
        LOCFRAME ISTACK, 0, STACK
        LOCFRAME PSTACK, 0, STACK
        LOCFRAME XSTACK, 12, STACK
        LOCFRAME IOVERLAY, 0, STATIC
        LOCFRAME DOVERLAY, 0, STATIC
        ARGFRAME ISTACK, 0, STACK
        ARGFRAME PSTACK, 0, STACK
        ARGFRAME XSTACK, 12, STACK
        ARGFRAME IOVERLAY, 0, STATIC
        ARGFRAME DOVERLAY, 0, STATIC
        FUNCALL GAPBondMgr_ServiceChangeInd, linkDB_Find
        LOCFRAME ISTACK, 0, STACK
        LOCFRAME PSTACK, 0, STACK
        LOCFRAME XSTACK, 12, STACK
        LOCFRAME IOVERLAY, 0, STATIC
        LOCFRAME DOVERLAY, 0, STATIC
        ARGFRAME ISTACK, 0, STACK
        ARGFRAME PSTACK, 0, STACK
        ARGFRAME XSTACK, 12, STACK
        ARGFRAME IOVERLAY, 0, STATIC
        ARGFRAME DOVERLAY, 0, STATIC
        FUNCALL GAPBondMgr_ServiceChangeInd, GAPBondMgr_ResolveAddr
        LOCFRAME ISTACK, 0, STACK
        LOCFRAME PSTACK, 0, STACK
        LOCFRAME XSTACK, 12, STACK
        LOCFRAME IOVERLAY, 0, STATIC
        LOCFRAME DOVERLAY, 0, STATIC
        ARGFRAME ISTACK, 0, STACK
        ARGFRAME PSTACK, 0, STACK
        ARGFRAME XSTACK, 12, STACK
        ARGFRAME IOVERLAY, 0, STATIC
        ARGFRAME DOVERLAY, 0, STATIC
        FUNCALL GAPBondMgr_ServiceChangeInd, gapBondMgrChangeState
        LOCFRAME ISTACK, 0, STACK
        LOCFRAME PSTACK, 0, STACK
        LOCFRAME XSTACK, 12, STACK
        LOCFRAME IOVERLAY, 0, STATIC
        LOCFRAME DOVERLAY, 0, STATIC
        ARGFRAME ISTACK, 0, STACK
        ARGFRAME PSTACK, 0, STACK
        ARGFRAME XSTACK, 12, STACK
        ARGFRAME IOVERLAY, 0, STATIC
        ARGFRAME DOVERLAY, 0, STATIC
        FUNCALL GAPBondMgr_ServiceChangeInd, gapBondMgrSendServiceChange
        LOCFRAME ISTACK, 0, STACK
        LOCFRAME PSTACK, 0, STACK
        LOCFRAME XSTACK, 12, STACK
        LOCFRAME IOVERLAY, 0, STATIC
        LOCFRAME DOVERLAY, 0, STATIC
        ARGFRAME ISTACK, 0, STACK
        ARGFRAME PSTACK, 0, STACK
        ARGFRAME XSTACK, 12, STACK
        ARGFRAME IOVERLAY, 0, STATIC
        ARGFRAME DOVERLAY, 0, STATIC
        REQUIRE ?V0
        REQUIRE ?V1
        REQUIRE ?V2
        REQUIRE ?V3
        MOV     A,#-0xc
        LCALL   ?BANKED_ENTER_XDATA
          CFI DPH0 load(1, XDATA, add(CFA_XSP16, literal(-1)))
          CFI DPL0 load(1, XDATA, add(CFA_XSP16, literal(-2)))
          CFI ?BRET_EXT load(1, XDATA, add(CFA_XSP16, literal(-3)))
          CFI ?RET_HIGH load(1, XDATA, add(CFA_XSP16, literal(-4)))
          CFI ?RET_LOW load(1, XDATA, add(CFA_XSP16, literal(-5)))
          CFI R7 load(1, XDATA, add(CFA_XSP16, literal(-6)))
          CFI V3 load(1, XDATA, add(CFA_XSP16, literal(-7)))
          CFI V2 load(1, XDATA, add(CFA_XSP16, literal(-8)))
          CFI V1 load(1, XDATA, add(CFA_XSP16, literal(-9)))
          CFI V0 load(1, XDATA, add(CFA_XSP16, literal(-10)))
          CFI VB load(1, XDATA, add(CFA_XSP16, literal(-11)))
          CFI R6 load(1, XDATA, add(CFA_XSP16, literal(-12)))
          CFI CFA_SP SP+0
          CFI CFA_XSP16 add(XSP16, 12)
        ; Saved register size: 12
        ; Auto size: 0
        MOV     A,R1
        MOV     R7,A
//  741   bStatus_t ret = bleNoResources; // return value
        MOV     R6,#0x15
//  742 
//  743   if ( connectionHandle == 0xFFFF )
        MOV     A,#-0x1
        XRL     A,R2
        JNZ     ??GAPBondMgr_ServiceChangeInd_0
        MOV     A,#-0x1
        XRL     A,R3
??GAPBondMgr_ServiceChangeInd_0:
        JNZ     ??GAPBondMgr_ServiceChangeInd_1
//  744   {
//  745     uint8 idx;  // loop counter
//  746 
//  747     // Run through the bond database and update the Service Change indication
//  748     for ( idx = 0; idx < GAP_BONDINGS_MAX; idx++ )
        MOV     ?V0,#0x0
//  749     {
//  750       if ( gapBondMgrChangeState( idx, GAP_BONDED_STATE_SERVICE_CHANGED, setParam ) )
??GAPBondMgr_ServiceChangeInd_2:
        ; Setup parameters for call to function gapBondMgrChangeState
        MOV     A,R7
        MOV     R4,A
        MOV     R2,#0x2
        MOV     R3,#0x0
        MOV     R1,?V0
        LCALL   ??gapBondMgrChangeState?relay; Banked call to: gapBondMgrChangeState
        MOV     A,R1
        JZ      ??GAPBondMgr_ServiceChangeInd_3
//  751       {
//  752         ret = SUCCESS;
        MOV     R6,#0x0
//  753       }
//  754     }
??GAPBondMgr_ServiceChangeInd_3:
        INC     ?V0
        MOV     A,?V0
        CLR     C
        SUBB    A,#0xa
        JC      ??GAPBondMgr_ServiceChangeInd_2
//  755 
//  756     // If the service change indication is TRUE, tell the connected devices
//  757     if ( setParam )
        MOV     A,R7
        JZ      ??GAPBondMgr_ServiceChangeInd_4
//  758     {
//  759       // Run connected database
//  760       linkDB_PerformFunc( gapBondMgrSendServiceChange );
        ; Setup parameters for call to function linkDB_PerformFunc
        MOV     R2,#??gapBondMgrSendServiceChange?relay & 0xff
        MOV     R3,#(??gapBondMgrSendServiceChange?relay >> 8) & 0xff
        LCALL   ??linkDB_PerformFunc?relay; Banked call to: linkDB_PerformFunc
        SJMP    ??GAPBondMgr_ServiceChangeInd_4
//  761     }
//  762   }
//  763   else
//  764   {
//  765     // Find connection information
//  766     linkDBItem_t *pLinkItem = linkDB_Find( connectionHandle );
??GAPBondMgr_ServiceChangeInd_1:
        ; Setup parameters for call to function linkDB_Find
        LCALL   ??linkDB_Find?relay  ; Banked call to: linkDB_Find
        MOV     ?V0,R2
        MOV     ?V1,R3
//  767     if ( pLinkItem )
        MOV     A,R2
        ORL     A,?V1
        JZ      ??GAPBondMgr_ServiceChangeInd_5
//  768     {
//  769       uint8 idx; // loop counter
//  770       idx = GAPBondMgr_ResolveAddr( pLinkItem->addrType, pLinkItem->addr, NULL );
        ; Setup parameters for call to function GAPBondMgr_ResolveAddr
        MOV     R4,#0x0
        MOV     R5,#0x0
        MOV     A,R2
        ADD     A,#0x5
        MOV     R2,A
        CLR     A
        ADDC    A,?V1
        MOV     R3,A
        MOV     DPL,?V0
        MOV     DPH,?V1
        INC     DPTR
        INC     DPTR
        INC     DPTR
        INC     DPTR
        MOVX    A,@DPTR
        MOV     R1,A
        LCALL   ??GAPBondMgr_ResolveAddr?relay; Banked call to: GAPBondMgr_ResolveAddr
        MOV     A,R1
//  771       if ( idx < GAP_BONDINGS_MAX )
        CLR     C
        SUBB    A,#0xa
        JNC     ??GAPBondMgr_ServiceChangeInd_6
//  772       {
//  773         // Bond found, update it.
//  774         VOID gapBondMgrChangeState( idx, GAP_BONDED_STATE_SERVICE_CHANGED, setParam );
        ; Setup parameters for call to function gapBondMgrChangeState
        MOV     A,R7
        MOV     R4,A
        MOV     R2,#0x2
        MOV     R3,#0x0
        LCALL   ??gapBondMgrChangeState?relay; Banked call to: gapBondMgrChangeState
//  775         ret = SUCCESS;
        MOV     R6,#0x0
//  776       }
//  777 
//  778       // If the service change indication is TRUE, tell the connected device
//  779       if ( setParam )
??GAPBondMgr_ServiceChangeInd_6:
        MOV     A,R7
        JZ      ??GAPBondMgr_ServiceChangeInd_4
//  780       {
//  781         gapBondMgrSendServiceChange( pLinkItem );
        ; Setup parameters for call to function gapBondMgrSendServiceChange
        MOV     R2,?V0
        MOV     R3,?V1
        LCALL   ??gapBondMgrSendServiceChange?relay; Banked call to: gapBondMgrSendServiceChange
        SJMP    ??GAPBondMgr_ServiceChangeInd_4
//  782       }
//  783     }
//  784     else
//  785     {
//  786       ret = bleNotConnected;
??GAPBondMgr_ServiceChangeInd_5:
        DEC     R6
//  787     }
//  788   }
//  789 
//  790   return ( ret );
??GAPBondMgr_ServiceChangeInd_4:
        MOV     A,R6
        MOV     R1,A
        LJMP    ??Subroutine30_0 & 0xFFFF
          CFI EndBlock cfiBlock11
//  791 }
//  792 
//  793 /*********************************************************************
//  794  * @brief   Update the Characteristic Configuration in a bond record.
//  795  *
//  796  * Public function defined in gapbondmgr.h.
//  797  */

        RSEG BANKED_CODE:CODE:NOROOT(0)
//  798 bStatus_t GAPBondMgr_UpdateCharCfg( uint16 connectionHandle, uint16 attrHandle, uint16 value )
GAPBondMgr_UpdateCharCfg:
          CFI Block cfiBlock12 Using cfiCommon0
          CFI Function GAPBondMgr_UpdateCharCfg
        CODE
//  799 {
        FUNCALL GAPBondMgr_UpdateCharCfg, gapBondMgrUpdateCharCfg
        LOCFRAME ISTACK, 0, STACK
        LOCFRAME PSTACK, 0, STACK
        LOCFRAME XSTACK, 14, STACK
        LOCFRAME IOVERLAY, 0, STATIC
        LOCFRAME DOVERLAY, 0, STATIC
        ARGFRAME ISTACK, 0, STACK
        ARGFRAME PSTACK, 0, STACK
        ARGFRAME XSTACK, 14, STACK
        ARGFRAME IOVERLAY, 0, STATIC
        ARGFRAME DOVERLAY, 0, STATIC
        FUNCALL GAPBondMgr_UpdateCharCfg, linkDB_Find
        LOCFRAME ISTACK, 0, STACK
        LOCFRAME PSTACK, 0, STACK
        LOCFRAME XSTACK, 14, STACK
        LOCFRAME IOVERLAY, 0, STATIC
        LOCFRAME DOVERLAY, 0, STATIC
        ARGFRAME ISTACK, 0, STACK
        ARGFRAME PSTACK, 0, STACK
        ARGFRAME XSTACK, 14, STACK
        ARGFRAME IOVERLAY, 0, STATIC
        ARGFRAME DOVERLAY, 0, STATIC
        FUNCALL GAPBondMgr_UpdateCharCfg, GAPBondMgr_ResolveAddr
        LOCFRAME ISTACK, 0, STACK
        LOCFRAME PSTACK, 0, STACK
        LOCFRAME XSTACK, 14, STACK
        LOCFRAME IOVERLAY, 0, STATIC
        LOCFRAME DOVERLAY, 0, STATIC
        ARGFRAME ISTACK, 0, STACK
        ARGFRAME PSTACK, 0, STACK
        ARGFRAME XSTACK, 14, STACK
        ARGFRAME IOVERLAY, 0, STATIC
        ARGFRAME DOVERLAY, 0, STATIC
        FUNCALL GAPBondMgr_UpdateCharCfg, gapBondMgrUpdateCharCfg
        LOCFRAME ISTACK, 0, STACK
        LOCFRAME PSTACK, 0, STACK
        LOCFRAME XSTACK, 14, STACK
        LOCFRAME IOVERLAY, 0, STATIC
        LOCFRAME DOVERLAY, 0, STATIC
        ARGFRAME ISTACK, 0, STACK
        ARGFRAME PSTACK, 0, STACK
        ARGFRAME XSTACK, 14, STACK
        ARGFRAME IOVERLAY, 0, STATIC
        ARGFRAME DOVERLAY, 0, STATIC
        REQUIRE ?V0
        REQUIRE ?V1
        REQUIRE ?V2
        REQUIRE ?V3
        REQUIRE ?V4
        REQUIRE ?V5
        MOV     A,#-0xe
        LCALL   ?BANKED_ENTER_XDATA
          CFI DPH0 load(1, XDATA, add(CFA_XSP16, literal(-1)))
          CFI DPL0 load(1, XDATA, add(CFA_XSP16, literal(-2)))
          CFI ?BRET_EXT load(1, XDATA, add(CFA_XSP16, literal(-3)))
          CFI ?RET_HIGH load(1, XDATA, add(CFA_XSP16, literal(-4)))
          CFI ?RET_LOW load(1, XDATA, add(CFA_XSP16, literal(-5)))
          CFI R7 load(1, XDATA, add(CFA_XSP16, literal(-6)))
          CFI V5 load(1, XDATA, add(CFA_XSP16, literal(-7)))
          CFI V4 load(1, XDATA, add(CFA_XSP16, literal(-8)))
          CFI V3 load(1, XDATA, add(CFA_XSP16, literal(-9)))
          CFI V2 load(1, XDATA, add(CFA_XSP16, literal(-10)))
          CFI V1 load(1, XDATA, add(CFA_XSP16, literal(-11)))
          CFI V0 load(1, XDATA, add(CFA_XSP16, literal(-12)))
          CFI VB load(1, XDATA, add(CFA_XSP16, literal(-13)))
          CFI R6 load(1, XDATA, add(CFA_XSP16, literal(-14)))
          CFI CFA_SP SP+0
          CFI CFA_XSP16 add(XSP16, 14)
        ; Saved register size: 14
        ; Auto size: 0
        MOV     ?V0,R4
        MOV     ?V1,R5
//  800   bStatus_t ret = bleNoResources; // return value
        MOV     R6,#0x15
        MOV     A,#0xe
        LCALL   ?XSTACK_DISP0_8
        MOVX    A,@DPTR
        MOV     ?V2,A
        INC     DPTR
        MOVX    A,@DPTR
        MOV     ?V3,A
//  801 
//  802   if ( connectionHandle == INVALID_CONNHANDLE )
        MOV     A,#-0x1
        XRL     A,R2
        JNZ     ??GAPBondMgr_UpdateCharCfg_0
        MOV     A,#-0x1
        XRL     A,R3
??GAPBondMgr_UpdateCharCfg_0:
        JNZ     ??GAPBondMgr_UpdateCharCfg_1
//  803   {
//  804     uint8 idx;  // loop counter
//  805 
//  806     // Run through the bond database and update the Characteristic Configuration
//  807     for ( idx = 0; idx < GAP_BONDINGS_MAX; idx++ )
        MOV     R7,#0x0
//  808     {
//  809       if ( gapBondMgrUpdateCharCfg( idx, attrHandle, value ) )
??GAPBondMgr_UpdateCharCfg_2:
        ; Setup parameters for call to function gapBondMgrUpdateCharCfg
        MOV     R4,?V2
        MOV     R5,?V3
        MOV     R2,?V0
        MOV     R3,?V1
        MOV     A,R7
        MOV     R1,A
        LCALL   ??gapBondMgrUpdateCharCfg?relay; Banked call to: gapBondMgrUpdateCharCfg
        MOV     A,R1
        JZ      ??GAPBondMgr_UpdateCharCfg_3
//  810       {
//  811         ret = SUCCESS;
        MOV     R6,#0x0
//  812       }
//  813     }
??GAPBondMgr_UpdateCharCfg_3:
        INC     R7
        MOV     A,R7
        CLR     C
        SUBB    A,#0xa
        JNC     ??GAPBondMgr_UpdateCharCfg_4
        SJMP    ??GAPBondMgr_UpdateCharCfg_2
//  814   }
//  815   else
//  816   {
//  817     // Find connection information
//  818     linkDBItem_t *pLinkItem = linkDB_Find( connectionHandle );
??GAPBondMgr_UpdateCharCfg_1:
        ; Setup parameters for call to function linkDB_Find
        LCALL   ??linkDB_Find?relay  ; Banked call to: linkDB_Find
        MOV     DPL,R2
        MOV     DPH,R3
//  819     if ( pLinkItem )
        MOV     A,DPL
        ORL     A,DPH
        JZ      ??GAPBondMgr_UpdateCharCfg_5
//  820     {
//  821       uint8 idx = GAPBondMgr_ResolveAddr( pLinkItem->addrType, pLinkItem->addr, NULL );
        ; Setup parameters for call to function GAPBondMgr_ResolveAddr
        MOV     R4,#0x0
        MOV     R5,#0x0
        MOV     A,DPL
        ADD     A,#0x5
        MOV     R2,A
        CLR     A
        ADDC    A,DPH
        MOV     R3,A
        INC     DPTR
        INC     DPTR
        INC     DPTR
        INC     DPTR
        MOVX    A,@DPTR
        MOV     R1,A
        LCALL   ??GAPBondMgr_ResolveAddr?relay; Banked call to: GAPBondMgr_ResolveAddr
        MOV     A,R1
//  822       if ( idx < GAP_BONDINGS_MAX )
        CLR     C
        SUBB    A,#0xa
        JNC     ??GAPBondMgr_UpdateCharCfg_4
//  823       {
//  824         // Bond found, update it.
//  825         VOID gapBondMgrUpdateCharCfg( idx, attrHandle, value );
        ; Setup parameters for call to function gapBondMgrUpdateCharCfg
        MOV     R4,?V2
        MOV     R5,?V3
        MOV     R2,?V0
        MOV     R3,?V1
        LCALL   ??gapBondMgrUpdateCharCfg?relay; Banked call to: gapBondMgrUpdateCharCfg
//  826         ret = SUCCESS;
        MOV     R6,#0x0
        SJMP    ??GAPBondMgr_UpdateCharCfg_4
//  827       }
//  828     }
//  829     else
//  830     {
//  831       ret = bleNotConnected;
??GAPBondMgr_UpdateCharCfg_5:
        DEC     R6
//  832     }
//  833   }
//  834 
//  835   return ( ret );
??GAPBondMgr_UpdateCharCfg_4:
        MOV     A,R6
        MOV     R1,A
          CFI EndBlock cfiBlock12
        REQUIRE ?Subroutine3
        ; // Fall through to label ?Subroutine3
//  836 }

        RSEG BANKED_CODE:CODE:NOROOT(0)
?Subroutine3:
          CFI Block cfiBlock13 Using cfiCommon0
          CFI NoFunction
          CFI CFA_SP SP+0
          CFI CFA_XSP16 add(XSP16, 14)
          CFI VB load(1, XDATA, add(CFA_XSP16, literal(-13)))
          CFI DPL0 load(1, XDATA, add(CFA_XSP16, literal(-2)))
          CFI DPH0 load(1, XDATA, add(CFA_XSP16, literal(-1)))
          CFI R6 load(1, XDATA, add(CFA_XSP16, literal(-14)))
          CFI R7 load(1, XDATA, add(CFA_XSP16, literal(-6)))
          CFI V0 load(1, XDATA, add(CFA_XSP16, literal(-12)))
          CFI V1 load(1, XDATA, add(CFA_XSP16, literal(-11)))
          CFI V2 load(1, XDATA, add(CFA_XSP16, literal(-10)))
          CFI V3 load(1, XDATA, add(CFA_XSP16, literal(-9)))
          CFI V4 load(1, XDATA, add(CFA_XSP16, literal(-8)))
          CFI V5 load(1, XDATA, add(CFA_XSP16, literal(-7)))
          CFI ?BRET_EXT load(1, XDATA, add(CFA_XSP16, literal(-3)))
          CFI ?RET_HIGH load(1, XDATA, add(CFA_XSP16, literal(-4)))
          CFI ?RET_LOW load(1, XDATA, add(CFA_XSP16, literal(-5)))
        MOV     R7,#0x6
        LJMP    ?BANKED_LEAVE_XDATA
          CFI EndBlock cfiBlock13
//  837 
//  838 /*********************************************************************
//  839  * @brief   Register callback functions with the bond manager.
//  840  *
//  841  * Public function defined in gapbondmgr.h.
//  842  */

        RSEG BANKED_CODE:CODE:NOROOT(0)
//  843 void GAPBondMgr_Register( gapBondCBs_t *pCB )
GAPBondMgr_Register:
          CFI Block cfiBlock14 Using cfiCommon0
          CFI Function GAPBondMgr_Register
        CODE
//  844 {
        FUNCALL GAPBondMgr_Register, GAP_SetParamValue
        LOCFRAME ISTACK, 2, STACK
        LOCFRAME PSTACK, 0, STACK
        LOCFRAME XSTACK, 0, STACK
        LOCFRAME IOVERLAY, 0, STATIC
        LOCFRAME DOVERLAY, 0, STATIC
        ARGFRAME ISTACK, 2, STACK
        ARGFRAME PSTACK, 0, STACK
        ARGFRAME XSTACK, 0, STACK
        ARGFRAME IOVERLAY, 0, STATIC
        ARGFRAME DOVERLAY, 0, STATIC
        FUNCALL GAPBondMgr_Register, GATTServApp_RegisterForMsg
        LOCFRAME ISTACK, 2, STACK
        LOCFRAME PSTACK, 0, STACK
        LOCFRAME XSTACK, 0, STACK
        LOCFRAME IOVERLAY, 0, STATIC
        LOCFRAME DOVERLAY, 0, STATIC
        ARGFRAME ISTACK, 2, STACK
        ARGFRAME PSTACK, 0, STACK
        ARGFRAME XSTACK, 0, STACK
        ARGFRAME IOVERLAY, 0, STATIC
        ARGFRAME DOVERLAY, 0, STATIC
        PUSH    DPL
          CFI DPL0 Frame(CFA_SP, 4)
          CFI CFA_SP SP+-4
        PUSH    DPH
          CFI DPH0 Frame(CFA_SP, 5)
          CFI CFA_SP SP+-5
        ; Saved register size: 2
        ; Auto size: 0
//  845   pGapBondCB = pCB;
        MOV     DPTR,#pGapBondCB
        MOV     A,R2
        MOVX    @DPTR,A
        INC     DPTR
        MOV     A,R3
        MOVX    @DPTR,A
//  846 
//  847   // Take over the processing of Authentication messages
//  848   VOID GAP_SetParamValue( TGAP_AUTH_TASK_ID, gapBondMgr_TaskID );
        ; Setup parameters for call to function GAP_SetParamValue
        MOV     DPTR,#gapBondMgr_TaskID
        MOVX    A,@DPTR
        MOV     R4,A
        MOV     R5,#0x0
        MOV     R2,#0x26
        MOV     R3,#0x0
        LCALL   ??GAP_SetParamValue?relay; Banked call to: GAP_SetParamValue
//  849 
//  850   // Register with GATT Server App for event messages
//  851   GATTServApp_RegisterForMsg( gapBondMgr_TaskID );
        ; Setup parameters for call to function GATTServApp_RegisterForMsg
        MOV     DPTR,#gapBondMgr_TaskID
        MOVX    A,@DPTR
        MOV     R1,A
        LCALL   ??GATTServApp_RegisterForMsg?relay; Banked call to: GATTServApp_RegisterForMsg
//  852 }
        LJMP    ?Subroutine4 & 0xFFFF
          CFI EndBlock cfiBlock14
//  853 
//  854 /*********************************************************************
//  855  * @brief   Respond to a passcode request.
//  856  *
//  857  * Public function defined in gapbondmgr.h.
//  858  */

        RSEG BANKED_CODE:CODE:NOROOT(0)
//  859 bStatus_t GAPBondMgr_PasscodeRsp( uint16 connectionHandle, uint8 status, uint32 passcode )
GAPBondMgr_PasscodeRsp:
          CFI Block cfiBlock15 Using cfiCommon0
          CFI Function GAPBondMgr_PasscodeRsp
        CODE
//  860 {
        FUNCALL GAPBondMgr_PasscodeRsp, GAP_PasscodeUpdate
        LOCFRAME ISTACK, 0, STACK
        LOCFRAME PSTACK, 0, STACK
        LOCFRAME XSTACK, 19, STACK
        LOCFRAME IOVERLAY, 0, STATIC
        LOCFRAME DOVERLAY, 0, STATIC
        ARGFRAME ISTACK, 0, STACK
        ARGFRAME PSTACK, 0, STACK
        ARGFRAME XSTACK, 19, STACK
        ARGFRAME IOVERLAY, 0, STATIC
        ARGFRAME DOVERLAY, 0, STATIC
        FUNCALL GAPBondMgr_PasscodeRsp, GAP_TerminateAuth
        LOCFRAME ISTACK, 0, STACK
        LOCFRAME PSTACK, 0, STACK
        LOCFRAME XSTACK, 17, STACK
        LOCFRAME IOVERLAY, 0, STATIC
        LOCFRAME DOVERLAY, 0, STATIC
        ARGFRAME ISTACK, 0, STACK
        ARGFRAME PSTACK, 0, STACK
        ARGFRAME XSTACK, 17, STACK
        ARGFRAME IOVERLAY, 0, STATIC
        ARGFRAME DOVERLAY, 0, STATIC
        FUNCALL GAPBondMgr_PasscodeRsp, GAP_TerminateAuth
        LOCFRAME ISTACK, 0, STACK
        LOCFRAME PSTACK, 0, STACK
        LOCFRAME XSTACK, 17, STACK
        LOCFRAME IOVERLAY, 0, STATIC
        LOCFRAME DOVERLAY, 0, STATIC
        ARGFRAME ISTACK, 0, STACK
        ARGFRAME PSTACK, 0, STACK
        ARGFRAME XSTACK, 17, STACK
        ARGFRAME IOVERLAY, 0, STATIC
        ARGFRAME DOVERLAY, 0, STATIC
        REQUIRE ?V0
        REQUIRE ?V1
        REQUIRE ?V2
        REQUIRE ?V3
        REQUIRE ?V4
        REQUIRE ?V5
        REQUIRE ?V6
        REQUIRE ?V7
        MOV     A,#-0x10
        LCALL   ?BANKED_ENTER_XDATA
          CFI DPH0 load(1, XDATA, add(CFA_XSP16, literal(-1)))
          CFI DPL0 load(1, XDATA, add(CFA_XSP16, literal(-2)))
          CFI ?BRET_EXT load(1, XDATA, add(CFA_XSP16, literal(-3)))
          CFI ?RET_HIGH load(1, XDATA, add(CFA_XSP16, literal(-4)))
          CFI ?RET_LOW load(1, XDATA, add(CFA_XSP16, literal(-5)))
          CFI R7 load(1, XDATA, add(CFA_XSP16, literal(-6)))
          CFI V7 load(1, XDATA, add(CFA_XSP16, literal(-7)))
          CFI V6 load(1, XDATA, add(CFA_XSP16, literal(-8)))
          CFI V5 load(1, XDATA, add(CFA_XSP16, literal(-9)))
          CFI V4 load(1, XDATA, add(CFA_XSP16, literal(-10)))
          CFI V3 load(1, XDATA, add(CFA_XSP16, literal(-11)))
          CFI V2 load(1, XDATA, add(CFA_XSP16, literal(-12)))
          CFI V1 load(1, XDATA, add(CFA_XSP16, literal(-13)))
          CFI V0 load(1, XDATA, add(CFA_XSP16, literal(-14)))
          CFI VB load(1, XDATA, add(CFA_XSP16, literal(-15)))
          CFI R6 load(1, XDATA, add(CFA_XSP16, literal(-16)))
          CFI CFA_SP SP+0
          CFI CFA_XSP16 add(XSP16, 16)
        ; Saved register size: 16
        ; Auto size: 1
        MOV     A,#-0x1
        LCALL   ?ALLOC_XSTACK8
          CFI CFA_XSP16 add(XSP16, 17)
        MOV     A,R1
        MOV     DPL,?XSP + 0
        MOV     DPH,?XSP + 1
        MOVX    @DPTR,A
        MOV     A,R2
        MOV     R6,A
        MOV     A,R3
        MOV     R7,A
//  861   bStatus_t ret = SUCCESS;
        MOV     ?V0,#0x0
//  862 
//  863   if ( status == SUCCESS )
        MOVX    A,@DPTR
        JNZ     ??GAPBondMgr_PasscodeRsp_0
//  864   {
//  865     // Truncate the passcode
//  866     passcode = passcode % (GAP_PASSCODE_MAX + 1);
//  867 
//  868     ret = GAP_PasscodeUpdate( passcode, connectionHandle );
        ; Setup parameters for call to function GAP_PasscodeUpdate
        MOV     ?V0,R6
        MOV     ?V1,R7
        MOV     R0,#?V0
        LCALL   ?PUSH_XSTACK_I_TWO
          CFI CFA_XSP16 add(XSP16, 19)
        MOV     A,#0x13
        LCALL   ?XSTACK_DISP0_8
        MOV     R0,#?V4
        LCALL   ?L_MOV_X
        MOV     DPTR,#__Constant_f4240
        MOV     R0,#?V0
        LCALL   ?L_MOV_X
        MOV     R0,#?V4
        MOV     R1,#?V0
        LCALL   ?UL_DIV_MOD
        MOV     R2,?V0
        MOV     R3,?V1
        MOV     R4,?V2
        MOV     R5,?V3
        LCALL   ??GAP_PasscodeUpdate?relay; Banked call to: GAP_PasscodeUpdate
        MOV     A,#0x2
        LCALL   ?DEALLOC_XSTACK8
          CFI CFA_XSP16 add(XSP16, 17)
        MOV     A,R1
        MOV     ?V0,A
//  869     if ( ret != SUCCESS )
        JZ      ??GAPBondMgr_PasscodeRsp_1
//  870     {
//  871       VOID GAP_TerminateAuth( connectionHandle, SMP_PAIRING_FAILED_PASSKEY_ENTRY_FAILED );
        ; Setup parameters for call to function GAP_TerminateAuth
        MOV     R1,#0x1
        MOV     A,R6
        MOV     R2,A
        MOV     A,R7
        MOV     R3,A
//  872     }
//  873   }
//  874   else
//  875   {
//  876     VOID GAP_TerminateAuth( connectionHandle, status );
??GAPBondMgr_PasscodeRsp_0:
        ; Setup parameters for call to function GAP_TerminateAuth
        LCALL   ??GAP_TerminateAuth?relay; Banked call to: GAP_TerminateAuth
//  877   }
//  878 
//  879   return ret;
??GAPBondMgr_PasscodeRsp_1:
        MOV     R1,?V0
        MOV     A,#0x1
        LJMP    ?Subroutine0 & 0xFFFF
          CFI EndBlock cfiBlock15
//  880 }
//  881 
//  882 /*********************************************************************
//  883  * @brief   This is a bypass mechanism to allow the bond manager to process
//  884  *              GAP messages.
//  885  *
//  886  * Public function defined in gapbondmgr.h.
//  887  */

        RSEG BANKED_CODE:CODE:NOROOT(0)
//  888 uint8 GAPBondMgr_ProcessGAPMsg( gapEventHdr_t *pMsg )
GAPBondMgr_ProcessGAPMsg:
          CFI Block cfiBlock16 Using cfiCommon0
          CFI Function GAPBondMgr_ProcessGAPMsg
        CODE
//  889 {
        FUNCALL GAPBondMgr_ProcessGAPMsg, GAP_PasscodeUpdate
        LOCFRAME ISTACK, 0, STACK
        LOCFRAME PSTACK, 0, STACK
        LOCFRAME XSTACK, 38, STACK
        LOCFRAME IOVERLAY, 0, STATIC
        LOCFRAME DOVERLAY, 0, STATIC
        ARGFRAME ISTACK, 0, STACK
        ARGFRAME PSTACK, 0, STACK
        ARGFRAME XSTACK, 38, STACK
        ARGFRAME IOVERLAY, 0, STATIC
        ARGFRAME DOVERLAY, 0, STATIC
        FUNCALL GAPBondMgr_ProcessGAPMsg, GAP_TerminateAuth
        LOCFRAME ISTACK, 0, STACK
        LOCFRAME PSTACK, 0, STACK
        LOCFRAME XSTACK, 36, STACK
        LOCFRAME IOVERLAY, 0, STATIC
        LOCFRAME DOVERLAY, 0, STATIC
        ARGFRAME ISTACK, 0, STACK
        ARGFRAME PSTACK, 0, STACK
        ARGFRAME XSTACK, 36, STACK
        ARGFRAME IOVERLAY, 0, STATIC
        ARGFRAME DOVERLAY, 0, STATIC
        FUNCALL GAPBondMgr_ProcessGAPMsg, osal_memset
        LOCFRAME ISTACK, 0, STACK
        LOCFRAME PSTACK, 0, STACK
        LOCFRAME XSTACK, 36, STACK
        LOCFRAME IOVERLAY, 0, STATIC
        LOCFRAME DOVERLAY, 0, STATIC
        ARGFRAME ISTACK, 0, STACK
        ARGFRAME PSTACK, 0, STACK
        ARGFRAME XSTACK, 36, STACK
        ARGFRAME IOVERLAY, 0, STATIC
        ARGFRAME DOVERLAY, 0, STATIC
        FUNCALL GAPBondMgr_ProcessGAPMsg, osal_memcpy
        LOCFRAME ISTACK, 0, STACK
        LOCFRAME PSTACK, 0, STACK
        LOCFRAME XSTACK, 38, STACK
        LOCFRAME IOVERLAY, 0, STATIC
        LOCFRAME DOVERLAY, 0, STATIC
        ARGFRAME ISTACK, 0, STACK
        ARGFRAME PSTACK, 0, STACK
        ARGFRAME XSTACK, 38, STACK
        ARGFRAME IOVERLAY, 0, STATIC
        ARGFRAME DOVERLAY, 0, STATIC
        FUNCALL GAPBondMgr_ProcessGAPMsg, linkDB_Find
        LOCFRAME ISTACK, 0, STACK
        LOCFRAME PSTACK, 0, STACK
        LOCFRAME XSTACK, 36, STACK
        LOCFRAME IOVERLAY, 0, STATIC
        LOCFRAME DOVERLAY, 0, STATIC
        ARGFRAME ISTACK, 0, STACK
        ARGFRAME PSTACK, 0, STACK
        ARGFRAME XSTACK, 36, STACK
        ARGFRAME IOVERLAY, 0, STATIC
        ARGFRAME DOVERLAY, 0, STATIC
        FUNCALL GAPBondMgr_ProcessGAPMsg, osal_memcpy
        LOCFRAME ISTACK, 0, STACK
        LOCFRAME PSTACK, 0, STACK
        LOCFRAME XSTACK, 38, STACK
        LOCFRAME IOVERLAY, 0, STATIC
        LOCFRAME DOVERLAY, 0, STATIC
        ARGFRAME ISTACK, 0, STACK
        ARGFRAME PSTACK, 0, STACK
        ARGFRAME XSTACK, 38, STACK
        ARGFRAME IOVERLAY, 0, STATIC
        ARGFRAME DOVERLAY, 0, STATIC
        FUNCALL GAPBondMgr_ProcessGAPMsg, gapBondMgrAddBond
        LOCFRAME ISTACK, 0, STACK
        LOCFRAME PSTACK, 0, STACK
        LOCFRAME XSTACK, 36, STACK
        LOCFRAME IOVERLAY, 0, STATIC
        LOCFRAME DOVERLAY, 0, STATIC
        ARGFRAME ISTACK, 0, STACK
        ARGFRAME PSTACK, 0, STACK
        ARGFRAME XSTACK, 36, STACK
        ARGFRAME IOVERLAY, 0, STATIC
        ARGFRAME DOVERLAY, 0, STATIC
        FUNCALL GAPBondMgr_ProcessGAPMsg, osal_set_event
        LOCFRAME ISTACK, 0, STACK
        LOCFRAME PSTACK, 0, STACK
        LOCFRAME XSTACK, 36, STACK
        LOCFRAME IOVERLAY, 0, STATIC
        LOCFRAME DOVERLAY, 0, STATIC
        ARGFRAME ISTACK, 0, STACK
        ARGFRAME PSTACK, 0, STACK
        ARGFRAME XSTACK, 36, STACK
        ARGFRAME IOVERLAY, 0, STATIC
        ARGFRAME DOVERLAY, 0, STATIC
        FUNCALL GAPBondMgr_ProcessGAPMsg, linkDB_Find
        LOCFRAME ISTACK, 0, STACK
        LOCFRAME PSTACK, 0, STACK
        LOCFRAME XSTACK, 36, STACK
        LOCFRAME IOVERLAY, 0, STATIC
        LOCFRAME DOVERLAY, 0, STATIC
        ARGFRAME ISTACK, 0, STACK
        ARGFRAME PSTACK, 0, STACK
        ARGFRAME XSTACK, 36, STACK
        ARGFRAME IOVERLAY, 0, STATIC
        ARGFRAME DOVERLAY, 0, STATIC
        FUNCALL GAPBondMgr_ProcessGAPMsg, gapBondMgrAuthenticate
        LOCFRAME ISTACK, 0, STACK
        LOCFRAME PSTACK, 0, STACK
        LOCFRAME XSTACK, 36, STACK
        LOCFRAME IOVERLAY, 0, STATIC
        LOCFRAME DOVERLAY, 0, STATIC
        ARGFRAME ISTACK, 0, STACK
        ARGFRAME PSTACK, 0, STACK
        ARGFRAME XSTACK, 36, STACK
        ARGFRAME IOVERLAY, 0, STATIC
        ARGFRAME DOVERLAY, 0, STATIC
        FUNCALL GAPBondMgr_ProcessGAPMsg, GAP_TerminateLinkReq
        LOCFRAME ISTACK, 0, STACK
        LOCFRAME PSTACK, 0, STACK
        LOCFRAME XSTACK, 36, STACK
        LOCFRAME IOVERLAY, 0, STATIC
        LOCFRAME DOVERLAY, 0, STATIC
        ARGFRAME ISTACK, 0, STACK
        ARGFRAME PSTACK, 0, STACK
        ARGFRAME XSTACK, 36, STACK
        ARGFRAME IOVERLAY, 0, STATIC
        ARGFRAME DOVERLAY, 0, STATIC
        FUNCALL GAPBondMgr_ProcessGAPMsg, GAPBondMgr_SetParameter
        LOCFRAME ISTACK, 0, STACK
        LOCFRAME PSTACK, 0, STACK
        LOCFRAME XSTACK, 36, STACK
        LOCFRAME IOVERLAY, 0, STATIC
        LOCFRAME DOVERLAY, 0, STATIC
        ARGFRAME ISTACK, 0, STACK
        ARGFRAME PSTACK, 0, STACK
        ARGFRAME XSTACK, 36, STACK
        ARGFRAME IOVERLAY, 0, STATIC
        ARGFRAME DOVERLAY, 0, STATIC
        FUNCALL GAPBondMgr_ProcessGAPMsg, GAP_TerminateLinkReq
        LOCFRAME ISTACK, 0, STACK
        LOCFRAME PSTACK, 0, STACK
        LOCFRAME XSTACK, 36, STACK
        LOCFRAME IOVERLAY, 0, STATIC
        LOCFRAME DOVERLAY, 0, STATIC
        ARGFRAME ISTACK, 0, STACK
        ARGFRAME PSTACK, 0, STACK
        ARGFRAME XSTACK, 36, STACK
        ARGFRAME IOVERLAY, 0, STATIC
        ARGFRAME DOVERLAY, 0, STATIC
        FUNCALL GAPBondMgr_ProcessGAPMsg, GAPBondMgr_ResolveAddr
        LOCFRAME ISTACK, 0, STACK
        LOCFRAME PSTACK, 0, STACK
        LOCFRAME XSTACK, 36, STACK
        LOCFRAME IOVERLAY, 0, STATIC
        LOCFRAME DOVERLAY, 0, STATIC
        ARGFRAME ISTACK, 0, STACK
        ARGFRAME PSTACK, 0, STACK
        ARGFRAME XSTACK, 36, STACK
        ARGFRAME IOVERLAY, 0, STATIC
        ARGFRAME DOVERLAY, 0, STATIC
        FUNCALL GAPBondMgr_ProcessGAPMsg, osal_snv_write
        LOCFRAME ISTACK, 0, STACK
        LOCFRAME PSTACK, 0, STACK
        LOCFRAME XSTACK, 36, STACK
        LOCFRAME IOVERLAY, 0, STATIC
        LOCFRAME DOVERLAY, 0, STATIC
        ARGFRAME ISTACK, 0, STACK
        ARGFRAME PSTACK, 0, STACK
        ARGFRAME XSTACK, 36, STACK
        ARGFRAME IOVERLAY, 0, STATIC
        ARGFRAME DOVERLAY, 0, STATIC
        FUNCALL GAPBondMgr_ProcessGAPMsg, GAP_TerminateAuth
        LOCFRAME ISTACK, 0, STACK
        LOCFRAME PSTACK, 0, STACK
        LOCFRAME XSTACK, 36, STACK
        LOCFRAME IOVERLAY, 0, STATIC
        LOCFRAME DOVERLAY, 0, STATIC
        ARGFRAME ISTACK, 0, STACK
        ARGFRAME PSTACK, 0, STACK
        ARGFRAME XSTACK, 36, STACK
        ARGFRAME IOVERLAY, 0, STATIC
        ARGFRAME DOVERLAY, 0, STATIC
        FUNCALL GAPBondMgr_ProcessGAPMsg, GAP_TerminateAuth
        LOCFRAME ISTACK, 0, STACK
        LOCFRAME PSTACK, 0, STACK
        LOCFRAME XSTACK, 36, STACK
        LOCFRAME IOVERLAY, 0, STATIC
        LOCFRAME DOVERLAY, 0, STATIC
        ARGFRAME ISTACK, 0, STACK
        ARGFRAME PSTACK, 0, STACK
        ARGFRAME XSTACK, 36, STACK
        ARGFRAME IOVERLAY, 0, STATIC
        ARGFRAME DOVERLAY, 0, STATIC
        FUNCALL GAPBondMgr_ProcessGAPMsg, linkDB_Find
        LOCFRAME ISTACK, 0, STACK
        LOCFRAME PSTACK, 0, STACK
        LOCFRAME XSTACK, 36, STACK
        LOCFRAME IOVERLAY, 0, STATIC
        LOCFRAME DOVERLAY, 0, STATIC
        ARGFRAME ISTACK, 0, STACK
        ARGFRAME PSTACK, 0, STACK
        ARGFRAME XSTACK, 36, STACK
        ARGFRAME IOVERLAY, 0, STATIC
        ARGFRAME DOVERLAY, 0, STATIC
        FUNCALL GAPBondMgr_ProcessGAPMsg, GAPBondMgr_ResolveAddr
        LOCFRAME ISTACK, 0, STACK
        LOCFRAME PSTACK, 0, STACK
        LOCFRAME XSTACK, 36, STACK
        LOCFRAME IOVERLAY, 0, STATIC
        LOCFRAME DOVERLAY, 0, STATIC
        ARGFRAME ISTACK, 0, STACK
        ARGFRAME PSTACK, 0, STACK
        ARGFRAME XSTACK, 36, STACK
        ARGFRAME IOVERLAY, 0, STATIC
        ARGFRAME DOVERLAY, 0, STATIC
        FUNCALL GAPBondMgr_ProcessGAPMsg, GAP_TerminateAuth
        LOCFRAME ISTACK, 0, STACK
        LOCFRAME PSTACK, 0, STACK
        LOCFRAME XSTACK, 36, STACK
        LOCFRAME IOVERLAY, 0, STATIC
        LOCFRAME DOVERLAY, 0, STATIC
        ARGFRAME ISTACK, 0, STACK
        ARGFRAME PSTACK, 0, STACK
        ARGFRAME XSTACK, 36, STACK
        ARGFRAME IOVERLAY, 0, STATIC
        ARGFRAME DOVERLAY, 0, STATIC
        FUNCALL GAPBondMgr_ProcessGAPMsg, gapBondMgrAuthenticate
        LOCFRAME ISTACK, 0, STACK
        LOCFRAME PSTACK, 0, STACK
        LOCFRAME XSTACK, 36, STACK
        LOCFRAME IOVERLAY, 0, STATIC
        LOCFRAME DOVERLAY, 0, STATIC
        ARGFRAME ISTACK, 0, STACK
        ARGFRAME PSTACK, 0, STACK
        ARGFRAME XSTACK, 36, STACK
        ARGFRAME IOVERLAY, 0, STATIC
        ARGFRAME DOVERLAY, 0, STATIC
        FUNCALL GAPBondMgr_ProcessGAPMsg, linkDB_Find
        LOCFRAME ISTACK, 0, STACK
        LOCFRAME PSTACK, 0, STACK
        LOCFRAME XSTACK, 36, STACK
        LOCFRAME IOVERLAY, 0, STATIC
        LOCFRAME DOVERLAY, 0, STATIC
        ARGFRAME ISTACK, 0, STACK
        ARGFRAME PSTACK, 0, STACK
        ARGFRAME XSTACK, 36, STACK
        ARGFRAME IOVERLAY, 0, STATIC
        ARGFRAME DOVERLAY, 0, STATIC
        FUNCALL GAPBondMgr_ProcessGAPMsg, GAPBondMgr_ResolveAddr
        LOCFRAME ISTACK, 0, STACK
        LOCFRAME PSTACK, 0, STACK
        LOCFRAME XSTACK, 36, STACK
        LOCFRAME IOVERLAY, 0, STATIC
        LOCFRAME DOVERLAY, 0, STATIC
        ARGFRAME ISTACK, 0, STACK
        ARGFRAME PSTACK, 0, STACK
        ARGFRAME XSTACK, 36, STACK
        ARGFRAME IOVERLAY, 0, STATIC
        ARGFRAME DOVERLAY, 0, STATIC
        FUNCALL GAPBondMgr_ProcessGAPMsg, gapBondMgrGetStateFlags
        LOCFRAME ISTACK, 0, STACK
        LOCFRAME PSTACK, 0, STACK
        LOCFRAME XSTACK, 37, STACK
        LOCFRAME IOVERLAY, 0, STATIC
        LOCFRAME DOVERLAY, 0, STATIC
        ARGFRAME ISTACK, 0, STACK
        ARGFRAME PSTACK, 0, STACK
        ARGFRAME XSTACK, 37, STACK
        ARGFRAME IOVERLAY, 0, STATIC
        ARGFRAME DOVERLAY, 0, STATIC
        FUNCALL GAPBondMgr_ProcessGAPMsg, gapBondMgrBondReq
        LOCFRAME ISTACK, 0, STACK
        LOCFRAME PSTACK, 0, STACK
        LOCFRAME XSTACK, 37, STACK
        LOCFRAME IOVERLAY, 0, STATIC
        LOCFRAME DOVERLAY, 0, STATIC
        ARGFRAME ISTACK, 0, STACK
        ARGFRAME PSTACK, 0, STACK
        ARGFRAME XSTACK, 37, STACK
        ARGFRAME IOVERLAY, 0, STATIC
        ARGFRAME DOVERLAY, 0, STATIC
        FUNCALL GAPBondMgr_ProcessGAPMsg, GAP_TerminateAuth
        LOCFRAME ISTACK, 0, STACK
        LOCFRAME PSTACK, 0, STACK
        LOCFRAME XSTACK, 36, STACK
        LOCFRAME IOVERLAY, 0, STATIC
        LOCFRAME DOVERLAY, 0, STATIC
        ARGFRAME ISTACK, 0, STACK
        ARGFRAME PSTACK, 0, STACK
        ARGFRAME XSTACK, 36, STACK
        ARGFRAME IOVERLAY, 0, STATIC
        ARGFRAME DOVERLAY, 0, STATIC
        FUNCALL GAPBondMgr_ProcessGAPMsg, gapBondMgrAuthenticate
        LOCFRAME ISTACK, 0, STACK
        LOCFRAME PSTACK, 0, STACK
        LOCFRAME XSTACK, 36, STACK
        LOCFRAME IOVERLAY, 0, STATIC
        LOCFRAME DOVERLAY, 0, STATIC
        ARGFRAME ISTACK, 0, STACK
        ARGFRAME PSTACK, 0, STACK
        ARGFRAME XSTACK, 36, STACK
        ARGFRAME IOVERLAY, 0, STATIC
        ARGFRAME DOVERLAY, 0, STATIC
        FUNCALL GAPBondMgr_ProcessGAPMsg, GAP_NumActiveConnections
        LOCFRAME ISTACK, 0, STACK
        LOCFRAME PSTACK, 0, STACK
        LOCFRAME XSTACK, 36, STACK
        LOCFRAME IOVERLAY, 0, STATIC
        LOCFRAME DOVERLAY, 0, STATIC
        ARGFRAME ISTACK, 0, STACK
        ARGFRAME PSTACK, 0, STACK
        ARGFRAME XSTACK, 36, STACK
        ARGFRAME IOVERLAY, 0, STATIC
        ARGFRAME DOVERLAY, 0, STATIC
        FUNCALL GAPBondMgr_ProcessGAPMsg, gapBondMgrEraseAllBondings
        LOCFRAME ISTACK, 0, STACK
        LOCFRAME PSTACK, 0, STACK
        LOCFRAME XSTACK, 36, STACK
        LOCFRAME IOVERLAY, 0, STATIC
        LOCFRAME DOVERLAY, 0, STATIC
        ARGFRAME ISTACK, 0, STACK
        ARGFRAME PSTACK, 0, STACK
        ARGFRAME XSTACK, 36, STACK
        ARGFRAME IOVERLAY, 0, STATIC
        ARGFRAME DOVERLAY, 0, STATIC
        FUNCALL GAPBondMgr_ProcessGAPMsg, osal_memset
        LOCFRAME ISTACK, 0, STACK
        LOCFRAME PSTACK, 0, STACK
        LOCFRAME XSTACK, 36, STACK
        LOCFRAME IOVERLAY, 0, STATIC
        LOCFRAME DOVERLAY, 0, STATIC
        ARGFRAME ISTACK, 0, STACK
        ARGFRAME PSTACK, 0, STACK
        ARGFRAME XSTACK, 36, STACK
        ARGFRAME IOVERLAY, 0, STATIC
        ARGFRAME DOVERLAY, 0, STATIC
        FUNCALL GAPBondMgr_ProcessGAPMsg, gapBondMgrEraseBonding
        LOCFRAME ISTACK, 0, STACK
        LOCFRAME PSTACK, 0, STACK
        LOCFRAME XSTACK, 36, STACK
        LOCFRAME IOVERLAY, 0, STATIC
        LOCFRAME DOVERLAY, 0, STATIC
        ARGFRAME ISTACK, 0, STACK
        ARGFRAME PSTACK, 0, STACK
        ARGFRAME XSTACK, 36, STACK
        ARGFRAME IOVERLAY, 0, STATIC
        ARGFRAME DOVERLAY, 0, STATIC
        FUNCALL GAPBondMgr_ProcessGAPMsg, osal_snv_compact
        LOCFRAME ISTACK, 0, STACK
        LOCFRAME PSTACK, 0, STACK
        LOCFRAME XSTACK, 36, STACK
        LOCFRAME IOVERLAY, 0, STATIC
        LOCFRAME DOVERLAY, 0, STATIC
        ARGFRAME ISTACK, 0, STACK
        ARGFRAME PSTACK, 0, STACK
        ARGFRAME XSTACK, 36, STACK
        ARGFRAME IOVERLAY, 0, STATIC
        ARGFRAME DOVERLAY, 0, STATIC
        FUNCALL GAPBondMgr_ProcessGAPMsg, gapBondMgrReadBonds
        LOCFRAME ISTACK, 0, STACK
        LOCFRAME PSTACK, 0, STACK
        LOCFRAME XSTACK, 36, STACK
        LOCFRAME IOVERLAY, 0, STATIC
        LOCFRAME DOVERLAY, 0, STATIC
        ARGFRAME ISTACK, 0, STACK
        ARGFRAME PSTACK, 0, STACK
        ARGFRAME XSTACK, 36, STACK
        ARGFRAME IOVERLAY, 0, STATIC
        ARGFRAME DOVERLAY, 0, STATIC
        REQUIRE ?V0
        REQUIRE ?V1
        REQUIRE ?V2
        REQUIRE ?V3
        REQUIRE ?V4
        REQUIRE ?V5
        REQUIRE ?V6
        REQUIRE ?V7
        MOV     A,#-0x10
        LCALL   ?BANKED_ENTER_XDATA
          CFI DPH0 load(1, XDATA, add(CFA_XSP16, literal(-1)))
          CFI DPL0 load(1, XDATA, add(CFA_XSP16, literal(-2)))
          CFI ?BRET_EXT load(1, XDATA, add(CFA_XSP16, literal(-3)))
          CFI ?RET_HIGH load(1, XDATA, add(CFA_XSP16, literal(-4)))
          CFI ?RET_LOW load(1, XDATA, add(CFA_XSP16, literal(-5)))
          CFI R7 load(1, XDATA, add(CFA_XSP16, literal(-6)))
          CFI V7 load(1, XDATA, add(CFA_XSP16, literal(-7)))
          CFI V6 load(1, XDATA, add(CFA_XSP16, literal(-8)))
          CFI V5 load(1, XDATA, add(CFA_XSP16, literal(-9)))
          CFI V4 load(1, XDATA, add(CFA_XSP16, literal(-10)))
          CFI V3 load(1, XDATA, add(CFA_XSP16, literal(-11)))
          CFI V2 load(1, XDATA, add(CFA_XSP16, literal(-12)))
          CFI V1 load(1, XDATA, add(CFA_XSP16, literal(-13)))
          CFI V0 load(1, XDATA, add(CFA_XSP16, literal(-14)))
          CFI VB load(1, XDATA, add(CFA_XSP16, literal(-15)))
          CFI R6 load(1, XDATA, add(CFA_XSP16, literal(-16)))
          CFI CFA_SP SP+0
          CFI CFA_XSP16 add(XSP16, 16)
        ; Saved register size: 16
        ; Auto size: 20
        MOV     A,#-0x14
        LCALL   ?ALLOC_XSTACK8
          CFI CFA_XSP16 add(XSP16, 36)
        MOV     ?V2,R2
        MOV     ?V3,R3
        MOV     DPL,R2
        MOV     DPH,R3
        INC     DPTR
        MOV     ?V4,DPL
        MOV     ?V5,DPH
        MOV     A,R2
        ADD     A,#0x5
        MOV     ?V6,A
        CLR     A
        ADDC    A,?V3
        MOV     ?V7,A
        MOV     A,R2
        ADD     A,#0x9
        MOV     ?V0,A
        CLR     A
        ADDC    A,?V3
        MOV     ?V1,A
        MOV     A,R2
        ADD     A,#0x3
        MOV     R6,A
        CLR     A
        ADDC    A,?V3
        MOV     R7,A
        MOV     DPL,R2
        MOV     DPH,R3
        INC     DPTR
        INC     DPTR
        MOVX    A,@DPTR
        ADD     A,#-0x6
        JNZ     $+5
        LJMP    ??GAPBondMgr_ProcessGAPMsg_0 & 0xFFFF
        ADD     A,#-0x3
        JNZ     $+5
        LJMP    ??GAPBondMgr_ProcessGAPMsg_1 & 0xFFFF
        DEC     A
        JNZ     $+5
        LJMP    ??GAPBondMgr_ProcessGAPMsg_2 & 0xFFFF
        DEC     A
        JZ      ??GAPBondMgr_ProcessGAPMsg_3
        DEC     A
        JNZ     $+5
        LJMP    ??GAPBondMgr_ProcessGAPMsg_4 & 0xFFFF
        ADD     A,#-0x2
        JNZ     $+5
        LJMP    ??GAPBondMgr_ProcessGAPMsg_5 & 0xFFFF
        DEC     A
        JNZ     $+5
        LJMP    ??GAPBondMgr_ProcessGAPMsg_6 & 0xFFFF
        LJMP    ??GAPBondMgr_ProcessGAPMsg_7 & 0xFFFF
//  890   switch ( pMsg->opcode )
//  891   {
//  892     case GAP_PASSKEY_NEEDED_EVENT:
//  893       {
//  894         gapPasskeyNeededEvent_t *pPkt = (gapPasskeyNeededEvent_t *)pMsg;
//  895 
//  896         if ( pGapBondCB && pGapBondCB->passcodeCB )
??GAPBondMgr_ProcessGAPMsg_3:
        LCALL   ?Subroutine7 & 0xFFFF
??CrossCallReturnLabel_72:
        JZ      ??GAPBondMgr_ProcessGAPMsg_8
        MOVX    A,@DPTR
        MOV     DPH,A
        MOV     DPL,R0
        MOVX    A,@DPTR
        MOV     ?V6,A
        INC     DPTR
        MOVX    A,@DPTR
        MOV     ?V7,A
        MOV     A,?V6
        ORL     A,?V7
        JZ      ??GAPBondMgr_ProcessGAPMsg_8
//  897         {
//  898           // Ask app for a passcode
//  899           pGapBondCB->passcodeCB( pPkt->deviceAddr, pPkt->connectionHandle, pPkt->uiInputs, pPkt->uiOutputs );
        ; Setup parameters for indirect call
        MOV     A,R2
        LCALL   ?Subroutine19 & 0xFFFF
//  900         }
??CrossCallReturnLabel_30:
        MOVX    A,@DPTR
        MOV     ?V4,A
        MOV     R0,#?V4
        LCALL   ?PUSH_XSTACK_I_ONE
          CFI CFA_XSP16 add(XSP16, 37)
        MOV     A,R2
        ADD     A,#0xb
        MOV     DPL,A
        CLR     A
        ADDC    A,?V3
        MOV     DPH,A
        MOVX    A,@DPTR
        MOV     R1,A
        MOV     DPL,?V0
        MOV     DPH,?V1
        LCALL   ?Subroutine24 & 0xFFFF
??CrossCallReturnLabel_46:
        INC     R2
        INC     R2
        INC     R2
        MOV     A,R7
        MOV     R3,A
        MOV     DPL,?V6
        MOV     DPH,?V7
        LCALL   ?CALL_IND
        LJMP    ??GAPBondMgr_ProcessGAPMsg_9 & 0xFFFF
          CFI CFA_XSP16 add(XSP16, 36)
//  901         else
//  902         {
//  903           // No app support, use the default passcode
//  904           if ( GAP_PasscodeUpdate( gapBond_Passcode, pPkt->connectionHandle ) != SUCCESS )
??GAPBondMgr_ProcessGAPMsg_8:
        ; Setup parameters for call to function GAP_PasscodeUpdate
        MOV     DPL,?V0
        MOV     DPH,?V1
        LCALL   ?PUSH_XSTACK8_X_TWO
          CFI CFA_XSP16 add(XSP16, 38)
        MOV     DPTR,#gapBond_Passcode
        LCALL   ?XLOAD_R2345
        LCALL   ??GAP_PasscodeUpdate?relay; Banked call to: GAP_PasscodeUpdate
        MOV     A,#0x2
        LCALL   ?DEALLOC_XSTACK8
          CFI CFA_XSP16 add(XSP16, 36)
        MOV     A,R1
        JNZ     $+5
        LJMP    ??GAPBondMgr_ProcessGAPMsg_7 & 0xFFFF
//  905           {
//  906             VOID GAP_TerminateAuth( pPkt->connectionHandle, SMP_PAIRING_FAILED_PASSKEY_ENTRY_FAILED );
        ; Setup parameters for call to function GAP_TerminateAuth
        MOV     R1,#0x1
        MOV     DPL,?V0
        MOV     DPH,?V1
        LJMP    ??GAPBondMgr_ProcessGAPMsg_10 & 0xFFFF
//  907           }
//  908         }
//  909       }
//  910       break;
//  911 
//  912     case GAP_AUTHENTICATION_COMPLETE_EVENT:
//  913       {
//  914         gapAuthCompleteEvent_t *pPkt = (gapAuthCompleteEvent_t *)pMsg;
//  915 
//  916         // Should we save bonding information (one save at a time)
//  917         if ( (pPkt->hdr.status == SUCCESS)             && 
//  918              (pPkt->authState & SM_AUTH_STATE_BONDING) &&
//  919              (pAuthEvt == NULL) )
??GAPBondMgr_ProcessGAPMsg_2:
        MOV     DPL,?V4
        MOV     DPH,?V5
        MOVX    A,@DPTR
        JZ      $+5
        LJMP    ??GAPBondMgr_ProcessGAPMsg_11 & 0xFFFF
        MOV     DPL,?V6
        MOV     DPH,?V7
        MOVX    A,@DPTR
        MOV     C,0xE0 /* A   */.0
        JC      $+5
        LJMP    ??GAPBondMgr_ProcessGAPMsg_11 & 0xFFFF
        MOV     DPTR,#pAuthEvt
        LCALL   ??Subroutine31_0 & 0xFFFF
??CrossCallReturnLabel_65:
        JZ      $+5
        LJMP    ??GAPBondMgr_ProcessGAPMsg_11 & 0xFFFF
//  920         {
//  921           gapBondRec_t bondRec;
//  922 
//  923           VOID osal_memset( &bondRec, 0, sizeof ( gapBondRec_t ) ) ;
        ; Setup parameters for call to function osal_memset
        MOV     R4,#0xe
        MOV     R5,#0x0
        MOV     R1,#0x0
        MOV     A,#0x6
        LCALL   ?XSTACK_DISP101_8
        LCALL   ??osal_memset?relay  ; Banked call to: osal_memset
//  924 
//  925           // Do we have a public address in the data?
//  926           if ( pPkt->pIdentityInfo )
        MOV     A,?V2
        LCALL   ?Subroutine19 & 0xFFFF
??CrossCallReturnLabel_31:
        LCALL   ??Subroutine28_0 & 0xFFFF
??CrossCallReturnLabel_50:
        MOV     A,R2
        ORL     A,R3
        JZ      ??GAPBondMgr_ProcessGAPMsg_12
//  927           {
//  928             VOID osal_memcpy( bondRec.publicAddr, pPkt->pIdentityInfo->bd_addr, B_ADDR_LEN );
        ; Setup parameters for call to function osal_memcpy
        MOV     ?V0,#0x6
        MOV     ?V1,#0x0
        MOV     R0,#?V0
        LCALL   ?PUSH_XSTACK_I_TWO
          CFI CFA_XSP16 add(XSP16, 38)
        MOV     A,R2
        ADD     A,#0x10
        SJMP    ??GAPBondMgr_ProcessGAPMsg_13
          CFI CFA_XSP16 add(XSP16, 36)
//  929           }
//  930           else
//  931           {
//  932             linkDBItem_t *pLinkItem = linkDB_Find( pPkt->connectionHandle );
??GAPBondMgr_ProcessGAPMsg_12:
        ; Setup parameters for call to function linkDB_Find
        LCALL   ??Subroutine27_0 & 0xFFFF
??CrossCallReturnLabel_58:
        LCALL   ??linkDB_Find?relay  ; Banked call to: linkDB_Find
//  933             if ( pLinkItem )
        MOV     A,R2
        ORL     A,R3
        JNZ     $+5
        LJMP    ??GAPBondMgr_ProcessGAPMsg_7 & 0xFFFF
//  934             {
//  935               VOID osal_memcpy( bondRec.publicAddr, pLinkItem->addr, B_ADDR_LEN );
        ; Setup parameters for call to function osal_memcpy
        MOV     ?V0,#0x6
        MOV     ?V1,#0x0
        MOV     R0,#?V0
        LCALL   ?PUSH_XSTACK_I_TWO
          CFI CFA_XSP16 add(XSP16, 38)
        MOV     A,R2
        ADD     A,#0x5
??GAPBondMgr_ProcessGAPMsg_13:
        MOV     R4,A
        CLR     A
        ADDC    A,R3
        MOV     R5,A
        MOV     A,#0x8
        LCALL   ?XSTACK_DISP101_8
        LCALL   ??osal_memcpy?relay  ; Banked call to: osal_memcpy
        MOV     A,#0x2
        LCALL   ?DEALLOC_XSTACK8
          CFI CFA_XSP16 add(XSP16, 36)
//  936             }
//  937             else
//  938             {
//  939               // We don't have an address, so ignore the message.
//  940               break;
//  941             }
//  942           }
//  943 
//  944           // Save off of the authentication state
//  945           bondRec.stateFlags |= (pPkt->authState & SM_AUTH_STATE_AUTHENTICATED) ? GAP_BONDED_STATE_AUTHENTICATED : 0;
        MOV     DPL,?V6
        MOV     DPH,?V7
        MOVX    A,@DPTR
        MOV     C,0xE0 /* A   */.2
        JNC     ??GAPBondMgr_ProcessGAPMsg_14
        SETB    B.0
        SJMP    ??GAPBondMgr_ProcessGAPMsg_15
??GAPBondMgr_ProcessGAPMsg_14:
        CLR     B.0
??GAPBondMgr_ProcessGAPMsg_15:
        MOV     C,B.0
        CLR     A
        RLC     A
        MOV     R0,A
        MOV     A,#0x12
        LCALL   ?XSTACK_DISP0_8
        MOVX    A,@DPTR
        ORL     A,R0
        MOVX    @DPTR,A
//  946 
//  947           if ( !gapBondMgrAddBond( &bondRec, pPkt ) )
        ; Setup parameters for call to function gapBondMgrAddBond
        MOV     R4,?V2
        MOV     R5,?V3
        MOV     A,#0x6
        LCALL   ?XSTACK_DISP101_8
        LCALL   ??gapBondMgrAddBond?relay; Banked call to: gapBondMgrAddBond
        MOV     A,R1
        JNZ     ??GAPBondMgr_ProcessGAPMsg_11
//  948           {
//  949             // Notify our task to save bonding information in NV
//  950             osal_set_event( gapBondMgr_TaskID, GAP_BOND_SAVE_REC_EVT );
        ; Setup parameters for call to function osal_set_event
        MOV     R2,#0x2
        MOV     R3,#0x0
        MOV     DPTR,#gapBondMgr_TaskID
        MOVX    A,@DPTR
        MOV     R1,A
        LCALL   ??osal_set_event?relay; Banked call to: osal_set_event
//  951       
//  952             // We're not done with this message; it will be freed later
//  953             return ( FALSE );
        MOV     R1,#0x0
        LJMP    ??GAPBondMgr_ProcessGAPMsg_16 & 0xFFFF
//  954           }
//  955         }
//  956 
//  957         // Call app state callback in the fail case. Success is handled after GAP_BOND_SAVE_REC_EVT.
//  958         if ( pGapBondCB && pGapBondCB->pairStateCB )
??GAPBondMgr_ProcessGAPMsg_11:
        LCALL   ?Subroutine7 & 0xFFFF
??CrossCallReturnLabel_73:
        JNZ     $+5
        LJMP    ??GAPBondMgr_ProcessGAPMsg_7 & 0xFFFF
        LCALL   ?Subroutine8 & 0xFFFF
??CrossCallReturnLabel_0:
        JNZ     $+5
        LJMP    ??GAPBondMgr_ProcessGAPMsg_7 & 0xFFFF
//  959         {
//  960           pGapBondCB->pairStateCB( pPkt->connectionHandle, GAPBOND_PAIRING_STATE_COMPLETE, pPkt->hdr.status );
        ; Setup parameters for indirect call
        MOV     DPL,?V4
        MOV     DPH,?V5
        MOVX    A,@DPTR
        MOV     R4,A
        MOV     R1,#0x1
        LJMP    ??GAPBondMgr_ProcessGAPMsg_17 & 0xFFFF
//  961         }
//  962       }
//  963       break;
//  964 
//  965     case GAP_BOND_COMPLETE_EVENT:
//  966       // This message is received when the bonding is complete.  If hdr.status is SUCCESS
//  967       // then call app state callback.  If hdr.status is NOT SUCCESS, the connection will be
//  968       // dropped at the LL because of a MIC failure, so again nothing to do.
//  969       {
//  970         gapBondCompleteEvent_t *pPkt = (gapBondCompleteEvent_t *)pMsg;
//  971 
//  972 #if ( HOST_CONFIG & CENTRAL_CFG )
//  973         if ( pPkt->hdr.status == LL_ENC_KEY_REQ_REJECTED )
??GAPBondMgr_ProcessGAPMsg_5:
        MOV     DPL,?V4
        MOV     DPH,?V5
        MOVX    A,@DPTR
        XRL     A,#0x6
        JNZ     ??GAPBondMgr_ProcessGAPMsg_18
//  974         {
//  975           // LTK not found on peripheral device (Pin or Key Missing). See which
//  976           // option was configured for unsuccessful bonding.
//  977           linkDBItem_t *pLinkItem = linkDB_Find( pPkt->connectionHandle );
        ; Setup parameters for call to function linkDB_Find
        LCALL   ??Subroutine27_0 & 0xFFFF
??CrossCallReturnLabel_59:
        LCALL   ??linkDB_Find?relay  ; Banked call to: linkDB_Find
        MOV     ?V0,R2
        MOV     ?V1,R3
//  978           if ( pLinkItem )
        MOV     A,R2
        ORL     A,?V1
        JZ      ??GAPBondMgr_ProcessGAPMsg_18
//  979           {
//  980             switch ( gapBond_BondFailOption )
        MOV     DPTR,#gapBond_BondFailOption
        MOVX    A,@DPTR
        DEC     A
        JZ      ??GAPBondMgr_ProcessGAPMsg_19
        DEC     A
        JZ      ??GAPBondMgr_ProcessGAPMsg_20
        DEC     A
        JZ      ??GAPBondMgr_ProcessGAPMsg_21
        SJMP    ??GAPBondMgr_ProcessGAPMsg_18
//  981             {
//  982               case GAPBOND_FAIL_INITIATE_PAIRING:
//  983                 // Initiate pairing
//  984                 gapBondMgrAuthenticate( pPkt->connectionHandle, pLinkItem->addrType, NULL );
??GAPBondMgr_ProcessGAPMsg_19:
        ; Setup parameters for call to function gapBondMgrAuthenticate
        MOV     R4,#0x0
        MOV     R5,#0x0
        MOV     DPL,R2
        MOV     DPH,R3
        INC     DPTR
        INC     DPTR
        INC     DPTR
        INC     DPTR
        LCALL   ?Subroutine11 & 0xFFFF
??CrossCallReturnLabel_63:
        LCALL   ??gapBondMgrAuthenticate?relay; Banked call to: gapBondMgrAuthenticate
//  985                 break;
        SJMP    ??GAPBondMgr_ProcessGAPMsg_18
//  986 
//  987               case GAPBOND_FAIL_TERMINATE_LINK:
//  988                 // Drop connection
//  989                 GAP_TerminateLinkReq( pLinkItem->taskID, pPkt->connectionHandle, HCI_DISCONNECT_AUTH_FAILURE );
//  990                 break;
//  991 
//  992               case GAPBOND_FAIL_TERMINATE_ERASE_BONDS:
//  993                 // Set up bond manager to erase all existing bonds after connection terminates
//  994                 VOID GAPBondMgr_SetParameter( GAPBOND_ERASE_ALLBONDS, 0, NULL );
??GAPBondMgr_ProcessGAPMsg_21:
        ; Setup parameters for call to function GAPBondMgr_SetParameter
        MOV     R4,#0x0
        MOV     R5,#0x0
        MOV     R1,#0x0
        MOV     R2,#0x9
        MOV     R3,#0x4
        LCALL   ??GAPBondMgr_SetParameter?relay; Banked call to: GAPBondMgr_SetParameter
//  995 
//  996                 // Drop connection
//  997                 GAP_TerminateLinkReq( pLinkItem->taskID, pPkt->connectionHandle, HCI_DISCONNECT_AUTH_FAILURE );
        ; Setup parameters for call to function GAP_TerminateLinkReq
??GAPBondMgr_ProcessGAPMsg_20:
        MOV     R4,#0x5
        LCALL   ??Subroutine27_0 & 0xFFFF
??CrossCallReturnLabel_60:
        MOV     DPL,?V0
        MOV     DPH,?V1
        MOVX    A,@DPTR
        MOV     R1,A
        LCALL   ??GAP_TerminateLinkReq?relay; Banked call to: GAP_TerminateLinkReq
//  998                 break;
//  999 
// 1000               case GAPBOND_FAIL_NO_ACTION:
// 1001                 // fall through
// 1002               default:
// 1003                 // do nothing
// 1004                 break;
// 1005             }
// 1006           }
// 1007         }
// 1008 #endif
// 1009         if ( pGapBondCB && pGapBondCB->pairStateCB )
??GAPBondMgr_ProcessGAPMsg_18:
        LCALL   ?Subroutine7 & 0xFFFF
??CrossCallReturnLabel_74:
        JNZ     $+5
        LJMP    ??GAPBondMgr_ProcessGAPMsg_7 & 0xFFFF
        LCALL   ?Subroutine8 & 0xFFFF
??CrossCallReturnLabel_1:
        JNZ     $+5
        LJMP    ??GAPBondMgr_ProcessGAPMsg_7 & 0xFFFF
// 1010         {
// 1011           pGapBondCB->pairStateCB( pPkt->connectionHandle, GAPBOND_PAIRING_STATE_BONDED, pMsg->hdr.status );
        ; Setup parameters for indirect call
        MOV     DPL,?V2
        MOV     DPH,?V3
        INC     DPTR
        MOVX    A,@DPTR
        MOV     R4,A
        MOV     R1,#0x2
        LJMP    ??GAPBondMgr_ProcessGAPMsg_17 & 0xFFFF
// 1012         }
// 1013       }
// 1014       break;
// 1015 
// 1016     case GAP_SIGNATURE_UPDATED_EVENT:
// 1017       {
// 1018         uint8 idx;
// 1019         gapSignUpdateEvent_t *pPkt = (gapSignUpdateEvent_t *)pMsg;
// 1020 
// 1021         idx = GAPBondMgr_ResolveAddr( pPkt->addrType, pPkt->devAddr, NULL );
??GAPBondMgr_ProcessGAPMsg_1:
        ; Setup parameters for call to function GAPBondMgr_ResolveAddr
        MOV     R4,#0x0
        MOV     R5,#0x0
        MOV     A,R2
        ADD     A,#0x4
        MOV     R2,A
        CLR     A
        ADDC    A,?V3
        MOV     R3,A
        MOV     DPL,R6
        MOV     DPH,R7
        MOVX    A,@DPTR
        MOV     R1,A
        LCALL   ??GAPBondMgr_ResolveAddr?relay; Banked call to: GAPBondMgr_ResolveAddr
        MOV     A,R1
        MOV     R0,A
// 1022         if ( idx < GAP_BONDINGS_MAX )
        CLR     C
        SUBB    A,#0xa
        JC      $+5
        LJMP    ??GAPBondMgr_ProcessGAPMsg_7 & 0xFFFF
// 1023         {
// 1024           // Save the sign counter
// 1025           VOID osal_snv_write( devSignCounterNvID(idx), sizeof ( uint32 ), &(pPkt->signCounter) );
        ; Setup parameters for call to function osal_snv_write
        MOV     A,?V2
        ADD     A,#0xa
        MOV     R4,A
        CLR     A
        ADDC    A,?V3
        MOV     R5,A
        MOV     R2,#0x4
        MOV     B,#0x6
        MOV     A,R0
        MUL     AB
        ADD     A,#0x25
        MOV     R1,A
        LCALL   ??osal_snv_write?relay; Banked call to: osal_snv_write
        LJMP    ??GAPBondMgr_ProcessGAPMsg_7 & 0xFFFF
// 1026         }
// 1027       }
// 1028       break;
// 1029 
// 1030 #if ( HOST_CONFIG & PERIPHERAL_CFG )
// 1031     case GAP_PAIRING_REQ_EVENT:
// 1032       {
// 1033         gapPairingReqEvent_t *pPkt = (gapPairingReqEvent_t *)pMsg;
// 1034 
// 1035         if ( gapBond_AutoFail != FALSE )
??GAPBondMgr_ProcessGAPMsg_6:
        LCALL   ??Subroutine27_0 & 0xFFFF
??CrossCallReturnLabel_61:
        MOV     DPTR,#gapBond_AutoFail
        MOVX    A,@DPTR
        JZ      ??GAPBondMgr_ProcessGAPMsg_22
// 1036         {
// 1037           // Auto Fail TEST MODE (DON'T USE THIS) - Sends pre-setup reason
// 1038           VOID GAP_TerminateAuth( pPkt->connectionHandle, gapBond_AutoFailReason );
        ; Setup parameters for call to function GAP_TerminateAuth
        MOV     DPTR,#gapBond_AutoFailReason
        MOVX    A,@DPTR
        MOV     R1,A
        LJMP    ??GAPBondMgr_ProcessGAPMsg_23 & 0xFFFF
// 1039         }
// 1040         else if ( gapBond_PairingMode == GAPBOND_PAIRING_MODE_NO_PAIRING )
??GAPBondMgr_ProcessGAPMsg_22:
        MOV     DPTR,#gapBond_PairingMode
        MOVX    A,@DPTR
        JNZ     ??GAPBondMgr_ProcessGAPMsg_24
// 1041         {
// 1042           // No Pairing - Send error
// 1043           VOID GAP_TerminateAuth( pPkt->connectionHandle, SMP_PAIRING_FAILED_NOT_SUPPORTED );
        ; Setup parameters for call to function GAP_TerminateAuth
        MOV     R1,#0x5
        LJMP    ??GAPBondMgr_ProcessGAPMsg_23 & 0xFFFF
// 1044         }
// 1045         else
// 1046         {
// 1047           linkDBItem_t *pLinkItem = linkDB_Find( pPkt->connectionHandle );
??GAPBondMgr_ProcessGAPMsg_24:
        ; Setup parameters for call to function linkDB_Find
        LCALL   ??linkDB_Find?relay  ; Banked call to: linkDB_Find
        MOV     ?V4,R2
        MOV     ?V5,R3
        MOV     R0,?V4
        MOV     R1,?V5
// 1048 
// 1049           // Requesting bonding?
// 1050           if ( pPkt->pairReq.authReq & SM_AUTH_STATE_BONDING )
        MOV     A,R0
        ADD     A,#0x4
        MOV     ?V4,A
        CLR     A
        ADDC    A,R1
        MOV     ?V5,A
        MOV     DPL,?V2
        MOV     DPH,?V3
        INC     DPTR
        INC     DPTR
        INC     DPTR
        INC     DPTR
        INC     DPTR
        INC     DPTR
        INC     DPTR
        MOVX    A,@DPTR
        MOV     C,0xE0 /* A   */.0
        JNC     ??GAPBondMgr_ProcessGAPMsg_25
// 1051           {
// 1052             if ( pLinkItem )
        MOV     A,R0
        ORL     A,R1
        JNZ     $+5
        LJMP    ??GAPBondMgr_ProcessGAPMsg_7 & 0xFFFF
// 1053             {
// 1054               if ( (pLinkItem->addrType != ADDRTYPE_PUBLIC) && (pPkt->pairReq.keyDist.mIdKey == FALSE) )
        MOV     DPL,?V4
        MOV     DPH,?V5
        MOVX    A,@DPTR
        MOV     ?V2,A
        JZ      ??GAPBondMgr_ProcessGAPMsg_25
        MOV     DPL,?V0
        MOV     DPH,?V1
        MOVX    A,@DPTR
        ANL     A,#0x10
        JNZ     ??GAPBondMgr_ProcessGAPMsg_25
// 1055               {
// 1056                 uint8 publicAddr[B_ADDR_LEN];
// 1057 
// 1058                 // Check if we already have the public address in NV
// 1059                 if ( GAPBondMgr_ResolveAddr(pLinkItem->addrType, pLinkItem->addr, publicAddr ) == FALSE )
        ; Setup parameters for call to function GAPBondMgr_ResolveAddr
        MOV     R4,?XSP + 0
        MOV     R5,?XSP + 1
        MOV     A,R0
        ADD     A,#0x5
        MOV     R2,A
        CLR     A
        ADDC    A,R1
        MOV     R3,A
        MOV     R1,?V2
        LCALL   ??GAPBondMgr_ResolveAddr?relay; Banked call to: GAPBondMgr_ResolveAddr
        MOV     A,R1
        JNZ     ??GAPBondMgr_ProcessGAPMsg_25
// 1060                 {
// 1061                   // Can't bond to a non-public address if we don't know the public address
// 1062                   VOID GAP_TerminateAuth( pPkt->connectionHandle, SMP_PAIRING_FAILED_AUTH_REQ );
        ; Setup parameters for call to function GAP_TerminateAuth
        MOV     R1,#0x3
        MOV     DPL,R6
        MOV     DPH,R7
// 1063                   break;
// 1064                 }
// 1065               }
// 1066             }
// 1067             else
// 1068             {
// 1069               // Can't find the connection, ignore the message
// 1070               break;
// 1071             }
// 1072           }
??GAPBondMgr_ProcessGAPMsg_10:
        LCALL   ??Subroutine28_0 & 0xFFFF
??CrossCallReturnLabel_51:
        LJMP    ??GAPBondMgr_ProcessGAPMsg_23 & 0xFFFF
// 1073 
// 1074           // Send pairing response
// 1075           gapBondMgrAuthenticate( pPkt->connectionHandle, pLinkItem->addrType, &(pPkt->pairReq) );
??GAPBondMgr_ProcessGAPMsg_25:
        ; Setup parameters for call to function gapBondMgrAuthenticate
        MOV     R4,?V6
        MOV     R5,?V7
        MOV     DPL,?V4
        MOV     DPH,?V5
        LCALL   ?Subroutine11 & 0xFFFF
??CrossCallReturnLabel_64:
        LCALL   ??gapBondMgrAuthenticate?relay; Banked call to: gapBondMgrAuthenticate
// 1076 
// 1077           // Call app state callback
// 1078           if ( pGapBondCB && pGapBondCB->pairStateCB )
        LCALL   ?Subroutine7 & 0xFFFF
??CrossCallReturnLabel_75:
        JNZ     $+5
        LJMP    ??GAPBondMgr_ProcessGAPMsg_7 & 0xFFFF
        LCALL   ?Subroutine8 & 0xFFFF
??CrossCallReturnLabel_2:
        JNZ     $+5
        LJMP    ??GAPBondMgr_ProcessGAPMsg_7 & 0xFFFF
// 1079           {
// 1080             pGapBondCB->pairStateCB( pPkt->connectionHandle, GAPBOND_PAIRING_STATE_STARTED, SUCCESS );
        ; Setup parameters for indirect call
        MOV     R4,#0x0
        MOV     R1,#0x0
// 1081           }
// 1082         }
// 1083       }
??GAPBondMgr_ProcessGAPMsg_17:
        LCALL   ??Subroutine27_0 & 0xFFFF
??CrossCallReturnLabel_62:
        MOV     DPL,R0
        MOV     DPH,?V1
        LCALL   ?CALL_IND
        LJMP    ??GAPBondMgr_ProcessGAPMsg_7 & 0xFFFF
// 1084       break;
// 1085 #endif
// 1086 
// 1087 #if ( HOST_CONFIG & CENTRAL_CFG )
// 1088     case GAP_SLAVE_REQUESTED_SECURITY_EVENT:
// 1089       {
// 1090         uint16 connHandle = ((gapSlaveSecurityReqEvent_t *)pMsg)->connectionHandle;
??GAPBondMgr_ProcessGAPMsg_4:
        MOV     DPL,R6
        MOV     DPH,R7
        MOVX    A,@DPTR
        MOV     ?V0,A
        INC     DPTR
        MOVX    A,@DPTR
        MOV     ?V1,A
// 1091         uint8 idx;
// 1092         uint8 publicAddr[B_ADDR_LEN] = {0, 0, 0, 0, 0, 0};
        MOV     DPTR,#`?<Constant {0, 0, 0, 0, 0, 0}>_1`
        MOV     R4,?XSP + 0
        MOV     R5,?XSP + 1
        MOV     A,#0x6
        LCALL   ?MOVE_LONG8_XDATA_XDATA
// 1093         linkDBItem_t *pLink = linkDB_Find( connHandle );
        ; Setup parameters for call to function linkDB_Find
        MOV     R2,?V0
        MOV     R3,?V1
        LCALL   ??linkDB_Find?relay  ; Banked call to: linkDB_Find
        MOV     ?V2,R2
        MOV     ?V3,R3
        MOV     R0,?V2
        MOV     R1,?V3
// 1094 
// 1095         // If link found and not already initiating security
// 1096         if (pLink != NULL && gapBond_PairingMode != GAPBOND_PAIRING_MODE_INITIATE)
        MOV     A,R0
        ORL     A,R1
        JNZ     $+5
        LJMP    ??GAPBondMgr_ProcessGAPMsg_7 & 0xFFFF
        MOV     DPTR,#gapBond_PairingMode
        MOVX    A,@DPTR
        XRL     A,#0x2
        JNZ     $+5
        LJMP    ??GAPBondMgr_ProcessGAPMsg_7 & 0xFFFF
// 1097         {
// 1098           // If already bonded initiate encryption
// 1099           idx = GAPBondMgr_ResolveAddr( pLink->addrType, pLink->addr, publicAddr );
        MOV     A,R0
        ADD     A,#0x4
        MOV     R6,A
        CLR     A
        ADDC    A,R1
        MOV     R7,A
        ; Setup parameters for call to function GAPBondMgr_ResolveAddr
        MOV     R4,?XSP + 0
        MOV     R5,?XSP + 1
        MOV     A,R0
        ADD     A,#0x5
        MOV     R2,A
        CLR     A
        ADDC    A,R1
        MOV     R3,A
        MOV     DPL,R6
        MOV     DPH,R7
        MOVX    A,@DPTR
        MOV     R1,A
        LCALL   ??GAPBondMgr_ResolveAddr?relay; Banked call to: GAPBondMgr_ResolveAddr
        MOV     A,R1
        MOV     ?V2,A
// 1100           if ( idx < GAP_BONDINGS_MAX )
        CLR     C
        SUBB    A,#0xa
        JNC     ??GAPBondMgr_ProcessGAPMsg_26
// 1101           {
// 1102             gapBondMgrBondReq( connHandle, idx, gapBondMgrGetStateFlags( idx ),
// 1103                                GAP_PROFILE_CENTRAL, TRUE );
        ; Setup parameters for call to function gapBondMgrBondReq
        MOV     ?V3,#0x1
        MOV     R0,#?V3
        LCALL   ?PUSH_XSTACK_I_ONE
          CFI CFA_XSP16 add(XSP16, 37)
        ; Setup parameters for call to function gapBondMgrGetStateFlags
        LCALL   ??gapBondMgrGetStateFlags?relay; Banked call to: gapBondMgrGetStateFlags
        MOV     A,R1
        MOV     R4,A
        MOV     A,#0x8
        MOV     R5,A
        MOV     R1,?V2
        MOV     R2,?V0
        MOV     R3,?V1
        LCALL   ??gapBondMgrBondReq?relay; Banked call to: gapBondMgrBondReq
??GAPBondMgr_ProcessGAPMsg_9:
        MOV     A,#0x1
        LCALL   ?DEALLOC_XSTACK8
          CFI CFA_XSP16 add(XSP16, 36)
        SJMP    ??GAPBondMgr_ProcessGAPMsg_7
// 1104           }
// 1105           // Else if no pairing allowed
// 1106           else if ( gapBond_PairingMode == GAPBOND_PAIRING_MODE_NO_PAIRING )
??GAPBondMgr_ProcessGAPMsg_26:
        MOV     DPTR,#gapBond_PairingMode
        MOVX    A,@DPTR
        JNZ     ??GAPBondMgr_ProcessGAPMsg_27
// 1107           {
// 1108             // Send error
// 1109             VOID GAP_TerminateAuth( connHandle, SMP_PAIRING_FAILED_NOT_SUPPORTED );
        ; Setup parameters for call to function GAP_TerminateAuth
        MOV     R1,#0x5
        MOV     R2,?V0
        MOV     R3,?V1
??GAPBondMgr_ProcessGAPMsg_23:
        LCALL   ??GAP_TerminateAuth?relay; Banked call to: GAP_TerminateAuth
        SJMP    ??GAPBondMgr_ProcessGAPMsg_7
// 1110           }
// 1111           // Else if waiting for request
// 1112           else if (gapBond_PairingMode == GAPBOND_PAIRING_MODE_WAIT_FOR_REQ)
??GAPBondMgr_ProcessGAPMsg_27:
        XRL     A,#0x1
        JNZ     ??GAPBondMgr_ProcessGAPMsg_7
// 1113           {
// 1114             // Initiate pairing
// 1115             gapBondMgrAuthenticate( connHandle, pLink->addrType, NULL );
        ; Setup parameters for call to function gapBondMgrAuthenticate
        MOV     R4,#0x0
        MOV     R5,#0x0
        MOV     DPL,R6
        MOV     DPH,R7
        MOVX    A,@DPTR
        MOV     R1,A
        MOV     R2,?V0
        MOV     R3,?V1
        LCALL   ??gapBondMgrAuthenticate?relay; Banked call to: gapBondMgrAuthenticate
        SJMP    ??GAPBondMgr_ProcessGAPMsg_7
// 1116           }
// 1117         }
// 1118       }
// 1119       break;
// 1120 #endif
// 1121 
// 1122     case GAP_LINK_TERMINATED_EVENT:
// 1123       if ( GAP_NumActiveConnections() == 0 )
??GAPBondMgr_ProcessGAPMsg_0:
        ; Setup parameters for call to function GAP_NumActiveConnections
        LCALL   ??GAP_NumActiveConnections?relay; Banked call to: GAP_NumActiveConnections
        MOV     A,R1
        JNZ     ??GAPBondMgr_ProcessGAPMsg_7
// 1124       {
// 1125         // See if we're asked to erase all bonding records
// 1126         if ( eraseAllBonds == TRUE )
        MOV     DPTR,#eraseAllBonds
        MOVX    A,@DPTR
        XRL     A,#0x1
        JNZ     ??GAPBondMgr_ProcessGAPMsg_28
// 1127         {
// 1128           VOID gapBondMgrEraseAllBondings();
        ; Setup parameters for call to function gapBondMgrEraseAllBondings
        LCALL   ??gapBondMgrEraseAllBondings?relay; Banked call to: gapBondMgrEraseAllBondings
// 1129           eraseAllBonds = FALSE;
        MOV     DPTR,#eraseAllBonds
        CLR     A
        MOVX    @DPTR,A
// 1130           
// 1131           // Reset bonds to delete table
// 1132           osal_memset( bondsToDelete, FALSE, sizeof( bondsToDelete ) );
        ; Setup parameters for call to function osal_memset
        MOV     R4,#0xa
        MOV     R5,A
        MOV     R1,A
        MOV     R2,#bondsToDelete & 0xff
        MOV     R3,#(bondsToDelete >> 8) & 0xff
        LCALL   ??osal_memset?relay  ; Banked call to: osal_memset
        SJMP    ??GAPBondMgr_ProcessGAPMsg_29
// 1133         }
// 1134         else
// 1135         {
// 1136           // See if we're asked to erase any single bonding records
// 1137           for (uint8 idx = 0; idx < GAP_BONDINGS_MAX; idx++)
??GAPBondMgr_ProcessGAPMsg_28:
        MOV     ?V2,#0x0
// 1138           {
// 1139             if ( bondsToDelete[idx] == TRUE )
??GAPBondMgr_ProcessGAPMsg_30:
        MOV     ?V0,?V2
        MOV     A,#bondsToDelete & 0xff
        ADD     A,?V0
        MOV     R6,A
        CLR     A
        ADDC    A,#(bondsToDelete >> 8) & 0xff
        MOV     R7,A
        MOV     DPL,R6
        MOV     DPH,R7
        MOVX    A,@DPTR
        XRL     A,#0x1
        JNZ     ??GAPBondMgr_ProcessGAPMsg_31
// 1140             {
// 1141               VOID gapBondMgrEraseBonding( idx );
        ; Setup parameters for call to function gapBondMgrEraseBonding
        MOV     R1,?V2
        LCALL   ??gapBondMgrEraseBonding?relay; Banked call to: gapBondMgrEraseBonding
// 1142               bondsToDelete[idx] = FALSE;
        MOV     DPL,R6
        MOV     DPH,R7
        CLR     A
        MOVX    @DPTR,A
// 1143             }
// 1144           }
??GAPBondMgr_ProcessGAPMsg_31:
        INC     ?V2
        MOV     A,?V2
        CLR     C
        SUBB    A,#0xa
        JC      ??GAPBondMgr_ProcessGAPMsg_30
// 1145         }
// 1146 
// 1147         // See if NV needs a compaction
// 1148         VOID osal_snv_compact( NV_COMPACT_THRESHOLD );
??GAPBondMgr_ProcessGAPMsg_29:
        ; Setup parameters for call to function osal_snv_compact
        MOV     R1,#0x50
        LCALL   ??osal_snv_compact?relay; Banked call to: osal_snv_compact
// 1149 
// 1150         // Make sure Bond RAM Shadow is up-to-date
// 1151         gapBondMgrReadBonds();
        ; Setup parameters for call to function gapBondMgrReadBonds
        LCALL   ??gapBondMgrReadBonds?relay; Banked call to: gapBondMgrReadBonds
// 1152       }
// 1153       break;
// 1154 
// 1155     default:
// 1156       break;
// 1157   }
// 1158   
// 1159   return ( TRUE );
??GAPBondMgr_ProcessGAPMsg_7:
        MOV     R1,#0x1
??GAPBondMgr_ProcessGAPMsg_16:
        MOV     A,#0x14
        LJMP    ?Subroutine0 & 0xFFFF
          CFI EndBlock cfiBlock16
// 1160 }

        RSEG BANKED_CODE:CODE:NOROOT(0)
?Subroutine19:
          CFI Block cfiCond17 Using cfiCommon0
          CFI Function GAPBondMgr_ProcessGAPMsg
          CFI Conditional ??CrossCallReturnLabel_30
          CFI R6 load(1, XDATA, add(CFA_XSP16, literal(-16)))
          CFI VB load(1, XDATA, add(CFA_XSP16, literal(-15)))
          CFI V0 load(1, XDATA, add(CFA_XSP16, literal(-14)))
          CFI V1 load(1, XDATA, add(CFA_XSP16, literal(-13)))
          CFI V2 load(1, XDATA, add(CFA_XSP16, literal(-12)))
          CFI V3 load(1, XDATA, add(CFA_XSP16, literal(-11)))
          CFI V4 load(1, XDATA, add(CFA_XSP16, literal(-10)))
          CFI V5 load(1, XDATA, add(CFA_XSP16, literal(-9)))
          CFI V6 load(1, XDATA, add(CFA_XSP16, literal(-8)))
          CFI V7 load(1, XDATA, add(CFA_XSP16, literal(-7)))
          CFI R7 load(1, XDATA, add(CFA_XSP16, literal(-6)))
          CFI ?RET_LOW load(1, XDATA, add(CFA_XSP16, literal(-5)))
          CFI ?RET_HIGH load(1, XDATA, add(CFA_XSP16, literal(-4)))
          CFI ?BRET_EXT load(1, XDATA, add(CFA_XSP16, literal(-3)))
          CFI DPL0 load(1, XDATA, add(CFA_XSP16, literal(-2)))
          CFI DPH0 load(1, XDATA, add(CFA_XSP16, literal(-1)))
          CFI CFA_SP SP+-2
          CFI CFA_XSP16 add(XSP16, 36)
          CFI Block cfiCond18 Using cfiCommon0
          CFI (cfiCond18) Function GAPBondMgr_ProcessGAPMsg
          CFI (cfiCond18) Conditional ??CrossCallReturnLabel_31
          CFI (cfiCond18) R6 load(1, XDATA, add(CFA_XSP16, literal(-16)))
          CFI (cfiCond18) VB load(1, XDATA, add(CFA_XSP16, literal(-15)))
          CFI (cfiCond18) V0 load(1, XDATA, add(CFA_XSP16, literal(-14)))
          CFI (cfiCond18) V1 load(1, XDATA, add(CFA_XSP16, literal(-13)))
          CFI (cfiCond18) V2 load(1, XDATA, add(CFA_XSP16, literal(-12)))
          CFI (cfiCond18) V3 load(1, XDATA, add(CFA_XSP16, literal(-11)))
          CFI (cfiCond18) V4 load(1, XDATA, add(CFA_XSP16, literal(-10)))
          CFI (cfiCond18) V5 load(1, XDATA, add(CFA_XSP16, literal(-9)))
          CFI (cfiCond18) V6 load(1, XDATA, add(CFA_XSP16, literal(-8)))
          CFI (cfiCond18) V7 load(1, XDATA, add(CFA_XSP16, literal(-7)))
          CFI (cfiCond18) R7 load(1, XDATA, add(CFA_XSP16, literal(-6)))
          CFI (cfiCond18) ?RET_LOW load(1, XDATA, add(CFA_XSP16, literal(-5)))
          CFI (cfiCond18) ?RET_HIGH load(1, XDATA, add(CFA_XSP16, literal(-4)))
          CFI (cfiCond18) ?BRET_EXT load(1, XDATA, add(CFA_XSP16, literal(-3)))
          CFI (cfiCond18) DPL0 load(1, XDATA, add(CFA_XSP16, literal(-2)))
          CFI (cfiCond18) DPH0 load(1, XDATA, add(CFA_XSP16, literal(-1)))
          CFI (cfiCond18) CFA_SP SP+-2
          CFI (cfiCond18) CFA_XSP16 add(XSP16, 36)
          CFI Block cfiPicker19 Using cfiCommon1
          CFI (cfiPicker19) NoFunction
          CFI (cfiPicker19) Picker
        ADD     A,#0xc
        MOV     DPL,A
        CLR     A
        ADDC    A,?V3
        MOV     DPH,A
        RET
          CFI EndBlock cfiCond17
          CFI EndBlock cfiCond18
          CFI EndBlock cfiPicker19

        RSEG BANKED_CODE:CODE:NOROOT(0)
?Subroutine8:
          CFI Block cfiCond20 Using cfiCommon0
          CFI Function GAPBondMgr_ProcessGAPMsg
          CFI Conditional ??CrossCallReturnLabel_0
          CFI R6 load(1, XDATA, add(CFA_XSP16, literal(-16)))
          CFI VB load(1, XDATA, add(CFA_XSP16, literal(-15)))
          CFI V0 load(1, XDATA, add(CFA_XSP16, literal(-14)))
          CFI V1 load(1, XDATA, add(CFA_XSP16, literal(-13)))
          CFI V2 load(1, XDATA, add(CFA_XSP16, literal(-12)))
          CFI V3 load(1, XDATA, add(CFA_XSP16, literal(-11)))
          CFI V4 load(1, XDATA, add(CFA_XSP16, literal(-10)))
          CFI V5 load(1, XDATA, add(CFA_XSP16, literal(-9)))
          CFI V6 load(1, XDATA, add(CFA_XSP16, literal(-8)))
          CFI V7 load(1, XDATA, add(CFA_XSP16, literal(-7)))
          CFI R7 load(1, XDATA, add(CFA_XSP16, literal(-6)))
          CFI ?RET_LOW load(1, XDATA, add(CFA_XSP16, literal(-5)))
          CFI ?RET_HIGH load(1, XDATA, add(CFA_XSP16, literal(-4)))
          CFI ?BRET_EXT load(1, XDATA, add(CFA_XSP16, literal(-3)))
          CFI DPL0 load(1, XDATA, add(CFA_XSP16, literal(-2)))
          CFI DPH0 load(1, XDATA, add(CFA_XSP16, literal(-1)))
          CFI CFA_SP SP+-2
          CFI CFA_XSP16 add(XSP16, 36)
          CFI Block cfiCond21 Using cfiCommon0
          CFI (cfiCond21) Function GAPBondMgr_ProcessGAPMsg
          CFI (cfiCond21) Conditional ??CrossCallReturnLabel_1
          CFI (cfiCond21) R6 load(1, XDATA, add(CFA_XSP16, literal(-16)))
          CFI (cfiCond21) VB load(1, XDATA, add(CFA_XSP16, literal(-15)))
          CFI (cfiCond21) V0 load(1, XDATA, add(CFA_XSP16, literal(-14)))
          CFI (cfiCond21) V1 load(1, XDATA, add(CFA_XSP16, literal(-13)))
          CFI (cfiCond21) V2 load(1, XDATA, add(CFA_XSP16, literal(-12)))
          CFI (cfiCond21) V3 load(1, XDATA, add(CFA_XSP16, literal(-11)))
          CFI (cfiCond21) V4 load(1, XDATA, add(CFA_XSP16, literal(-10)))
          CFI (cfiCond21) V5 load(1, XDATA, add(CFA_XSP16, literal(-9)))
          CFI (cfiCond21) V6 load(1, XDATA, add(CFA_XSP16, literal(-8)))
          CFI (cfiCond21) V7 load(1, XDATA, add(CFA_XSP16, literal(-7)))
          CFI (cfiCond21) R7 load(1, XDATA, add(CFA_XSP16, literal(-6)))
          CFI (cfiCond21) ?RET_LOW load(1, XDATA, add(CFA_XSP16, literal(-5)))
          CFI (cfiCond21) ?RET_HIGH load(1, XDATA, add(CFA_XSP16, literal(-4)))
          CFI (cfiCond21) ?BRET_EXT load(1, XDATA, add(CFA_XSP16, literal(-3)))
          CFI (cfiCond21) DPL0 load(1, XDATA, add(CFA_XSP16, literal(-2)))
          CFI (cfiCond21) DPH0 load(1, XDATA, add(CFA_XSP16, literal(-1)))
          CFI (cfiCond21) CFA_SP SP+-2
          CFI (cfiCond21) CFA_XSP16 add(XSP16, 36)
          CFI Block cfiCond22 Using cfiCommon0
          CFI (cfiCond22) Function GAPBondMgr_ProcessGAPMsg
          CFI (cfiCond22) Conditional ??CrossCallReturnLabel_2
          CFI (cfiCond22) R6 load(1, XDATA, add(CFA_XSP16, literal(-16)))
          CFI (cfiCond22) VB load(1, XDATA, add(CFA_XSP16, literal(-15)))
          CFI (cfiCond22) V0 load(1, XDATA, add(CFA_XSP16, literal(-14)))
          CFI (cfiCond22) V1 load(1, XDATA, add(CFA_XSP16, literal(-13)))
          CFI (cfiCond22) V2 load(1, XDATA, add(CFA_XSP16, literal(-12)))
          CFI (cfiCond22) V3 load(1, XDATA, add(CFA_XSP16, literal(-11)))
          CFI (cfiCond22) V4 load(1, XDATA, add(CFA_XSP16, literal(-10)))
          CFI (cfiCond22) V5 load(1, XDATA, add(CFA_XSP16, literal(-9)))
          CFI (cfiCond22) V6 load(1, XDATA, add(CFA_XSP16, literal(-8)))
          CFI (cfiCond22) V7 load(1, XDATA, add(CFA_XSP16, literal(-7)))
          CFI (cfiCond22) R7 load(1, XDATA, add(CFA_XSP16, literal(-6)))
          CFI (cfiCond22) ?RET_LOW load(1, XDATA, add(CFA_XSP16, literal(-5)))
          CFI (cfiCond22) ?RET_HIGH load(1, XDATA, add(CFA_XSP16, literal(-4)))
          CFI (cfiCond22) ?BRET_EXT load(1, XDATA, add(CFA_XSP16, literal(-3)))
          CFI (cfiCond22) DPL0 load(1, XDATA, add(CFA_XSP16, literal(-2)))
          CFI (cfiCond22) DPH0 load(1, XDATA, add(CFA_XSP16, literal(-1)))
          CFI (cfiCond22) CFA_SP SP+-2
          CFI (cfiCond22) CFA_XSP16 add(XSP16, 36)
          CFI Block cfiPicker23 Using cfiCommon1
          CFI (cfiPicker23) NoFunction
          CFI (cfiPicker23) Picker
        LCALL   ?Subroutine22 & 0xFFFF
??CrossCallReturnLabel_80:
        MOV     ?V1,R1
        MOV     A,R0
        ORL     A,?V1
        RET
          CFI EndBlock cfiCond20
          CFI EndBlock cfiCond21
          CFI EndBlock cfiCond22
          CFI EndBlock cfiPicker23
// 1161 
// 1162 /*********************************************************************
// 1163  * LOCAL FUNCTION PROTOTYPES
// 1164  */
// 1165 
// 1166 /*********************************************************************
// 1167  * @fn      gapBondMgrChangeState
// 1168  *
// 1169  * @brief   Change a state flag in the stateFlags field of the bond record.
// 1170  *
// 1171  * @param   idx - Bond NV index
// 1172  * @param   state - state flage to set or clear
// 1173  * @param   set - TRUE to set the flag, FALSE to clear the flag
// 1174  *
// 1175  * @return  TRUE if NV Record exists, FALSE if NV Record is empty
// 1176  */

        RSEG BANKED_CODE:CODE:NOROOT(0)
// 1177 static uint8 gapBondMgrChangeState( uint8 idx, uint16 state, uint8 set )
gapBondMgrChangeState:
          CFI Block cfiBlock24 Using cfiCommon0
          CFI Function gapBondMgrChangeState
        CODE
// 1178 {
        FUNCALL gapBondMgrChangeState, osal_snv_read
        LOCFRAME ISTACK, 0, STACK
        LOCFRAME PSTACK, 0, STACK
        LOCFRAME XSTACK, 26, STACK
        LOCFRAME IOVERLAY, 0, STATIC
        LOCFRAME DOVERLAY, 0, STATIC
        ARGFRAME ISTACK, 0, STACK
        ARGFRAME PSTACK, 0, STACK
        ARGFRAME XSTACK, 26, STACK
        ARGFRAME IOVERLAY, 0, STATIC
        ARGFRAME DOVERLAY, 0, STATIC
        FUNCALL gapBondMgrChangeState, osal_isbufset
        LOCFRAME ISTACK, 0, STACK
        LOCFRAME PSTACK, 0, STACK
        LOCFRAME XSTACK, 26, STACK
        LOCFRAME IOVERLAY, 0, STATIC
        LOCFRAME DOVERLAY, 0, STATIC
        ARGFRAME ISTACK, 0, STACK
        ARGFRAME PSTACK, 0, STACK
        ARGFRAME XSTACK, 26, STACK
        ARGFRAME IOVERLAY, 0, STATIC
        ARGFRAME DOVERLAY, 0, STATIC
        FUNCALL gapBondMgrChangeState, osal_snv_write
        LOCFRAME ISTACK, 0, STACK
        LOCFRAME PSTACK, 0, STACK
        LOCFRAME XSTACK, 26, STACK
        LOCFRAME IOVERLAY, 0, STATIC
        LOCFRAME DOVERLAY, 0, STATIC
        ARGFRAME ISTACK, 0, STACK
        ARGFRAME PSTACK, 0, STACK
        ARGFRAME XSTACK, 26, STACK
        ARGFRAME IOVERLAY, 0, STATIC
        ARGFRAME DOVERLAY, 0, STATIC
        REQUIRE ?V0
        REQUIRE ?V1
        REQUIRE ?V2
        REQUIRE ?V3
        MOV     A,#-0xc
        LCALL   ?BANKED_ENTER_XDATA
          CFI DPH0 load(1, XDATA, add(CFA_XSP16, literal(-1)))
          CFI DPL0 load(1, XDATA, add(CFA_XSP16, literal(-2)))
          CFI ?BRET_EXT load(1, XDATA, add(CFA_XSP16, literal(-3)))
          CFI ?RET_HIGH load(1, XDATA, add(CFA_XSP16, literal(-4)))
          CFI ?RET_LOW load(1, XDATA, add(CFA_XSP16, literal(-5)))
          CFI R7 load(1, XDATA, add(CFA_XSP16, literal(-6)))
          CFI V3 load(1, XDATA, add(CFA_XSP16, literal(-7)))
          CFI V2 load(1, XDATA, add(CFA_XSP16, literal(-8)))
          CFI V1 load(1, XDATA, add(CFA_XSP16, literal(-9)))
          CFI V0 load(1, XDATA, add(CFA_XSP16, literal(-10)))
          CFI VB load(1, XDATA, add(CFA_XSP16, literal(-11)))
          CFI R6 load(1, XDATA, add(CFA_XSP16, literal(-12)))
          CFI CFA_SP SP+0
          CFI CFA_XSP16 add(XSP16, 12)
        ; Saved register size: 12
        ; Auto size: 14
        MOV     A,#-0xe
        LCALL   ?ALLOC_XSTACK8
          CFI CFA_XSP16 add(XSP16, 26)
        MOV     A,R2
        MOV     R6,A
        MOV     ?V1,R4
// 1179   gapBondRec_t bondRec;   // Space to read a Bond record from NV
// 1180 
// 1181   // Look for public address that is used (not all 0xFF's)
// 1182   if ( (osal_snv_read( mainRecordNvID(idx), sizeof ( gapBondRec_t ), &bondRec ) == SUCCESS)
// 1183       && (osal_isbufset( bondRec.publicAddr, 0xFF, B_ADDR_LEN ) == FALSE) )
        MOV     B,#0x6
        MOV     A,R1
        MUL     AB
        ADD     A,#0x20
        MOV     ?V0,A
        ; Setup parameters for call to function osal_snv_read
        MOV     R4,?XSP + 0
        MOV     R5,?XSP + 1
        MOV     R2,#0xe
        MOV     R1,A
        LCALL   ??osal_snv_read?relay; Banked call to: osal_snv_read
        MOV     A,R1
        JNZ     ??gapBondMgrChangeState_0
        ; Setup parameters for call to function osal_isbufset
        MOV     R4,#0x6
        MOV     R1,#-0x1
        MOV     R2,?XSP + 0
        MOV     R3,?XSP + 1
        LCALL   ??osal_isbufset?relay; Banked call to: osal_isbufset
        MOV     A,R1
        JNZ     ??gapBondMgrChangeState_0
// 1184   {
// 1185     // Update the state of the bonded device.
// 1186     uint8 stateFlags = bondRec.stateFlags;
        MOV     A,#0xc
        LCALL   ?XSTACK_DISP0_8
        LCALL   ??Subroutine26_0 & 0xFFFF
??CrossCallReturnLabel_79:
        MOV     A,R0
        MOV     ?V3,A
// 1187     if ( set )
        MOV     A,?V1
        JZ      ??gapBondMgrChangeState_1
// 1188     {
// 1189       stateFlags |= state;
        MOV     A,R6
        ORL     ?V3,A
        SJMP    ??gapBondMgrChangeState_2
// 1190     }
// 1191     else
// 1192     {
// 1193       stateFlags &= ~(state);
??gapBondMgrChangeState_1:
        MOV     A,R6
        CPL     A
        ANL     ?V3,A
// 1194     }
// 1195 
// 1196     if ( stateFlags != bondRec.stateFlags )
??gapBondMgrChangeState_2:
        MOV     DPL,?V3
        MOV     R2,DPL
        MOV     A,R0
        XRL     A,R2
        JNZ     ??gapBondMgrChangeState_3
        MOV     A,R1
??gapBondMgrChangeState_3:
        JZ      ??gapBondMgrChangeState_4
// 1197     {
// 1198       bondRec.stateFlags = stateFlags;
        MOV     A,#0xc
        LCALL   ?XSTACK_DISP0_8
        MOV     A,R2
        MOVX    @DPTR,A
        INC     DPTR
        CLR     A
        MOVX    @DPTR,A
// 1199       VOID osal_snv_write( mainRecordNvID(idx), sizeof ( gapBondRec_t ), &bondRec );
        ; Setup parameters for call to function osal_snv_write
        MOV     R4,?XSP + 0
        MOV     R5,?XSP + 1
        MOV     R2,#0xe
        MOV     R1,?V0
        LCALL   ??osal_snv_write?relay; Banked call to: osal_snv_write
// 1200     }
// 1201     return ( TRUE );
??gapBondMgrChangeState_4:
        MOV     R1,#0x1
        SJMP    ??gapBondMgrChangeState_5
// 1202   }
// 1203   return ( FALSE );
??gapBondMgrChangeState_0:
        MOV     R1,#0x0
??gapBondMgrChangeState_5:
        LJMP    ?Subroutine1 & 0xFFFF
          CFI EndBlock cfiBlock24
// 1204 }
// 1205 
// 1206 /*********************************************************************
// 1207  * @fn      gapBondMgrUpdateCharCfg
// 1208  *
// 1209  * @brief   Update the Characteristic Configuration of the bond record.
// 1210  *
// 1211  * @param   idx - Bond NV index
// 1212  * @param   attrHandle - attribute handle (0 means all handles)
// 1213  * @param   value - characteristic configuration value
// 1214  *
// 1215  * @return  TRUE if NV Record exists, FALSE if NV Record is empty
// 1216  */

        RSEG BANKED_CODE:CODE:NOROOT(0)
// 1217 static uint8 gapBondMgrUpdateCharCfg( uint8 idx, uint16 attrHandle, uint16 value )
gapBondMgrUpdateCharCfg:
          CFI Block cfiBlock25 Using cfiCommon0
          CFI Function gapBondMgrUpdateCharCfg
        CODE
// 1218 {
        FUNCALL gapBondMgrUpdateCharCfg, osal_snv_read
        LOCFRAME ISTACK, 0, STACK
        LOCFRAME PSTACK, 0, STACK
        LOCFRAME XSTACK, 40, STACK
        LOCFRAME IOVERLAY, 0, STATIC
        LOCFRAME DOVERLAY, 0, STATIC
        ARGFRAME ISTACK, 0, STACK
        ARGFRAME PSTACK, 0, STACK
        ARGFRAME XSTACK, 40, STACK
        ARGFRAME IOVERLAY, 0, STATIC
        ARGFRAME DOVERLAY, 0, STATIC
        FUNCALL gapBondMgrUpdateCharCfg, osal_isbufset
        LOCFRAME ISTACK, 0, STACK
        LOCFRAME PSTACK, 0, STACK
        LOCFRAME XSTACK, 40, STACK
        LOCFRAME IOVERLAY, 0, STATIC
        LOCFRAME DOVERLAY, 0, STATIC
        ARGFRAME ISTACK, 0, STACK
        ARGFRAME PSTACK, 0, STACK
        ARGFRAME XSTACK, 40, STACK
        ARGFRAME IOVERLAY, 0, STATIC
        ARGFRAME DOVERLAY, 0, STATIC
        FUNCALL gapBondMgrUpdateCharCfg, osal_snv_read
        LOCFRAME ISTACK, 0, STACK
        LOCFRAME PSTACK, 0, STACK
        LOCFRAME XSTACK, 40, STACK
        LOCFRAME IOVERLAY, 0, STATIC
        LOCFRAME DOVERLAY, 0, STATIC
        ARGFRAME ISTACK, 0, STACK
        ARGFRAME PSTACK, 0, STACK
        ARGFRAME XSTACK, 40, STACK
        ARGFRAME IOVERLAY, 0, STATIC
        ARGFRAME DOVERLAY, 0, STATIC
        FUNCALL gapBondMgrUpdateCharCfg, gapBondMgrInvertCharCfgItem
        LOCFRAME ISTACK, 0, STACK
        LOCFRAME PSTACK, 0, STACK
        LOCFRAME XSTACK, 40, STACK
        LOCFRAME IOVERLAY, 0, STATIC
        LOCFRAME DOVERLAY, 0, STATIC
        ARGFRAME ISTACK, 0, STACK
        ARGFRAME PSTACK, 0, STACK
        ARGFRAME XSTACK, 40, STACK
        ARGFRAME IOVERLAY, 0, STATIC
        ARGFRAME DOVERLAY, 0, STATIC
        FUNCALL gapBondMgrUpdateCharCfg, osal_isbufset
        LOCFRAME ISTACK, 0, STACK
        LOCFRAME PSTACK, 0, STACK
        LOCFRAME XSTACK, 40, STACK
        LOCFRAME IOVERLAY, 0, STATIC
        LOCFRAME DOVERLAY, 0, STATIC
        ARGFRAME ISTACK, 0, STACK
        ARGFRAME PSTACK, 0, STACK
        ARGFRAME XSTACK, 40, STACK
        ARGFRAME IOVERLAY, 0, STATIC
        ARGFRAME DOVERLAY, 0, STATIC
        FUNCALL gapBondMgrUpdateCharCfg, osal_memset
        LOCFRAME ISTACK, 0, STACK
        LOCFRAME PSTACK, 0, STACK
        LOCFRAME XSTACK, 40, STACK
        LOCFRAME IOVERLAY, 0, STATIC
        LOCFRAME DOVERLAY, 0, STATIC
        ARGFRAME ISTACK, 0, STACK
        ARGFRAME PSTACK, 0, STACK
        ARGFRAME XSTACK, 40, STACK
        ARGFRAME IOVERLAY, 0, STATIC
        ARGFRAME DOVERLAY, 0, STATIC
        FUNCALL gapBondMgrUpdateCharCfg, gapBondMgrFindCharCfgItem
        LOCFRAME ISTACK, 0, STACK
        LOCFRAME PSTACK, 0, STACK
        LOCFRAME XSTACK, 40, STACK
        LOCFRAME IOVERLAY, 0, STATIC
        LOCFRAME DOVERLAY, 0, STATIC
        ARGFRAME ISTACK, 0, STACK
        ARGFRAME PSTACK, 0, STACK
        ARGFRAME XSTACK, 40, STACK
        ARGFRAME IOVERLAY, 0, STATIC
        ARGFRAME DOVERLAY, 0, STATIC
        FUNCALL gapBondMgrUpdateCharCfg, gapBondMgrFindCharCfgItem
        LOCFRAME ISTACK, 0, STACK
        LOCFRAME PSTACK, 0, STACK
        LOCFRAME XSTACK, 40, STACK
        LOCFRAME IOVERLAY, 0, STATIC
        LOCFRAME DOVERLAY, 0, STATIC
        ARGFRAME ISTACK, 0, STACK
        ARGFRAME PSTACK, 0, STACK
        ARGFRAME XSTACK, 40, STACK
        ARGFRAME IOVERLAY, 0, STATIC
        ARGFRAME DOVERLAY, 0, STATIC
        FUNCALL gapBondMgrUpdateCharCfg, gapBondMgrInvertCharCfgItem
        LOCFRAME ISTACK, 0, STACK
        LOCFRAME PSTACK, 0, STACK
        LOCFRAME XSTACK, 40, STACK
        LOCFRAME IOVERLAY, 0, STATIC
        LOCFRAME DOVERLAY, 0, STATIC
        ARGFRAME ISTACK, 0, STACK
        ARGFRAME PSTACK, 0, STACK
        ARGFRAME XSTACK, 40, STACK
        ARGFRAME IOVERLAY, 0, STATIC
        ARGFRAME DOVERLAY, 0, STATIC
        FUNCALL gapBondMgrUpdateCharCfg, osal_snv_write
        LOCFRAME ISTACK, 0, STACK
        LOCFRAME PSTACK, 0, STACK
        LOCFRAME XSTACK, 40, STACK
        LOCFRAME IOVERLAY, 0, STATIC
        LOCFRAME DOVERLAY, 0, STATIC
        ARGFRAME ISTACK, 0, STACK
        ARGFRAME PSTACK, 0, STACK
        ARGFRAME XSTACK, 40, STACK
        ARGFRAME IOVERLAY, 0, STATIC
        ARGFRAME DOVERLAY, 0, STATIC
        REQUIRE ?V0
        REQUIRE ?V1
        REQUIRE ?V2
        REQUIRE ?V3
        REQUIRE ?V4
        REQUIRE ?V5
        MOV     A,#-0xe
        LCALL   ?BANKED_ENTER_XDATA
          CFI DPH0 load(1, XDATA, add(CFA_XSP16, literal(-1)))
          CFI DPL0 load(1, XDATA, add(CFA_XSP16, literal(-2)))
          CFI ?BRET_EXT load(1, XDATA, add(CFA_XSP16, literal(-3)))
          CFI ?RET_HIGH load(1, XDATA, add(CFA_XSP16, literal(-4)))
          CFI ?RET_LOW load(1, XDATA, add(CFA_XSP16, literal(-5)))
          CFI R7 load(1, XDATA, add(CFA_XSP16, literal(-6)))
          CFI V5 load(1, XDATA, add(CFA_XSP16, literal(-7)))
          CFI V4 load(1, XDATA, add(CFA_XSP16, literal(-8)))
          CFI V3 load(1, XDATA, add(CFA_XSP16, literal(-9)))
          CFI V2 load(1, XDATA, add(CFA_XSP16, literal(-10)))
          CFI V1 load(1, XDATA, add(CFA_XSP16, literal(-11)))
          CFI V0 load(1, XDATA, add(CFA_XSP16, literal(-12)))
          CFI VB load(1, XDATA, add(CFA_XSP16, literal(-13)))
          CFI R6 load(1, XDATA, add(CFA_XSP16, literal(-14)))
          CFI CFA_SP SP+0
          CFI CFA_XSP16 add(XSP16, 14)
        ; Saved register size: 14
        ; Auto size: 26
        MOV     A,#-0x1a
        LCALL   ?ALLOC_XSTACK8
          CFI CFA_XSP16 add(XSP16, 40)
        MOV     ?V1,R1
        MOV     ?V4,R2
        MOV     ?V5,R3
        MOV     A,R4
        MOV     R6,A
        MOV     A,R5
        MOV     R7,A
// 1219   gapBondRec_t bondRec;   // Space to read a Bond record from NV
// 1220 
// 1221   // Look for public address that is used (not all 0xFF's)
// 1222   if ( ( osal_snv_read( mainRecordNvID(idx), sizeof ( gapBondRec_t ), &bondRec ) == SUCCESS )
// 1223        && ( osal_isbufset( bondRec.publicAddr, 0xFF, B_ADDR_LEN ) == FALSE ) )
        ; Setup parameters for call to function osal_snv_read
        MOV     A,#0xc
        LCALL   ?XSTACK_DISP102_8
        MOV     R2,#0xe
        MOV     B,#0x6
        MOV     A,R1
        MUL     AB
        ADD     A,#0x20
        MOV     R1,A
        LCALL   ??osal_snv_read?relay; Banked call to: osal_snv_read
        MOV     A,R1
        JZ      $+5
        LJMP    ??gapBondMgrUpdateCharCfg_0 & 0xFFFF
        ; Setup parameters for call to function osal_isbufset
        MOV     R4,#0x6
        MOV     R1,#-0x1
        MOV     A,#0xc
        LCALL   ?XSTACK_DISP101_8
        LCALL   ??osal_isbufset?relay; Banked call to: osal_isbufset
        MOV     A,R1
        JZ      $+5
        LJMP    ??gapBondMgrUpdateCharCfg_0 & 0xFFFF
// 1224   {
// 1225     gapBondCharCfg_t charCfg[GAP_CHAR_CFG_MAX]; // Space to read a char cfg record from NV
// 1226 
// 1227     if ( osal_snv_read( gattCfgNvID(idx), sizeof ( charCfg ), charCfg ) == SUCCESS )
        MOV     A,#0x70
        ADD     A,?V1
        MOV     ?V0,A
        ; Setup parameters for call to function osal_snv_read
        MOV     R4,?XSP + 0
        MOV     R5,?XSP + 1
        MOV     R2,#0xc
        MOV     R1,A
        LCALL   ??osal_snv_read?relay; Banked call to: osal_snv_read
        MOV     A,R1
        JZ      $+5
        LJMP    ??gapBondMgrUpdateCharCfg_1 & 0xFFFF
// 1228     {
// 1229       uint8 update = FALSE;
// 1230 
// 1231       gapBondMgrInvertCharCfgItem( charCfg );
        ; Setup parameters for call to function gapBondMgrInvertCharCfgItem
        MOV     R2,?XSP + 0
        MOV     R3,?XSP + 1
        LCALL   ??gapBondMgrInvertCharCfgItem?relay; Banked call to: gapBondMgrInvertCharCfgItem
// 1232 
// 1233       if ( attrHandle == GATT_INVALID_HANDLE )
        MOV     A,?V4
        ORL     A,?V5
        JNZ     ??gapBondMgrUpdateCharCfg_2
// 1234       {
// 1235         if ( osal_isbufset( (uint8 *)charCfg, 0x00, sizeof ( charCfg ) ) == FALSE )
        ; Setup parameters for call to function osal_isbufset
        MOV     R4,#0xc
        MOV     R1,#0x0
        MOV     R2,?XSP + 0
        MOV     R3,?XSP + 1
        LCALL   ??osal_isbufset?relay; Banked call to: osal_isbufset
        MOV     A,R1
        JNZ     ??gapBondMgrUpdateCharCfg_1
// 1236         {
// 1237           // Clear all characteristic configuration for this device
// 1238           VOID osal_memset( (void *)charCfg, 0x00, sizeof ( charCfg ) );
        ; Setup parameters for call to function osal_memset
        MOV     R4,#0xc
        MOV     R5,#0x0
        MOV     R1,#0x0
        MOV     R2,?XSP + 0
        MOV     R3,?XSP + 1
        LCALL   ??osal_memset?relay  ; Banked call to: osal_memset
// 1239           update = TRUE;
        SJMP    ??gapBondMgrUpdateCharCfg_3
// 1240         }
// 1241       }
// 1242       else
// 1243       {
// 1244         gapBondCharCfg_t *pItem = gapBondMgrFindCharCfgItem( attrHandle, charCfg );
??gapBondMgrUpdateCharCfg_2:
        ; Setup parameters for call to function gapBondMgrFindCharCfgItem
        MOV     R4,?XSP + 0
        MOV     R5,?XSP + 1
        MOV     R2,?V4
        MOV     R3,?V5
        LCALL   ??gapBondMgrFindCharCfgItem?relay; Banked call to: gapBondMgrFindCharCfgItem
        MOV     ?V2,R2
        MOV     ?V3,R3
        MOV     R0,?V2
        MOV     R1,?V3
// 1245         if ( pItem == NULL )
        MOV     A,R0
        ORL     A,R1
        JNZ     ??gapBondMgrUpdateCharCfg_4
// 1246         {
// 1247           // Must be a new item; ignore if the value is no operation (default)
// 1248           if ( ( value == GATT_CFG_NO_OPERATION ) ||
// 1249                ( ( pItem = gapBondMgrFindCharCfgItem( GATT_INVALID_HANDLE, charCfg ) ) == NULL ) )
        MOV     A,R6
        ORL     A,R7
        JZ      ??gapBondMgrUpdateCharCfg_0
        ; Setup parameters for call to function gapBondMgrFindCharCfgItem
        MOV     R4,?XSP + 0
        MOV     R5,?XSP + 1
        MOV     R2,#0x0
        MOV     R3,#0x0
        LCALL   ??gapBondMgrFindCharCfgItem?relay; Banked call to: gapBondMgrFindCharCfgItem
        MOV     A,R2
        MOV     R0,A
        MOV     A,R3
        MOV     R1,A
        MOV     A,R2
        ORL     A,R3
        JZ      ??gapBondMgrUpdateCharCfg_0
// 1250           {
// 1251             return ( FALSE ); // No empty entry found
// 1252           }
// 1253 
// 1254           pItem->attrHandle = attrHandle;
        MOV     DPL,R0
        MOV     DPH,R1
        MOV     A,?V4
        MOVX    @DPTR,A
        INC     DPTR
        MOV     A,?V5
        MOVX    @DPTR,A
// 1255         }
// 1256 
// 1257         if ( pItem->value != value )
??gapBondMgrUpdateCharCfg_4:
        LCALL   ?Subroutine20 & 0xFFFF
??CrossCallReturnLabel_32:
        MOV     R2,A
        MOV     A,R6
        XRL     A,R2
        JNZ     ??gapBondMgrUpdateCharCfg_5
        MOV     A,R7
??gapBondMgrUpdateCharCfg_5:
        JZ      ??gapBondMgrUpdateCharCfg_1
// 1258         {
// 1259           // Update characteristic configuration
// 1260           pItem->value = (uint8)value;
        MOV     A,R6
        MOVX    @DPTR,A
// 1261           if ( value == GATT_CFG_NO_OPERATION )
        ORL     A,R7
        JNZ     ??gapBondMgrUpdateCharCfg_3
// 1262           {
// 1263             // Erease the item
// 1264             pItem->attrHandle = GATT_INVALID_HANDLE;
        MOV     DPL,R0
        MOV     DPH,R1
        CLR     A
        MOVX    @DPTR,A
        INC     DPTR
        MOVX    @DPTR,A
// 1265           }
// 1266 
// 1267           update = TRUE;
// 1268         }
// 1269       }
// 1270 
// 1271       // Update the characteristic configuration of the bonded device.
// 1272       if ( update )
// 1273       {
// 1274         gapBondMgrInvertCharCfgItem( charCfg );
??gapBondMgrUpdateCharCfg_3:
        ; Setup parameters for call to function gapBondMgrInvertCharCfgItem
        MOV     R2,?XSP + 0
        MOV     R3,?XSP + 1
        LCALL   ??gapBondMgrInvertCharCfgItem?relay; Banked call to: gapBondMgrInvertCharCfgItem
// 1275         VOID osal_snv_write( gattCfgNvID(idx), sizeof( charCfg ), charCfg );
        ; Setup parameters for call to function osal_snv_write
        MOV     R4,?XSP + 0
        MOV     R5,?XSP + 1
        MOV     R2,#0xc
        MOV     R1,?V0
        LCALL   ??osal_snv_write?relay; Banked call to: osal_snv_write
// 1276       }
// 1277     }
// 1278 
// 1279     return ( TRUE );
??gapBondMgrUpdateCharCfg_1:
        MOV     R1,#0x1
        SJMP    ??gapBondMgrUpdateCharCfg_6
// 1280   }
// 1281 
// 1282   return ( FALSE );
??gapBondMgrUpdateCharCfg_0:
        MOV     R1,#0x0
??gapBondMgrUpdateCharCfg_6:
        MOV     A,#0x1a
        LCALL   ?DEALLOC_XSTACK8
          CFI CFA_XSP16 add(XSP16, 14)
        LJMP    ?Subroutine3 & 0xFFFF
          CFI EndBlock cfiBlock25
// 1283 }
// 1284 
// 1285 /*********************************************************************
// 1286  * @fn      gapBondMgrFindCharCfgItem
// 1287  *
// 1288  * @brief   Find the Characteristic Configuration for a given attribute.
// 1289  *          Uses the attribute handle to search the charactersitic
// 1290  *          configuration table of a bonded device.
// 1291  *
// 1292  * @param   attrHandle - attribute handle.
// 1293  * @param   charCfgTbl - characteristic configuration table.
// 1294  *
// 1295  * @return  pointer to the found item. NULL, otherwise.
// 1296  */

        RSEG BANKED_CODE:CODE:NOROOT(0)
// 1297 static gapBondCharCfg_t *gapBondMgrFindCharCfgItem( uint16 attrHandle,
gapBondMgrFindCharCfgItem:
          CFI Block cfiBlock26 Using cfiCommon0
          CFI Function gapBondMgrFindCharCfgItem
        CODE
// 1298                                                     gapBondCharCfg_t *charCfgTbl )
// 1299 {
        MOV     A,#-0x9
        LCALL   ?BANKED_ENTER_XDATA
          CFI DPH0 load(1, XDATA, add(CFA_XSP16, literal(-1)))
          CFI DPL0 load(1, XDATA, add(CFA_XSP16, literal(-2)))
          CFI ?BRET_EXT load(1, XDATA, add(CFA_XSP16, literal(-3)))
          CFI ?RET_HIGH load(1, XDATA, add(CFA_XSP16, literal(-4)))
          CFI ?RET_LOW load(1, XDATA, add(CFA_XSP16, literal(-5)))
          CFI R7 load(1, XDATA, add(CFA_XSP16, literal(-6)))
          CFI V0 load(1, XDATA, add(CFA_XSP16, literal(-7)))
          CFI VB load(1, XDATA, add(CFA_XSP16, literal(-8)))
          CFI R6 load(1, XDATA, add(CFA_XSP16, literal(-9)))
          CFI CFA_SP SP+0
          CFI CFA_XSP16 add(XSP16, 9)
        ; Saved register size: 9
        ; Auto size: 0
// 1300   for ( uint8 i = 0; i < GAP_CHAR_CFG_MAX; i++ )
        MOV     R7,#0x0
// 1301   {
// 1302     if ( charCfgTbl[i].attrHandle == attrHandle )
??gapBondMgrFindCharCfgItem_0:
        MOV     A,R7
        MOV     B,#0x3
        MUL     AB
        MOV     R0,A
        MOV     R1,B
        MOV     A,R4
        ADD     A,R0
        MOV     R0,A
        MOV     A,R5
        LCALL   ?Subroutine18 & 0xFFFF
??CrossCallReturnLabel_28:
        MOVX    A,@DPTR
        XRL     A,R2
        JNZ     ??gapBondMgrFindCharCfgItem_1
        INC     DPTR
        MOVX    A,@DPTR
        XRL     A,R3
??gapBondMgrFindCharCfgItem_1:
        JNZ     ??gapBondMgrFindCharCfgItem_2
// 1303     {
// 1304       return ( &(charCfgTbl[i]) );
        MOV     A,R0
        MOV     R2,A
        MOV     A,R1
        MOV     R3,A
        SJMP    ??gapBondMgrFindCharCfgItem_3
// 1305     }
// 1306   }
??gapBondMgrFindCharCfgItem_2:
        INC     R7
        MOV     A,R7
        CLR     C
        SUBB    A,#0x4
        JC      ??gapBondMgrFindCharCfgItem_0
// 1307 
// 1308   return ( (gapBondCharCfg_t *)NULL );
        MOV     R2,#0x0
        MOV     R3,#0x0
??gapBondMgrFindCharCfgItem_3:
        LJMP    ?Subroutine5 & 0xFFFF
          CFI EndBlock cfiBlock26
// 1309 }

        RSEG BANKED_CODE:CODE:NOROOT(0)
?Subroutine18:
          CFI Block cfiCond27 Using cfiCommon0
          CFI Function GAPBondMgr_LinkEst
          CFI Conditional ??CrossCallReturnLabel_27
          CFI R6 load(1, XDATA, add(CFA_XSP16, literal(-15)))
          CFI VB load(1, XDATA, add(CFA_XSP16, literal(-14)))
          CFI V0 load(1, XDATA, add(CFA_XSP16, literal(-13)))
          CFI V1 load(1, XDATA, add(CFA_XSP16, literal(-12)))
          CFI V2 load(1, XDATA, add(CFA_XSP16, literal(-11)))
          CFI V3 load(1, XDATA, add(CFA_XSP16, literal(-10)))
          CFI V4 load(1, XDATA, add(CFA_XSP16, literal(-9)))
          CFI V5 load(1, XDATA, add(CFA_XSP16, literal(-8)))
          CFI V6 load(1, XDATA, add(CFA_XSP16, literal(-7)))
          CFI R7 load(1, XDATA, add(CFA_XSP16, literal(-6)))
          CFI ?RET_LOW load(1, XDATA, add(CFA_XSP16, literal(-5)))
          CFI ?RET_HIGH load(1, XDATA, add(CFA_XSP16, literal(-4)))
          CFI ?BRET_EXT load(1, XDATA, add(CFA_XSP16, literal(-3)))
          CFI DPL0 load(1, XDATA, add(CFA_XSP16, literal(-2)))
          CFI DPH0 load(1, XDATA, add(CFA_XSP16, literal(-1)))
          CFI CFA_SP SP+-2
          CFI CFA_XSP16 add(XSP16, 53)
          CFI Block cfiCond28 Using cfiCommon0
          CFI (cfiCond28) Function gapBondMgrFindCharCfgItem
          CFI (cfiCond28) Conditional ??CrossCallReturnLabel_28
          CFI (cfiCond28) R6 load(1, XDATA, add(CFA_XSP16, literal(-9)))
          CFI (cfiCond28) VB load(1, XDATA, add(CFA_XSP16, literal(-8)))
          CFI (cfiCond28) V0 load(1, XDATA, add(CFA_XSP16, literal(-7)))
          CFI (cfiCond28) R7 load(1, XDATA, add(CFA_XSP16, literal(-6)))
          CFI (cfiCond28) ?RET_LOW load(1, XDATA, add(CFA_XSP16, literal(-5)))
          CFI (cfiCond28) ?RET_HIGH load(1, XDATA, add(CFA_XSP16, literal(-4)))
          CFI (cfiCond28) ?BRET_EXT load(1, XDATA, add(CFA_XSP16, literal(-3)))
          CFI (cfiCond28) DPL0 load(1, XDATA, add(CFA_XSP16, literal(-2)))
          CFI (cfiCond28) DPH0 load(1, XDATA, add(CFA_XSP16, literal(-1)))
          CFI (cfiCond28) CFA_SP SP+-2
          CFI (cfiCond28) CFA_XSP16 add(XSP16, 9)
          CFI Block cfiCond29 Using cfiCommon0
          CFI (cfiCond29) Function gapBondMgrInvertCharCfgItem
          CFI (cfiCond29) Conditional ??CrossCallReturnLabel_29
          CFI (cfiCond29) R6 load(1, XDATA, add(CFA_XSP16, literal(-9)))
          CFI (cfiCond29) VB load(1, XDATA, add(CFA_XSP16, literal(-8)))
          CFI (cfiCond29) V0 load(1, XDATA, add(CFA_XSP16, literal(-7)))
          CFI (cfiCond29) R7 load(1, XDATA, add(CFA_XSP16, literal(-6)))
          CFI (cfiCond29) ?RET_LOW load(1, XDATA, add(CFA_XSP16, literal(-5)))
          CFI (cfiCond29) ?RET_HIGH load(1, XDATA, add(CFA_XSP16, literal(-4)))
          CFI (cfiCond29) ?BRET_EXT load(1, XDATA, add(CFA_XSP16, literal(-3)))
          CFI (cfiCond29) DPL0 load(1, XDATA, add(CFA_XSP16, literal(-2)))
          CFI (cfiCond29) DPH0 load(1, XDATA, add(CFA_XSP16, literal(-1)))
          CFI (cfiCond29) CFA_SP SP+-2
          CFI (cfiCond29) CFA_XSP16 add(XSP16, 9)
          CFI Block cfiPicker30 Using cfiCommon1
          CFI (cfiPicker30) NoFunction
          CFI (cfiPicker30) Picker
        ADDC    A,R1
        MOV     R1,A
        MOV     DPL,R0
        MOV     DPH,R1
        RET
          CFI EndBlock cfiCond27
          CFI EndBlock cfiCond28
          CFI EndBlock cfiCond29
          CFI EndBlock cfiPicker30
// 1310 
// 1311 /*********************************************************************
// 1312  * @fn      gapBondMgrFindCharCfgItem
// 1313  *
// 1314  * @brief   Invert the Characteristic Configuration for a given client.
// 1315  *
// 1316  * @param   charCfgTbl - characteristic configuration table.
// 1317  *
// 1318  * @return  none.
// 1319  */

        RSEG BANKED_CODE:CODE:NOROOT(0)
// 1320 static void gapBondMgrInvertCharCfgItem( gapBondCharCfg_t *charCfgTbl )
gapBondMgrInvertCharCfgItem:
          CFI Block cfiBlock31 Using cfiCommon0
          CFI Function gapBondMgrInvertCharCfgItem
        CODE
// 1321 {
        MOV     A,#-0x9
        LCALL   ?BANKED_ENTER_XDATA
          CFI DPH0 load(1, XDATA, add(CFA_XSP16, literal(-1)))
          CFI DPL0 load(1, XDATA, add(CFA_XSP16, literal(-2)))
          CFI ?BRET_EXT load(1, XDATA, add(CFA_XSP16, literal(-3)))
          CFI ?RET_HIGH load(1, XDATA, add(CFA_XSP16, literal(-4)))
          CFI ?RET_LOW load(1, XDATA, add(CFA_XSP16, literal(-5)))
          CFI R7 load(1, XDATA, add(CFA_XSP16, literal(-6)))
          CFI V0 load(1, XDATA, add(CFA_XSP16, literal(-7)))
          CFI VB load(1, XDATA, add(CFA_XSP16, literal(-8)))
          CFI R6 load(1, XDATA, add(CFA_XSP16, literal(-9)))
          CFI CFA_SP SP+0
          CFI CFA_XSP16 add(XSP16, 9)
        ; Saved register size: 9
        ; Auto size: 0
// 1322   for ( uint8 i = 0; i < GAP_CHAR_CFG_MAX; i++ )
        MOV     R6,#0x0
// 1323   {
// 1324     charCfgTbl[i].attrHandle = ~(charCfgTbl[i].attrHandle);
??gapBondMgrInvertCharCfgItem_0:
        MOV     A,R6
        MOV     B,#0x3
        MUL     AB
        MOV     R0,A
        MOV     R1,B
        MOV     A,R2
        ADD     A,R0
        MOV     R0,A
        MOV     A,R3
        LCALL   ?Subroutine18 & 0xFFFF
??CrossCallReturnLabel_29:
        MOVX    A,@DPTR
        CPL     A
        MOV     R4,A
        INC     DPTR
        MOVX    A,@DPTR
        CPL     A
        MOV     R5,A
        MOV     DPL,R0
        MOV     DPH,R1
        MOV     A,R4
        MOVX    @DPTR,A
        INC     DPTR
        MOV     A,R5
        MOVX    @DPTR,A
// 1325     charCfgTbl[i].value = ~(charCfgTbl[i].value);
        LCALL   ?Subroutine20 & 0xFFFF
// 1326   }
??CrossCallReturnLabel_33:
        CPL     A
        MOVX    @DPTR,A
        INC     R6
        MOV     A,R6
        CLR     C
        SUBB    A,#0x4
        JC      ??gapBondMgrInvertCharCfgItem_0
// 1327 }
        LJMP    ?Subroutine5 & 0xFFFF
          CFI EndBlock cfiBlock31

        RSEG BANKED_CODE:CODE:NOROOT(0)
?Subroutine20:
          CFI Block cfiCond32 Using cfiCommon0
          CFI Function gapBondMgrUpdateCharCfg
          CFI Conditional ??CrossCallReturnLabel_32
          CFI R6 load(1, XDATA, add(CFA_XSP16, literal(-14)))
          CFI VB load(1, XDATA, add(CFA_XSP16, literal(-13)))
          CFI V0 load(1, XDATA, add(CFA_XSP16, literal(-12)))
          CFI V1 load(1, XDATA, add(CFA_XSP16, literal(-11)))
          CFI V2 load(1, XDATA, add(CFA_XSP16, literal(-10)))
          CFI V3 load(1, XDATA, add(CFA_XSP16, literal(-9)))
          CFI V4 load(1, XDATA, add(CFA_XSP16, literal(-8)))
          CFI V5 load(1, XDATA, add(CFA_XSP16, literal(-7)))
          CFI R7 load(1, XDATA, add(CFA_XSP16, literal(-6)))
          CFI ?RET_LOW load(1, XDATA, add(CFA_XSP16, literal(-5)))
          CFI ?RET_HIGH load(1, XDATA, add(CFA_XSP16, literal(-4)))
          CFI ?BRET_EXT load(1, XDATA, add(CFA_XSP16, literal(-3)))
          CFI DPL0 load(1, XDATA, add(CFA_XSP16, literal(-2)))
          CFI DPH0 load(1, XDATA, add(CFA_XSP16, literal(-1)))
          CFI CFA_SP SP+-2
          CFI CFA_XSP16 add(XSP16, 40)
          CFI Block cfiCond33 Using cfiCommon0
          CFI (cfiCond33) Function gapBondMgrInvertCharCfgItem
          CFI (cfiCond33) Conditional ??CrossCallReturnLabel_33
          CFI (cfiCond33) R6 load(1, XDATA, add(CFA_XSP16, literal(-9)))
          CFI (cfiCond33) VB load(1, XDATA, add(CFA_XSP16, literal(-8)))
          CFI (cfiCond33) V0 load(1, XDATA, add(CFA_XSP16, literal(-7)))
          CFI (cfiCond33) R7 load(1, XDATA, add(CFA_XSP16, literal(-6)))
          CFI (cfiCond33) ?RET_LOW load(1, XDATA, add(CFA_XSP16, literal(-5)))
          CFI (cfiCond33) ?RET_HIGH load(1, XDATA, add(CFA_XSP16, literal(-4)))
          CFI (cfiCond33) ?BRET_EXT load(1, XDATA, add(CFA_XSP16, literal(-3)))
          CFI (cfiCond33) DPL0 load(1, XDATA, add(CFA_XSP16, literal(-2)))
          CFI (cfiCond33) DPH0 load(1, XDATA, add(CFA_XSP16, literal(-1)))
          CFI (cfiCond33) CFA_SP SP+-2
          CFI (cfiCond33) CFA_XSP16 add(XSP16, 9)
          CFI Block cfiPicker34 Using cfiCommon1
          CFI (cfiPicker34) NoFunction
          CFI (cfiPicker34) Picker
        MOV     A,R0
        ADD     A,#0x2
        MOV     DPL,A
        CLR     A
        ADDC    A,R1
        MOV     DPH,A
        MOVX    A,@DPTR
        RET
          CFI EndBlock cfiCond32
          CFI EndBlock cfiCond33
          CFI EndBlock cfiPicker34
// 1328 
// 1329 /*********************************************************************
// 1330  * @fn      gapBondMgrAddBond
// 1331  *
// 1332  * @brief   Save a bond from a GAP Auth Complete Event
// 1333  *
// 1334  * @param   pBondRec - basic bond record
// 1335  * @param   pLocalLTK - LTK used by this device during pairing
// 1336  * @param   pDevLTK - LTK used by the connected device during pairing
// 1337  * @param   pIRK - IRK used by the connected device during pairing
// 1338  * @param   pSRK - SRK used by the connected device during pairing
// 1339  * @param   signCounter - Sign counter used by the connected device during pairing
// 1340  *
// 1341  * @return  TRUE, if done processing bond record. FALSE, otherwise.
// 1342  */

        RSEG BANKED_CODE:CODE:NOROOT(0)
// 1343 static uint8 gapBondMgrAddBond( gapBondRec_t *pBondRec, gapAuthCompleteEvent_t *pPkt )
gapBondMgrAddBond:
          CFI Block cfiBlock35 Using cfiCommon0
          CFI Function gapBondMgrAddBond
        CODE
// 1344 { 
        FUNCALL gapBondMgrAddBond, gapBondMgrFindAddr
        LOCFRAME ISTACK, 0, STACK
        LOCFRAME PSTACK, 0, STACK
        LOCFRAME XSTACK, 24, STACK
        LOCFRAME IOVERLAY, 0, STATIC
        LOCFRAME DOVERLAY, 0, STATIC
        ARGFRAME ISTACK, 0, STACK
        ARGFRAME PSTACK, 0, STACK
        ARGFRAME XSTACK, 24, STACK
        ARGFRAME IOVERLAY, 0, STATIC
        ARGFRAME DOVERLAY, 0, STATIC
        FUNCALL gapBondMgrAddBond, osal_isbufset
        LOCFRAME ISTACK, 0, STACK
        LOCFRAME PSTACK, 0, STACK
        LOCFRAME XSTACK, 24, STACK
        LOCFRAME IOVERLAY, 0, STATIC
        LOCFRAME DOVERLAY, 0, STATIC
        ARGFRAME ISTACK, 0, STACK
        ARGFRAME PSTACK, 0, STACK
        ARGFRAME XSTACK, 24, STACK
        ARGFRAME IOVERLAY, 0, STATIC
        ARGFRAME DOVERLAY, 0, STATIC
        FUNCALL gapBondMgrAddBond, osal_snv_write
        LOCFRAME ISTACK, 0, STACK
        LOCFRAME PSTACK, 0, STACK
        LOCFRAME XSTACK, 24, STACK
        LOCFRAME IOVERLAY, 0, STATIC
        LOCFRAME DOVERLAY, 0, STATIC
        ARGFRAME ISTACK, 0, STACK
        ARGFRAME PSTACK, 0, STACK
        ARGFRAME XSTACK, 24, STACK
        ARGFRAME IOVERLAY, 0, STATIC
        ARGFRAME DOVERLAY, 0, STATIC
        FUNCALL gapBondMgrAddBond, osal_memset
        LOCFRAME ISTACK, 0, STACK
        LOCFRAME PSTACK, 0, STACK
        LOCFRAME XSTACK, 24, STACK
        LOCFRAME IOVERLAY, 0, STATIC
        LOCFRAME DOVERLAY, 0, STATIC
        ARGFRAME ISTACK, 0, STACK
        ARGFRAME PSTACK, 0, STACK
        ARGFRAME XSTACK, 24, STACK
        ARGFRAME IOVERLAY, 0, STATIC
        ARGFRAME DOVERLAY, 0, STATIC
        FUNCALL gapBondMgrAddBond, osal_snv_write
        LOCFRAME ISTACK, 0, STACK
        LOCFRAME PSTACK, 0, STACK
        LOCFRAME XSTACK, 24, STACK
        LOCFRAME IOVERLAY, 0, STATIC
        LOCFRAME DOVERLAY, 0, STATIC
        ARGFRAME ISTACK, 0, STACK
        ARGFRAME PSTACK, 0, STACK
        ARGFRAME XSTACK, 24, STACK
        ARGFRAME IOVERLAY, 0, STATIC
        ARGFRAME DOVERLAY, 0, STATIC
        FUNCALL gapBondMgrAddBond, osal_memcpy
        LOCFRAME ISTACK, 0, STACK
        LOCFRAME PSTACK, 0, STACK
        LOCFRAME XSTACK, 26, STACK
        LOCFRAME IOVERLAY, 0, STATIC
        LOCFRAME DOVERLAY, 0, STATIC
        ARGFRAME ISTACK, 0, STACK
        ARGFRAME PSTACK, 0, STACK
        ARGFRAME XSTACK, 26, STACK
        ARGFRAME IOVERLAY, 0, STATIC
        ARGFRAME DOVERLAY, 0, STATIC
        FUNCALL gapBondMgrAddBond, osal_snv_write
        LOCFRAME ISTACK, 0, STACK
        LOCFRAME PSTACK, 0, STACK
        LOCFRAME XSTACK, 24, STACK
        LOCFRAME IOVERLAY, 0, STATIC
        LOCFRAME DOVERLAY, 0, STATIC
        ARGFRAME ISTACK, 0, STACK
        ARGFRAME PSTACK, 0, STACK
        ARGFRAME XSTACK, 24, STACK
        ARGFRAME IOVERLAY, 0, STATIC
        ARGFRAME DOVERLAY, 0, STATIC
        FUNCALL gapBondMgrAddBond, osal_snv_write
        LOCFRAME ISTACK, 0, STACK
        LOCFRAME PSTACK, 0, STACK
        LOCFRAME XSTACK, 24, STACK
        LOCFRAME IOVERLAY, 0, STATIC
        LOCFRAME DOVERLAY, 0, STATIC
        ARGFRAME ISTACK, 0, STACK
        ARGFRAME PSTACK, 0, STACK
        ARGFRAME XSTACK, 24, STACK
        ARGFRAME IOVERLAY, 0, STATIC
        ARGFRAME DOVERLAY, 0, STATIC
        FUNCALL gapBondMgrAddBond, osal_snv_write
        LOCFRAME ISTACK, 0, STACK
        LOCFRAME PSTACK, 0, STACK
        LOCFRAME XSTACK, 24, STACK
        LOCFRAME IOVERLAY, 0, STATIC
        LOCFRAME DOVERLAY, 0, STATIC
        ARGFRAME ISTACK, 0, STACK
        ARGFRAME PSTACK, 0, STACK
        ARGFRAME XSTACK, 24, STACK
        ARGFRAME IOVERLAY, 0, STATIC
        ARGFRAME DOVERLAY, 0, STATIC
        FUNCALL gapBondMgrAddBond, osal_snv_write
        LOCFRAME ISTACK, 0, STACK
        LOCFRAME PSTACK, 0, STACK
        LOCFRAME XSTACK, 24, STACK
        LOCFRAME IOVERLAY, 0, STATIC
        LOCFRAME DOVERLAY, 0, STATIC
        ARGFRAME ISTACK, 0, STACK
        ARGFRAME PSTACK, 0, STACK
        ARGFRAME XSTACK, 24, STACK
        ARGFRAME IOVERLAY, 0, STATIC
        ARGFRAME DOVERLAY, 0, STATIC
        FUNCALL gapBondMgrAddBond, osal_snv_write
        LOCFRAME ISTACK, 0, STACK
        LOCFRAME PSTACK, 0, STACK
        LOCFRAME XSTACK, 24, STACK
        LOCFRAME IOVERLAY, 0, STATIC
        LOCFRAME DOVERLAY, 0, STATIC
        ARGFRAME ISTACK, 0, STACK
        ARGFRAME PSTACK, 0, STACK
        ARGFRAME XSTACK, 24, STACK
        ARGFRAME IOVERLAY, 0, STATIC
        ARGFRAME DOVERLAY, 0, STATIC
