///////////////////////////////////////////////////////////////////////////////
//                                                                            /
// IAR C/C++ Compiler V8.30.1.41636 for 8051            02/Jun/2014  17:47:52 /
// Copyright 2004-2013 IAR Systems AB.                                        /
//                                                                            /
//    Core               =  plain                                             /
//    Code model         =  banked                                            /
//    Data model         =  large                                             /
//    Calling convention =  xdata reentrant                                   /
//    Constant location  =  data_rom                                          /
//    Dptr setup         =  1,16                                              /
//                                                                            /
//    Source file        =  c:\Users\Administrator\Documents\Dropbox\Fish     /
//                          Brain\HM-10 Hack\HM-10 Firmware\Components\hal\ta /
//                          rget\CC2540EB\hal_flash.c                         /
//    Command line       =  -f "c:\Users\Administrator\Documents\Dropbox\Fish /
//                           Brain\HM-10 Hack\HM-10                           /
//                          Firmware\Projects\ble\HostTestApp\CC2540\..\..\co /
//                          nfig\buildComponents.cfg"                         /
//                          (-DBROADCASTER_CFG=0x01 -DOBSERVER_CFG=0x02       /
//                          -DPERIPHERAL_CFG=0x04 -DCENTRAL_CFG=0x08          /
//                          -DADV_NCONN_CFG=0x01 -DADV_CONN_CFG=0x02          /
//                          -DSCAN_CFG=0x04 -DINIT_CFG=0x08                   /
//                          -DADV_CFG=ADV_NCONN_CFG+ADV_CONN_CFG              /
//                          -DLINK_CFG=ADV_CONN_CFG+INIT_CFG                  /
//                          -DFULL_CFG=INIT_CFG+SCAN_CFG+ADV_NCONN_CFG+ADV_CO /
//                          NN_CFG) -f "c:\Users\Administrator\Documents\Drop /
//                          box\Fish Brain\HM-10 Hack\HM-10                   /
//                          Firmware\Projects\ble\HostTestApp\CC2540\buildCon /
//                          fig.cfg" (-DHOST_CONFIG=PERIPHERAL_CFG+CENTRAL_CF /
//                          G -DGAP_PRIVACY_RECONNECT)                        /
//                          "c:\Users\Administrator\Documents\Dropbox\Fish    /
//                          Brain\HM-10 Hack\HM-10 Firmware\Components\hal\ta /
//                          rget\CC2540EB\hal_flash.c" -D INT_HEAP_LEN=2700   /
//                          -D HALNODEBUG -D OSAL_CBTIMER_NUM_TASKS=1 -D      /
//                          POWER_SAVING -D HAL_AES_DMA=TRUE -D HAL_DMA=TRUE  /
//                          -D HAL_UART=TRUE -D HAL_UART_DMA=0 -D             /
//                          HAL_UART_ISR=0 -D HAL_UART_SPI=2 -D               /
//                          HAL_SPI_QUEUED_TX=TRUE -D HAL_KEY=FALSE -D        /
//                          HAL_LCD=FALSE -D HAL_LED=FALSE -D                 /
//                          GATT_DB_OFF_CHIP -D GAP_BOND_MGR -lCN             /
//                          "c:\Users\Administrator\Documents\Dropbox\Fish    /
//                          Brain\HM-10 Hack\HM-10 Firmware\Projects\ble\Host /
//                          TestApp\CC2540\CC2540SPI\List\" -lA               /
//                          "c:\Users\Administrator\Documents\Dropbox\Fish    /
//                          Brain\HM-10 Hack\HM-10 Firmware\Projects\ble\Host /
//                          TestApp\CC2540\CC2540SPI\List\" -o                /
//                          "c:\Users\Administrator\Documents\Dropbox\Fish    /
//                          Brain\HM-10 Hack\HM-10 Firmware\Projects\ble\Host /
//                          TestApp\CC2540\CC2540SPI\Obj\" -e --debug         /
//                          --core=plain --dptr=16,1 --data_model=large       /
//                          --code_model=banked --calling_convention=xdata_re /
//                          entrant --place_constants=data_rom                /
//                          --nr_virtual_regs 8 -I "c:\Users\Administrator\Do /
//                          cuments\Dropbox\Fish Brain\HM-10 Hack\HM-10       /
//                          Firmware\Projects\ble\HostTestApp\CC2540\..\..\co /
//                          mmon\" -I "c:\Users\Administrator\Documents\Dropb /
//                          ox\Fish Brain\HM-10 Hack\HM-10                    /
//                          Firmware\Projects\ble\HostTestApp\CC2540\..\..\.. /
//                          \..\Components\hal\include\" -I                   /
//                          "c:\Users\Administrator\Documents\Dropbox\Fish    /
//                          Brain\HM-10 Hack\HM-10 Firmware\Projects\ble\Host /
//                          TestApp\CC2540\..\..\..\..\Components\hal\target\ /
//                          CC2540EB\" -I "c:\Users\Administrator\Documents\D /
//                          ropbox\Fish Brain\HM-10 Hack\HM-10                /
//                          Firmware\Projects\ble\HostTestApp\CC2540\..\..\.. /
//                          \..\Components\osal\include\" -I                  /
//                          "c:\Users\Administrator\Documents\Dropbox\Fish    /
//                          Brain\HM-10 Hack\HM-10 Firmware\Projects\ble\Host /
//                          TestApp\CC2540\..\..\..\..\Components\services\sa /
//                          ddr\" -I "c:\Users\Administrator\Documents\Dropbo /
//                          x\Fish Brain\HM-10 Hack\HM-10                     /
//                          Firmware\Projects\ble\HostTestApp\CC2540\..\..\.. /
//                          \..\Components\ble\include\" -I                   /
//                          "c:\Users\Administrator\Documents\Dropbox\Fish    /
//                          Brain\HM-10 Hack\HM-10 Firmware\Projects\ble\Host /
//                          TestApp\CC2540\..\..\..\..\Components\ble\control /
//                          ler\phy\" -I "c:\Users\Administrator\Documents\Dr /
//                          opbox\Fish Brain\HM-10 Hack\HM-10                 /
//                          Firmware\Projects\ble\HostTestApp\CC2540\..\..\.. /
//                          \..\Components\ble\controller\include\" -I        /
//                          "c:\Users\Administrator\Documents\Dropbox\Fish    /
//                          Brain\HM-10 Hack\HM-10 Firmware\Projects\ble\Host /
//                          TestApp\CC2540\..\..\..\..\Components\ble\hci\"   /
//                          -I "c:\Users\Administrator\Documents\Dropbox\Fish /
//                           Brain\HM-10 Hack\HM-10                           /
//                          Firmware\Projects\ble\HostTestApp\CC2540\..\..\.. /
//                          \..\Components\ble\host\" -I                      /
//                          "c:\Users\Administrator\Documents\Dropbox\Fish    /
//                          Brain\HM-10 Hack\HM-10 Firmware\Projects\ble\Host /
//                          TestApp\CC2540\..\..\common\cc2540\" -I           /
//                          "c:\Users\Administrator\Documents\Dropbox\Fish    /
//                          Brain\HM-10 Hack\HM-10 Firmware\Projects\ble\Host /
//                          TestApp\CC2540\..\..\common\npi\npi_np\" -I       /
//                          "c:\Users\Administrator\Documents\Dropbox\Fish    /
//                          Brain\HM-10 Hack\HM-10 Firmware\Projects\ble\Host /
//                          TestApp\CC2540\..\..\Include\" -I                 /
//                          "c:\Users\Administrator\Documents\Dropbox\Fish    /
//                          Brain\HM-10 Hack\HM-10 Firmware\Projects\ble\Host /
//                          TestApp\CC2540\..\..\Profiles\Roles\" -I          /
//                          "c:\Users\Administrator\Documents\Dropbox\Fish    /
//                          Brain\HM-10 Hack\HM-10 Firmware\Projects\ble\Host /
//                          TestApp\CC2540\..\source\" -Ohz                   /
//    List file          =  c:\Users\Administrator\Documents\Dropbox\Fish     /
//                          Brain\HM-10 Hack\HM-10 Firmware\Projects\ble\Host /
//                          TestApp\CC2540\CC2540SPI\List\hal_flash.s51       /
//                                                                            /
//                                                                            /
///////////////////////////////////////////////////////////////////////////////

        NAME hal_flash

        RTMODEL "__SystemLibrary", "CLib"
        RTMODEL "__calling_convention", "xdata_reentrant"
        RTMODEL "__code_model", "banked"
        RTMODEL "__core", "plain"
        RTMODEL "__data_model", "large"
        RTMODEL "__dptr_size", "16"
        RTMODEL "__extended_stack", "disabled"
        RTMODEL "__location_for_constants", "data"
        RTMODEL "__number_of_dptrs", "1"
        RTMODEL "__rt_version", "1"

        RSEG DOVERLAY:DATA:NOROOT(0)
        RSEG IOVERLAY:IDATA:NOROOT(0)
        RSEG ISTACK:IDATA:NOROOT(0)
        RSEG PSTACK:XDATA:NOROOT(0)
        RSEG XSTACK:XDATA:NOROOT(0)

        EXTERN ?V0
        EXTERN ?V1
        EXTERN ?V2
        EXTERN ?BANKED_ENTER_XDATA
        EXTERN ?BANKED_LEAVE_XDATA
        EXTERN ?BDISPATCH
        EXTERN ?BRET
        EXTERN ?S_SHL
        EXTERN ?US_SHR
        EXTERN ?XSTACK_DISP0_8

        PUBLIC ??HalFlashErase?relay
        FUNCTION ??HalFlashErase?relay,0203H
        PUBLIC ??HalFlashRead?relay
        FUNCTION ??HalFlashRead?relay,0203H
        PUBLIC ??HalFlashWrite?relay
        FUNCTION ??HalFlashWrite?relay,0203H
        PUBWEAK DMAARM
        PUBWEAK DMAIRQ
        PUBLIC HalFlashErase
        FUNCTION HalFlashErase,0203H
        ARGFRAME XSTACK, 0, STACK
        LOCFRAME ISTACK, 2, STACK
        PUBLIC HalFlashRead
        FUNCTION HalFlashRead,080203H
        ARGFRAME XSTACK, 2, STACK
        LOCFRAME ISTACK, 1, STACK
        LOCFRAME XSTACK, 11, STACK
        PUBLIC HalFlashWrite
        FUNCTION HalFlashWrite,080203H
        ARGFRAME XSTACK, 2, STACK
        LOCFRAME XSTACK, 10, STACK
        PUBWEAK MEMCTR
        PUBWEAK _A_IEN0
        
          CFI Names cfiNames0
          CFI StackFrame CFA_SP SP IDATA
          CFI StackFrame CFA_PSP16 PSP16 XDATA
          CFI StackFrame CFA_XSP16 XSP16 XDATA
          CFI StaticOverlayFrame CFA_IOVERLAY IOVERLAY
          CFI StaticOverlayFrame CFA_DOVERLAY DOVERLAY
          CFI Resource `PSW.CY`:1, `B.BR0`:1, `B.BR1`:1, `B.BR2`:1, `B.BR3`:1
          CFI Resource `B.BR4`:1, `B.BR5`:1, `B.BR6`:1, `B.BR7`:1, `VB.BR8`:1
          CFI Resource `VB.BR9`:1, `VB.BR10`:1, `VB.BR11`:1, `VB.BR12`:1
          CFI Resource `VB.BR13`:1, `VB.BR14`:1, `VB.BR15`:1, VB:8, B:8, A:8
          CFI Resource PSW:8, DPL0:8, DPH0:8, R0:8, R1:8, R2:8, R3:8, R4:8, R5:8
          CFI Resource R6:8, R7:8, V0:8, V1:8, V2:8, V3:8, V4:8, V5:8, V6:8, V7:8
          CFI Resource SP:8, PSPH:8, PSPL:8, PSP16:16, XSPH:8, XSPL:8, XSP16:16
          CFI VirtualResource ?RET:24
          CFI Resource ?BRET_EXT:8
          CFI VirtualResource ?RET_HIGH:8, ?RET_LOW:8
          CFI ResourceParts PSP16 PSPH, PSPL
          CFI ResourceParts XSP16 XSPH, XSPL
          CFI ResourceParts ?RET ?BRET_EXT, ?RET_HIGH, ?RET_LOW
          CFI EndNames cfiNames0
        
          CFI Common cfiCommon0 Using cfiNames0
          CFI CodeAlign 1
          CFI DataAlign -1
          CFI ReturnAddress ?RET CODE
          CFI CFA_DOVERLAY Used
          CFI CFA_IOVERLAY Used
          CFI CFA_SP SP+-3
          CFI CFA_PSP16 PSP16+0
          CFI CFA_XSP16 XSP16+0
          CFI `PSW.CY` SameValue
          CFI `B.BR0` SameValue
          CFI `B.BR1` SameValue
          CFI `B.BR2` SameValue
          CFI `B.BR3` SameValue
          CFI `B.BR4` SameValue
          CFI `B.BR5` SameValue
          CFI `B.BR6` SameValue
          CFI `B.BR7` SameValue
          CFI `VB.BR8` SameValue
          CFI `VB.BR9` SameValue
          CFI `VB.BR10` SameValue
          CFI `VB.BR11` SameValue
          CFI `VB.BR12` SameValue
          CFI `VB.BR13` SameValue
          CFI `VB.BR14` SameValue
          CFI `VB.BR15` SameValue
          CFI VB SameValue
          CFI B Undefined
          CFI A Undefined
          CFI PSW SameValue
          CFI DPL0 SameValue
          CFI DPH0 SameValue
          CFI R0 Undefined
          CFI R1 Undefined
          CFI R2 Undefined
          CFI R3 Undefined
          CFI R4 Undefined
          CFI R5 Undefined
          CFI R6 SameValue
          CFI R7 SameValue
          CFI V0 SameValue
          CFI V1 SameValue
          CFI V2 SameValue
          CFI V3 SameValue
          CFI V4 SameValue
          CFI V5 SameValue
          CFI V6 SameValue
          CFI V7 SameValue
          CFI PSPH Undefined
          CFI PSPL Undefined
          CFI XSPH Undefined
          CFI XSPL Undefined
          CFI ?RET Concat
          CFI ?BRET_EXT Frame(CFA_SP, 3)
          CFI ?RET_HIGH Frame(CFA_SP, 2)
          CFI ?RET_LOW Frame(CFA_SP, 1)
          CFI EndCommon cfiCommon0
        
HalFlashErase       SYMBOL "HalFlashErase"
??HalFlashErase?relay SYMBOL "?relay", HalFlashErase
HalFlashRead        SYMBOL "HalFlashRead"
??HalFlashRead?relay SYMBOL "?relay", HalFlashRead
HalFlashWrite       SYMBOL "HalFlashWrite"
??HalFlashWrite?relay SYMBOL "?relay", HalFlashWrite

        EXTERN dmaCh0

// c:\Users\Administrator\Documents\Dropbox\Fish Brain\HM-10 Hack\HM-10 Firmware\Components\hal\target\CC2540EB\hal_flash.c
//    1 /**************************************************************************************************
//    2   Filename:       _hal_flash.c
//    3   Revised:        $Date: 2010-07-06 15:24:36 -0700 (Tue, 06 Jul 2010) $
//    4   Revision:       $Revision: 22897 $
//    5 
//    6   Description: This file contains the interface to the H/W Flash driver.
//    7 
//    8 
//    9   Copyright 2006-2010 Texas Instruments Incorporated. All rights reserved.
//   10 
//   11   IMPORTANT: Your use of this Software is limited to those specific rights
//   12   granted under the terms of a software license agreement between the user
//   13   who downloaded the software, his/her employer (which must be your employer)
//   14   and Texas Instruments Incorporated (the "License").  You may not use this
//   15   Software unless you agree to abide by the terms of the License. The License
//   16   limits your use, and you acknowledge, that the Software may not be modified,
//   17   copied or distributed unless embedded on a Texas Instruments microcontroller
//   18   or used solely and exclusively in conjunction with a Texas Instruments radio
//   19   frequency transceiver, which is integrated into your product.  Other than for
//   20   the foregoing purpose, you may not use, reproduce, copy, prepare derivative
//   21   works of, modify, distribute, perform, display or sell this Software and/or
//   22   its documentation for any purpose.
//   23 
//   24   YOU FURTHER ACKNOWLEDGE AND AGREE THAT THE SOFTWARE AND DOCUMENTATION ARE
//   25   PROVIDED “AS IS” WITHOUT WARRANTY OF ANY KIND, EITHER EXPRESS OR IMPLIED,
//   26   INCLUDING WITHOUT LIMITATION, ANY WARRANTY OF MERCHANTABILITY, TITLE,
//   27   NON-INFRINGEMENT AND FITNESS FOR A PARTICULAR PURPOSE. IN NO EVENT SHALL
//   28   TEXAS INSTRUMENTS OR ITS LICENSORS BE LIABLE OR OBLIGATED UNDER CONTRACT,
//   29   NEGLIGENCE, STRICT LIABILITY, CONTRIBUTION, BREACH OF WARRANTY, OR OTHER
//   30   LEGAL EQUITABLE THEORY ANY DIRECT OR INDIRECT DAMAGES OR EXPENSES
//   31   INCLUDING BUT NOT LIMITED TO ANY INCIDENTAL, SPECIAL, INDIRECT, PUNITIVE
//   32   OR CONSEQUENTIAL DAMAGES, LOST PROFITS OR LOST DATA, COST OF PROCUREMENT
//   33   OF SUBSTITUTE GOODS, TECHNOLOGY, SERVICES, OR ANY CLAIMS BY THIRD PARTIES
//   34   (INCLUDING BUT NOT LIMITED TO ANY DEFENSE THEREOF), OR OTHER SIMILAR COSTS.
//   35 
//   36   Should you have any questions regarding your right to use this Software,
//   37   contact Texas Instruments Incorporated at www.TI.com.
//   38 **************************************************************************************************/
//   39 
//   40 /* ------------------------------------------------------------------------------------------------
//   41  *                                          Includes
//   42  * ------------------------------------------------------------------------------------------------
//   43  */
//   44 
//   45 #include "hal_board_cfg.h"

        ASEGN SFR_AN:DATA:NOROOT,0a8H
// union <unnamed> volatile __sfr _A_IEN0
_A_IEN0:
        DATA8
        DS 1

        ASEGN SFR_AN:DATA:NOROOT,0c7H
// unsigned char volatile __sfr MEMCTR
MEMCTR:
        DATA8
        DS 1

        ASEGN SFR_AN:DATA:NOROOT,0d1H
// unsigned char volatile __sfr DMAIRQ
DMAIRQ:
        DATA8
        DS 1

        ASEGN SFR_AN:DATA:NOROOT,0d6H
// unsigned char volatile __sfr DMAARM
DMAARM:
        DATA8
        DS 1
//   46 #include "hal_dma.h"
//   47 #include "hal_flash.h"
//   48 #include "hal_types.h"
//   49 
//   50 /**************************************************************************************************
//   51  * @fn          HalFlashRead
//   52  *
//   53  * @brief       This function reads 'cnt' bytes from the internal flash.
//   54  *
//   55  * input parameters
//   56  *
//   57  * @param       pg - A valid flash page number.
//   58  * @param       offset - A valid offset into the page.
//   59  * @param       buf - A valid buffer space at least as big as the 'cnt' parameter.
//   60  * @param       cnt - A valid number of bytes to read.
//   61  *
//   62  * output parameters
//   63  *
//   64  * None.
//   65  *
//   66  * @return      None.
//   67  **************************************************************************************************
//   68  */

        RSEG BANKED_CODE:CODE:NOROOT(0)
//   69 void HalFlashRead(uint8 pg, uint16 offset, uint8 *buf, uint16 cnt)
HalFlashRead:
          CFI Block cfiBlock0 Using cfiCommon0
          CFI Function HalFlashRead
        CODE
//   70 {
        REQUIRE ?V0
        REQUIRE ?V1
        REQUIRE ?V2
        MOV     A,#-0xb
        LCALL   ?BANKED_ENTER_XDATA
          CFI DPH0 load(1, XDATA, add(CFA_XSP16, literal(-1)))
          CFI DPL0 load(1, XDATA, add(CFA_XSP16, literal(-2)))
          CFI ?BRET_EXT load(1, XDATA, add(CFA_XSP16, literal(-3)))
          CFI ?RET_HIGH load(1, XDATA, add(CFA_XSP16, literal(-4)))
          CFI ?RET_LOW load(1, XDATA, add(CFA_XSP16, literal(-5)))
          CFI R7 load(1, XDATA, add(CFA_XSP16, literal(-6)))
          CFI V2 load(1, XDATA, add(CFA_XSP16, literal(-7)))
          CFI V1 load(1, XDATA, add(CFA_XSP16, literal(-8)))
          CFI V0 load(1, XDATA, add(CFA_XSP16, literal(-9)))
          CFI VB load(1, XDATA, add(CFA_XSP16, literal(-10)))
          CFI R6 load(1, XDATA, add(CFA_XSP16, literal(-11)))
          CFI CFA_SP SP+0
          CFI CFA_XSP16 add(XSP16, 11)
        ; Saved register size: 11
        ; Auto size: 0
        MOV     A,R1
        MOV     R6,A
//   71   // Calculate the offset into the containing flash bank as it gets mapped into XDATA.
//   72   uint8 *ptr = (uint8 *)(offset + HAL_FLASH_PAGE_MAP) +
//   73                ((pg % HAL_FLASH_PAGE_PER_BANK) * HAL_FLASH_PAGE_SIZE);
        MOV     A,#0xf
        ANL     A,R6
        MOV     ?V0,A
        MOV     ?V1,#0x0
        MOV     A,#0xb
        MOV     R0,#?V0
        LCALL   ?S_SHL
        MOV     A,R2
        ADD     A,#0x0
        MOV     R0,A
        MOV     A,R3
        ADDC    A,#-0x80
        MOV     R1,A
        MOV     A,R0
        ADD     A,#0x0
        MOV     A,R1
        ADDC    A,?V1
        MOV     R1,A
//   74   uint8 memctr = MEMCTR;  // Save to restore.
        MOV     A,0xc7
        MOV     ?V2,A
//   75 
//   76 #if !defined HAL_OAD_BOOT_CODE
//   77   halIntState_t is;
//   78 #endif
//   79 
//   80   pg /= HAL_FLASH_PAGE_PER_BANK;  // Calculate the flash bank from the flash page.
//   81 
//   82 #if !defined HAL_OAD_BOOT_CODE
//   83   HAL_ENTER_CRITICAL_SECTION(is);
        MOV     C,0xa8.7
        CLR     A
        RLC     A
        MOV     R7,A
        CLR     0xa8.7
//   84 #endif
//   85 
//   86   // Calculate and map the containing flash bank into XDATA.
//   87   MEMCTR = (MEMCTR & 0xF8) | pg;
        MOV     A,R6
        SWAP    A
        ANL     A,#0xf
        MOV     R2,A
        MOV     A,0xc7
        ANL     A,#0xf8
        ORL     A,R2
        MOV     0xc7,A
        MOV     A,#0xb
        LCALL   ?XSTACK_DISP0_8
        MOVX    A,@DPTR
        MOV     R2,A
        INC     DPTR
        MOVX    A,@DPTR
        MOV     R3,A
        SJMP    ??HalFlashRead_0
//   88 
//   89   while (cnt--)
//   90   {
//   91     *buf++ = *ptr++;
??HalFlashRead_1:
        MOV     DPL,R0
        MOV     DPH,R1
        MOVX    A,@DPTR
        MOV     DPL,R4
        MOV     DPH,R5
        MOVX    @DPTR,A
        MOV     DPL,R0
        MOV     DPH,R1
        INC     DPTR
        MOV     R0,DPL
        MOV     R1,DPH
        MOV     DPL,R4
        MOV     DPH,R5
        INC     DPTR
        MOV     R4,DPL
        MOV     R5,DPH
//   92   }
??HalFlashRead_0:
        MOV     ?V0,R2
        MOV     ?V1,R3
        MOV     A,?V0
        ADD     A,#-0x1
        DEC     R2
        MOV     A,?V1
        ADDC    A,#-0x1
        MOV     R3,A
        MOV     A,?V0
        ORL     A,?V1
        JNZ     ??HalFlashRead_1
//   93 
//   94   MEMCTR = memctr;
        MOV     0xc7,?V2
//   95 
//   96 #if !defined HAL_OAD_BOOT_CODE
//   97   HAL_EXIT_CRITICAL_SECTION(is);
        MOV     A,R7
        MOV     C,0xE0 /* A   */.0
        MOV     0xa8.7,C
//   98 #endif
//   99 }
        MOV     R7,#0x3
        LJMP    ?BANKED_LEAVE_XDATA
          CFI EndBlock cfiBlock0
        REQUIRE MEMCTR
        REQUIRE _A_IEN0
//  100 
//  101 /**************************************************************************************************
//  102  * @fn          HalFlashWrite
//  103  *
//  104  * @brief       This function writes 'cnt' bytes to the internal flash.
//  105  *
//  106  * input parameters
//  107  *
//  108  * @param       addr - Valid HAL flash write address: actual addr / 4 and quad-aligned.
//  109  * @param       buf - Valid buffer space at least as big as 'cnt' X 4.
//  110  * @param       cnt - Number of 4-byte blocks to write.
//  111  *
//  112  * output parameters
//  113  *
//  114  * None.
//  115  *
//  116  * @return      None.
//  117  **************************************************************************************************
//  118  */

        RSEG BANKED_CODE:CODE:NOROOT(0)
//  119 void HalFlashWrite(uint16 addr, uint8 *buf, uint16 cnt)
HalFlashWrite:
          CFI Block cfiBlock1 Using cfiCommon0
          CFI Function HalFlashWrite
        CODE
//  120 {
        REQUIRE ?V0
        REQUIRE ?V1
        MOV     A,#-0xa
        LCALL   ?BANKED_ENTER_XDATA
          CFI DPH0 load(1, XDATA, add(CFA_XSP16, literal(-1)))
          CFI DPL0 load(1, XDATA, add(CFA_XSP16, literal(-2)))
          CFI ?BRET_EXT load(1, XDATA, add(CFA_XSP16, literal(-3)))
          CFI ?RET_HIGH load(1, XDATA, add(CFA_XSP16, literal(-4)))
          CFI ?RET_LOW load(1, XDATA, add(CFA_XSP16, literal(-5)))
          CFI R7 load(1, XDATA, add(CFA_XSP16, literal(-6)))
          CFI V1 load(1, XDATA, add(CFA_XSP16, literal(-7)))
          CFI V0 load(1, XDATA, add(CFA_XSP16, literal(-8)))
          CFI VB load(1, XDATA, add(CFA_XSP16, literal(-9)))
          CFI R6 load(1, XDATA, add(CFA_XSP16, literal(-10)))
          CFI CFA_SP SP+0
          CFI CFA_XSP16 add(XSP16, 10)
        ; Saved register size: 10
        ; Auto size: 0
//  121 #if (defined HAL_DMA) && (HAL_DMA == TRUE)
//  122   halDMADesc_t *ch = HAL_NV_DMA_GET_DESC();
//  123 
//  124   HAL_DMA_SET_SOURCE(ch, buf);
        MOV     A,R5
        MOV     DPTR,#dmaCh0
        MOVX    @DPTR,A
        MOV     A,R4
        INC     DPTR
        MOVX    @DPTR,A
//  125   HAL_DMA_SET_DEST(ch, &FWDATA);
        INC     DPTR
        MOV     A,#0x62
        MOVX    @DPTR,A
        INC     DPTR
        MOV     A,#0x73
        MOVX    @DPTR,A
//  126   HAL_DMA_SET_VLEN(ch, HAL_DMA_VLEN_USE_LEN);
        INC     DPTR
        MOVX    A,@DPTR
        ANL     A,#0x1f
        MOVX    @DPTR,A
        MOV     A,#0xa
        LCALL   ?XSTACK_DISP0_8
        MOVX    A,@DPTR
        MOV     ?V0,A
        INC     DPTR
        MOVX    A,@DPTR
        MOV     ?V1,A
//  127   HAL_DMA_SET_LEN(ch, (cnt * HAL_FLASH_WORD_SIZE));
        MOV     A,?V0
        RLC     A
        RLC     A
        ANL     A,#0xfc
        MOV     DPTR,#dmaCh0 + 5
        MOVX    @DPTR,A
        MOV     A,#0x6
        MOV     R0,#?V0
        LCALL   ?US_SHR
        MOV     A,?V0
        MOV     DPTR,#dmaCh0 + 4
        MOVX    @DPTR,A
//  128   HAL_DMA_SET_WORD_SIZE(ch, HAL_DMA_WORDSIZE_BYTE);
//  129   HAL_DMA_SET_TRIG_MODE(ch, HAL_DMA_TMODE_SINGLE);
//  130   HAL_DMA_SET_TRIG_SRC(ch, HAL_DMA_TRIG_FLASH);
        MOV     DPTR,#dmaCh0 + 6
        MOV     A,#0x12
        MOVX    @DPTR,A
//  131   HAL_DMA_SET_SRC_INC(ch, HAL_DMA_SRCINC_1);
//  132   HAL_DMA_SET_DST_INC(ch, HAL_DMA_DSTINC_0);
//  133   // The DMA is to be polled and shall not issue an IRQ upon completion.
//  134   HAL_DMA_SET_IRQ(ch, HAL_DMA_IRQMASK_DISABLE);
//  135   HAL_DMA_SET_M8( ch, HAL_DMA_M8_USE_8_BITS);
//  136   HAL_DMA_SET_PRIORITY(ch, HAL_DMA_PRI_HIGH);
        INC     DPTR
        MOV     A,#0x42
        MOVX    @DPTR,A
//  137   HAL_DMA_CLEAR_IRQ(HAL_NV_DMA_CH);
        ANL     0xd1,#0xfe
//  138   HAL_DMA_ARM_CH(HAL_NV_DMA_CH);
        MOV     0xd6,#0x1
//  139 
//  140   FADDRL = (uint8)addr;
        MOV     A,R2
        MOV     DPTR,#0x6271
        MOVX    @DPTR,A
//  141   FADDRH = (uint8)(addr >> 8);
        MOV     A,R3
        INC     DPTR
        MOVX    @DPTR,A
//  142   FCTL |= 0x02;         // Trigger the DMA writes.
        MOV     DPTR,#0x6270
        MOVX    A,@DPTR
        SETB    0xE0 /* A   */.1
        MOVX    @DPTR,A
//  143   while (FCTL & 0x80);  // Wait until writing is done.
??HalFlashWrite_0:
        MOVX    A,@DPTR
        MOV     C,0xE0 /* A   */.7
        JC      ??HalFlashWrite_0
//  144 #endif
//  145 }
        MOV     R7,#0x2
        LJMP    ?BANKED_LEAVE_XDATA
          CFI EndBlock cfiBlock1
        REQUIRE DMAIRQ
        REQUIRE DMAARM
//  146 
//  147 /**************************************************************************************************
//  148  * @fn          HalFlashErase
//  149  *
//  150  * @brief       This function erases the specified page of the internal flash.
//  151  *
//  152  * input parameters
//  153  *
//  154  * @param       pg - A valid flash page number to erase.
//  155  *
//  156  * output parameters
//  157  *
//  158  * None.
//  159  *
//  160  * @return      None.
//  161  **************************************************************************************************
//  162  */

        RSEG BANKED_CODE:CODE:NOROOT(0)
//  163 void HalFlashErase(uint8 pg)
HalFlashErase:
          CFI Block cfiBlock2 Using cfiCommon0
          CFI Function HalFlashErase
        CODE
//  164 {
        PUSH    DPL
          CFI DPL0 Frame(CFA_SP, 4)
          CFI CFA_SP SP+-4
        PUSH    DPH
          CFI DPH0 Frame(CFA_SP, 5)
          CFI CFA_SP SP+-5
        ; Saved register size: 2
        ; Auto size: 0
//  165   FADDRH = pg * (HAL_FLASH_PAGE_SIZE / HAL_FLASH_WORD_SIZE / 256);
        MOV     A,R1
        CLR     C
        RLC     A
        MOV     DPTR,#0x6272
        MOVX    @DPTR,A
//  166   FCTL |= 0x01;
        MOV     DPTR,#0x6270
        MOVX    A,@DPTR
        SETB    0xE0 /* A   */.0
        MOVX    @DPTR,A
//  167 }
        POP     DPH
          CFI DPH0 SameValue
          CFI CFA_SP SP+-4
        POP     DPL
          CFI DPL0 SameValue
          CFI CFA_SP SP+-3
        LJMP    ?BRET
          CFI EndBlock cfiBlock2

        RSEG BANK_RELAYS:CODE:REORDER:NOROOT(0)
??HalFlashRead?relay:
        CODE
        LCALL   ?BDISPATCH
        DATA24
        DC24    HalFlashRead

        RSEG BANK_RELAYS:CODE:REORDER:NOROOT(0)
??HalFlashWrite?relay:
        CODE
        LCALL   ?BDISPATCH
        DATA24
        DC24    HalFlashWrite

        RSEG BANK_RELAYS:CODE:REORDER:NOROOT(0)
??HalFlashErase?relay:
        CODE
        LCALL   ?BDISPATCH
        DATA24
        DC24    HalFlashErase

        END
//  168 
//  169 /**************************************************************************************************
//  170 */
// 
// 260 bytes in segment BANKED_CODE
//  18 bytes in segment BANK_RELAYS
//   4 bytes in segment SFR_AN
// 
// 278 bytes of CODE memory
//   0 bytes of DATA memory (+ 4 bytes shared)
//
//Errors: none
//Warnings: none
