///////////////////////////////////////////////////////////////////////////////
//                                                                            /
// IAR C/C++ Compiler V8.30.1.41636 for 8051            02/Jun/2014  17:47:56 /
// Copyright 2004-2013 IAR Systems AB.                                        /
//                                                                            /
//    Core               =  plain                                             /
//    Code model         =  banked                                            /
//    Data model         =  large                                             /
//    Calling convention =  xdata reentrant                                   /
//    Constant location  =  data_rom                                          /
//    Dptr setup         =  1,16                                              /
//                                                                            /
//    Source file        =  c:\Users\Administrator\Documents\Dropbox\Fish     /
//                          Brain\HM-10 Hack\HM-10 Firmware\Components\hal\ta /
//                          rget\CC2540EB\hal_dma.c                           /
//    Command line       =  -f "c:\Users\Administrator\Documents\Dropbox\Fish /
//                           Brain\HM-10 Hack\HM-10                           /
//                          Firmware\Projects\ble\HostTestApp\CC2540\..\..\co /
//                          nfig\buildComponents.cfg"                         /
//                          (-DBROADCASTER_CFG=0x01 -DOBSERVER_CFG=0x02       /
//                          -DPERIPHERAL_CFG=0x04 -DCENTRAL_CFG=0x08          /
//                          -DADV_NCONN_CFG=0x01 -DADV_CONN_CFG=0x02          /
//                          -DSCAN_CFG=0x04 -DINIT_CFG=0x08                   /
//                          -DADV_CFG=ADV_NCONN_CFG+ADV_CONN_CFG              /
//                          -DLINK_CFG=ADV_CONN_CFG+INIT_CFG                  /
//                          -DFULL_CFG=INIT_CFG+SCAN_CFG+ADV_NCONN_CFG+ADV_CO /
//                          NN_CFG) -f "c:\Users\Administrator\Documents\Drop /
//                          box\Fish Brain\HM-10 Hack\HM-10                   /
//                          Firmware\Projects\ble\HostTestApp\CC2540\buildCon /
//                          fig.cfg" (-DHOST_CONFIG=PERIPHERAL_CFG+CENTRAL_CF /
//                          G -DGAP_PRIVACY_RECONNECT)                        /
//                          "c:\Users\Administrator\Documents\Dropbox\Fish    /
//                          Brain\HM-10 Hack\HM-10 Firmware\Components\hal\ta /
//                          rget\CC2540EB\hal_dma.c" -D INT_HEAP_LEN=2700 -D  /
//                          HALNODEBUG -D OSAL_CBTIMER_NUM_TASKS=1 -D         /
//                          POWER_SAVING -D HAL_AES_DMA=TRUE -D HAL_DMA=TRUE  /
//                          -D HAL_UART=TRUE -D HAL_UART_DMA=0 -D             /
//                          HAL_UART_ISR=0 -D HAL_UART_SPI=2 -D               /
//                          HAL_SPI_QUEUED_TX=TRUE -D HAL_KEY=FALSE -D        /
//                          HAL_LCD=FALSE -D HAL_LED=FALSE -D                 /
//                          GATT_DB_OFF_CHIP -D GAP_BOND_MGR -lCN             /
//                          "c:\Users\Administrator\Documents\Dropbox\Fish    /
//                          Brain\HM-10 Hack\HM-10 Firmware\Projects\ble\Host /
//                          TestApp\CC2540\CC2540SPI\List\" -lA               /
//                          "c:\Users\Administrator\Documents\Dropbox\Fish    /
//                          Brain\HM-10 Hack\HM-10 Firmware\Projects\ble\Host /
//                          TestApp\CC2540\CC2540SPI\List\" -o                /
//                          "c:\Users\Administrator\Documents\Dropbox\Fish    /
//                          Brain\HM-10 Hack\HM-10 Firmware\Projects\ble\Host /
//                          TestApp\CC2540\CC2540SPI\Obj\" -e --debug         /
//                          --core=plain --dptr=16,1 --data_model=large       /
//                          --code_model=banked --calling_convention=xdata_re /
//                          entrant --place_constants=data_rom                /
//                          --nr_virtual_regs 8 -I "c:\Users\Administrator\Do /
//                          cuments\Dropbox\Fish Brain\HM-10 Hack\HM-10       /
//                          Firmware\Projects\ble\HostTestApp\CC2540\..\..\co /
//                          mmon\" -I "c:\Users\Administrator\Documents\Dropb /
//                          ox\Fish Brain\HM-10 Hack\HM-10                    /
//                          Firmware\Projects\ble\HostTestApp\CC2540\..\..\.. /
//                          \..\Components\hal\include\" -I                   /
//                          "c:\Users\Administrator\Documents\Dropbox\Fish    /
//                          Brain\HM-10 Hack\HM-10 Firmware\Projects\ble\Host /
//                          TestApp\CC2540\..\..\..\..\Components\hal\target\ /
//                          CC2540EB\" -I "c:\Users\Administrator\Documents\D /
//                          ropbox\Fish Brain\HM-10 Hack\HM-10                /
//                          Firmware\Projects\ble\HostTestApp\CC2540\..\..\.. /
//                          \..\Components\osal\include\" -I                  /
//                          "c:\Users\Administrator\Documents\Dropbox\Fish    /
//                          Brain\HM-10 Hack\HM-10 Firmware\Projects\ble\Host /
//                          TestApp\CC2540\..\..\..\..\Components\services\sa /
//                          ddr\" -I "c:\Users\Administrator\Documents\Dropbo /
//                          x\Fish Brain\HM-10 Hack\HM-10                     /
//                          Firmware\Projects\ble\HostTestApp\CC2540\..\..\.. /
//                          \..\Components\ble\include\" -I                   /
//                          "c:\Users\Administrator\Documents\Dropbox\Fish    /
//                          Brain\HM-10 Hack\HM-10 Firmware\Projects\ble\Host /
//                          TestApp\CC2540\..\..\..\..\Components\ble\control /
//                          ler\phy\" -I "c:\Users\Administrator\Documents\Dr /
//                          opbox\Fish Brain\HM-10 Hack\HM-10                 /
//                          Firmware\Projects\ble\HostTestApp\CC2540\..\..\.. /
//                          \..\Components\ble\controller\include\" -I        /
//                          "c:\Users\Administrator\Documents\Dropbox\Fish    /
//                          Brain\HM-10 Hack\HM-10 Firmware\Projects\ble\Host /
//                          TestApp\CC2540\..\..\..\..\Components\ble\hci\"   /
//                          -I "c:\Users\Administrator\Documents\Dropbox\Fish /
//                           Brain\HM-10 Hack\HM-10                           /
//                          Firmware\Projects\ble\HostTestApp\CC2540\..\..\.. /
//                          \..\Components\ble\host\" -I                      /
//                          "c:\Users\Administrator\Documents\Dropbox\Fish    /
//                          Brain\HM-10 Hack\HM-10 Firmware\Projects\ble\Host /
//                          TestApp\CC2540\..\..\common\cc2540\" -I           /
//                          "c:\Users\Administrator\Documents\Dropbox\Fish    /
//                          Brain\HM-10 Hack\HM-10 Firmware\Projects\ble\Host /
//                          TestApp\CC2540\..\..\common\npi\npi_np\" -I       /
//                          "c:\Users\Administrator\Documents\Dropbox\Fish    /
//                          Brain\HM-10 Hack\HM-10 Firmware\Projects\ble\Host /
//                          TestApp\CC2540\..\..\Include\" -I                 /
//                          "c:\Users\Administrator\Documents\Dropbox\Fish    /
//                          Brain\HM-10 Hack\HM-10 Firmware\Projects\ble\Host /
//                          TestApp\CC2540\..\..\Profiles\Roles\" -I          /
//                          "c:\Users\Administrator\Documents\Dropbox\Fish    /
//                          Brain\HM-10 Hack\HM-10 Firmware\Projects\ble\Host /
//                          TestApp\CC2540\..\source\" -Ohz                   /
//    List file          =  c:\Users\Administrator\Documents\Dropbox\Fish     /
//                          Brain\HM-10 Hack\HM-10 Firmware\Projects\ble\Host /
//                          TestApp\CC2540\CC2540SPI\List\hal_dma.s51         /
//                                                                            /
//                                                                            /
///////////////////////////////////////////////////////////////////////////////

        NAME hal_dma

        RTMODEL "__SystemLibrary", "CLib"
        RTMODEL "__calling_convention", "xdata_reentrant"
        RTMODEL "__code_model", "banked"
        RTMODEL "__core", "plain"
        RTMODEL "__data_model", "large"
        RTMODEL "__dptr_size", "16"
        RTMODEL "__extended_stack", "disabled"
        RTMODEL "__location_for_constants", "data"
        RTMODEL "__number_of_dptrs", "1"
        RTMODEL "__rt_version", "1"

        RSEG DOVERLAY:DATA:NOROOT(0)
        RSEG IOVERLAY:IDATA:NOROOT(0)
        RSEG ISTACK:IDATA:NOROOT(0)
        RSEG PSTACK:XDATA:NOROOT(0)
        RSEG XSTACK:XDATA:NOROOT(0)

        EXTERN ?BDISPATCH
        EXTERN ?BRET
        EXTERN ?INTERRUPT_ENTER_XSP
        EXTERN ?INTERRUPT_LEAVE_XSP
        EXTERN __INIT_XDATA_Z

        PUBLIC ??HalDmaInit?relay
        FUNCTION ??HalDmaInit?relay,0203H
        PUBWEAK `??halDmaIsr??INTVEC 67`
        PUBWEAK DMA0CFGH
        PUBWEAK DMA0CFGL
        PUBWEAK DMA1CFGH
        PUBWEAK DMA1CFGL
        PUBWEAK DMAIRQ
        PUBLIC HalDmaInit
        FUNCTION HalDmaInit,0203H
        ARGFRAME XSTACK, 0, STACK
        PUBWEAK _A_IEN0
        PUBWEAK _A_IEN1
        PUBWEAK _A_IRCON
        PUBLIC dmaCh0
        PUBLIC dmaCh1234
        PUBLIC halDmaIsr
        FUNCTION halDmaIsr,021233H
        ARGFRAME XSTACK, 0, STACK
        LOCFRAME XSTACK, 14, STACK
        
          CFI Names cfiNames0
          CFI StackFrame CFA_SP SP IDATA
          CFI StackFrame CFA_PSP16 PSP16 XDATA
          CFI StackFrame CFA_XSP16 XSP16 XDATA
          CFI StaticOverlayFrame CFA_IOVERLAY IOVERLAY
          CFI StaticOverlayFrame CFA_DOVERLAY DOVERLAY
          CFI Resource `PSW.CY`:1, `B.BR0`:1, `B.BR1`:1, `B.BR2`:1, `B.BR3`:1
          CFI Resource `B.BR4`:1, `B.BR5`:1, `B.BR6`:1, `B.BR7`:1, `VB.BR8`:1
          CFI Resource `VB.BR9`:1, `VB.BR10`:1, `VB.BR11`:1, `VB.BR12`:1
          CFI Resource `VB.BR13`:1, `VB.BR14`:1, `VB.BR15`:1, VB:8, B:8, A:8
          CFI Resource PSW:8, DPL0:8, DPH0:8, R0:8, R1:8, R2:8, R3:8, R4:8, R5:8
          CFI Resource R6:8, R7:8, V0:8, V1:8, V2:8, V3:8, V4:8, V5:8, V6:8, V7:8
          CFI Resource SP:8, PSPH:8, PSPL:8, PSP16:16, XSPH:8, XSPL:8, XSP16:16
          CFI VirtualResource ?RET:24
          CFI Resource ?BRET_EXT:8
          CFI VirtualResource ?RET_HIGH:8, ?RET_LOW:8
          CFI ResourceParts PSP16 PSPH, PSPL
          CFI ResourceParts XSP16 XSPH, XSPL
          CFI ResourceParts ?RET ?BRET_EXT, ?RET_HIGH, ?RET_LOW
          CFI EndNames cfiNames0
        
          CFI Common cfiCommon0 Using cfiNames0
          CFI CodeAlign 1
          CFI DataAlign -1
          CFI ReturnAddress ?RET CODE
          CFI CFA_DOVERLAY Used
          CFI CFA_IOVERLAY Used
          CFI CFA_SP SP+-3
          CFI CFA_PSP16 PSP16+0
          CFI CFA_XSP16 XSP16+0
          CFI `PSW.CY` SameValue
          CFI `B.BR0` SameValue
          CFI `B.BR1` SameValue
          CFI `B.BR2` SameValue
          CFI `B.BR3` SameValue
          CFI `B.BR4` SameValue
          CFI `B.BR5` SameValue
          CFI `B.BR6` SameValue
          CFI `B.BR7` SameValue
          CFI `VB.BR8` SameValue
          CFI `VB.BR9` SameValue
          CFI `VB.BR10` SameValue
          CFI `VB.BR11` SameValue
          CFI `VB.BR12` SameValue
          CFI `VB.BR13` SameValue
          CFI `VB.BR14` SameValue
          CFI `VB.BR15` SameValue
          CFI VB SameValue
          CFI B Undefined
          CFI A Undefined
          CFI PSW SameValue
          CFI DPL0 SameValue
          CFI DPH0 SameValue
          CFI R0 Undefined
          CFI R1 Undefined
          CFI R2 Undefined
          CFI R3 Undefined
          CFI R4 Undefined
          CFI R5 Undefined
          CFI R6 SameValue
          CFI R7 SameValue
          CFI V0 SameValue
          CFI V1 SameValue
          CFI V2 SameValue
          CFI V3 SameValue
          CFI V4 SameValue
          CFI V5 SameValue
          CFI V6 SameValue
          CFI V7 SameValue
          CFI PSPH Undefined
          CFI PSPL Undefined
          CFI XSPH Undefined
          CFI XSPL Undefined
          CFI ?RET Concat
          CFI ?BRET_EXT Frame(CFA_SP, 3)
          CFI ?RET_HIGH Frame(CFA_SP, 2)
          CFI ?RET_LOW Frame(CFA_SP, 1)
          CFI EndCommon cfiCommon0
        
        
          CFI Common cfiCommon1 Using cfiNames0
          CFI CodeAlign 1
          CFI DataAlign -1
          CFI ReturnAddress ?RET CODE
          CFI CFA_DOVERLAY Used
          CFI CFA_IOVERLAY Used
          CFI CFA_SP SP+-2
          CFI CFA_PSP16 PSP16+0
          CFI CFA_XSP16 XSP16+0
          CFI `PSW.CY` SameValue
          CFI `B.BR0` SameValue
          CFI `B.BR1` SameValue
          CFI `B.BR2` SameValue
          CFI `B.BR3` SameValue
          CFI `B.BR4` SameValue
          CFI `B.BR5` SameValue
          CFI `B.BR6` SameValue
          CFI `B.BR7` SameValue
          CFI `VB.BR8` SameValue
          CFI `VB.BR9` SameValue
          CFI `VB.BR10` SameValue
          CFI `VB.BR11` SameValue
          CFI `VB.BR12` SameValue
          CFI `VB.BR13` SameValue
          CFI `VB.BR14` SameValue
          CFI `VB.BR15` SameValue
          CFI VB SameValue
          CFI B SameValue
          CFI A SameValue
          CFI PSW SameValue
          CFI DPL0 SameValue
          CFI DPH0 SameValue
          CFI R0 SameValue
          CFI R1 SameValue
          CFI R2 SameValue
          CFI R3 SameValue
          CFI R4 SameValue
          CFI R5 SameValue
          CFI R6 SameValue
          CFI R7 SameValue
          CFI V0 SameValue
          CFI V1 SameValue
          CFI V2 SameValue
          CFI V3 SameValue
          CFI V4 SameValue
          CFI V5 SameValue
          CFI V6 SameValue
          CFI V7 SameValue
          CFI PSPH Undefined
          CFI PSPL Undefined
          CFI XSPH Undefined
          CFI XSPL Undefined
          CFI ?RET Concat
          CFI ?BRET_EXT SameValue
          CFI ?RET_HIGH Frame(CFA_SP, 2)
          CFI ?RET_LOW Frame(CFA_SP, 1)
          CFI EndCommon cfiCommon1
        
HalUARTIsrDMA       SYMBOL "HalUARTIsrDMA"
??HalUARTIsrDMA?relay SYMBOL "?relay", HalUARTIsrDMA
HalDmaInit          SYMBOL "HalDmaInit"
??HalDmaInit?relay  SYMBOL "?relay", HalDmaInit
halDmaIsr           SYMBOL "halDmaIsr"
`??halDmaIsr??INTVEC 67` SYMBOL "??INTVEC 67", halDmaIsr

        EXTERN ??HalUARTIsrDMA?relay
        FUNCTION ??HalUARTIsrDMA?relay,00H
        EXTERN HalUARTIsrDMA
        FUNCTION HalUARTIsrDMA,0202H
        ARGFRAME ISTACK, 0, STACK
        ARGFRAME PSTACK, 0, STACK
        ARGFRAME XSTACK, 14, STACK
        ARGFRAME IOVERLAY, 0, STATIC
        ARGFRAME DOVERLAY, 0, STATIC
        EXTERN halSleepPconValue

// c:\Users\Administrator\Documents\Dropbox\Fish Brain\HM-10 Hack\HM-10 Firmware\Components\hal\target\CC2540EB\hal_dma.c
//    1 /**************************************************************************************************
//    2   Filename:       hal_dma.c
//    3   Revised:        $Date: 2012-07-18 12:44:06 -0700 (Wed, 18 Jul 2012) $
//    4   Revision:       $Revision: 30952 $
//    5 
//    6   Description:    This file contains the interface to the DMA.
//    7 
//    8 
//    9   Copyright 2009-2012 Texas Instruments Incorporated. All rights reserved.
//   10 
//   11   IMPORTANT: Your use of this Software is limited to those specific rights
//   12   granted under the terms of a software license agreement between the user
//   13   who downloaded the software, his/her employer (which must be your employer)
//   14   and Texas Instruments Incorporated (the "License").  You may not use this
//   15   Software unless you agree to abide by the terms of the License. The License
//   16   limits your use, and you acknowledge, that the Software may not be modified,
//   17   copied or distributed unless embedded on a Texas Instruments microcontroller
//   18   or used solely and exclusively in conjunction with a Texas Instruments radio
//   19   frequency transceiver, which is integrated into your product.  Other than for
//   20   the foregoing purpose, you may not use, reproduce, copy, prepare derivative
//   21   works of, modify, distribute, perform, display or sell this Software and/or
//   22   its documentation for any purpose.
//   23 
//   24   YOU FURTHER ACKNOWLEDGE AND AGREE THAT THE SOFTWARE AND DOCUMENTATION ARE
//   25   PROVIDED “AS IS” WITHOUT WARRANTY OF ANY KIND, EITHER EXPRESS OR IMPLIED,
//   26   INCLUDING WITHOUT LIMITATION, ANY WARRANTY OF MERCHANTABILITY, TITLE,
//   27   NON-INFRINGEMENT AND FITNESS FOR A PARTICULAR PURPOSE. IN NO EVENT SHALL
//   28   TEXAS INSTRUMENTS OR ITS LICENSORS BE LIABLE OR OBLIGATED UNDER CONTRACT,
//   29   NEGLIGENCE, STRICT LIABILITY, CONTRIBUTION, BREACH OF WARRANTY, OR OTHER
//   30   LEGAL EQUITABLE THEORY ANY DIRECT OR INDIRECT DAMAGES OR EXPENSES
//   31   INCLUDING BUT NOT LIMITED TO ANY INCIDENTAL, SPECIAL, INDIRECT, PUNITIVE
//   32   OR CONSEQUENTIAL DAMAGES, LOST PROFITS OR LOST DATA, COST OF PROCUREMENT
//   33   OF SUBSTITUTE GOODS, TECHNOLOGY, SERVICES, OR ANY CLAIMS BY THIRD PARTIES
//   34   (INCLUDING BUT NOT LIMITED TO ANY DEFENSE THEREOF), OR OTHER SIMILAR COSTS.
//   35 
//   36   Should you have any questions regarding your right to use this Software,
//   37   contact Texas Instruments Incorporated at www.TI.com.
//   38 **************************************************************************************************/
//   39 
//   40 /*********************************************************************
//   41  * INCLUDES
//   42  */
//   43 
//   44 #include "hal_dma.h"

        ASEGN SFR_AN:DATA:NOROOT,0a8H
// union <unnamed> volatile __sfr _A_IEN0
_A_IEN0:
        DATA8
        DS 1

        ASEGN SFR_AN:DATA:NOROOT,0b8H
// union <unnamed> volatile __sfr _A_IEN1
_A_IEN1:
        DATA8
        DS 1

        ASEGN SFR_AN:DATA:NOROOT,0c0H
// union <unnamed> volatile __sfr _A_IRCON
_A_IRCON:
        DATA8
        DS 1

        ASEGN SFR_AN:DATA:NOROOT,0d1H
// unsigned char volatile __sfr DMAIRQ
DMAIRQ:
        DATA8
        DS 1

        ASEGN SFR_AN:DATA:NOROOT,0d2H
// unsigned char volatile __sfr DMA1CFGL
DMA1CFGL:
        DATA8
        DS 1

        ASEGN SFR_AN:DATA:NOROOT,0d3H
// unsigned char volatile __sfr DMA1CFGH
DMA1CFGH:
        DATA8
        DS 1

        ASEGN SFR_AN:DATA:NOROOT,0d4H
// unsigned char volatile __sfr DMA0CFGL
DMA0CFGL:
        DATA8
        DS 1

        ASEGN SFR_AN:DATA:NOROOT,0d5H
// unsigned char volatile __sfr DMA0CFGH
DMA0CFGH:
        DATA8
        DS 1
//   45 #include "hal_mcu.h"
//   46 #include "hal_types.h"
//   47 #include "hal_uart.h"
//   48 
//   49 #if (defined HAL_IRGEN) && (HAL_IRGEN == TRUE)
//   50 #include "hal_irgen.h"
//   51 #endif
//   52 
//   53 #if ((defined HAL_DMA) && (HAL_DMA == TRUE))
//   54 
//   55 /*********************************************************************
//   56  * GLOBAL VARIABLES
//   57  */
//   58 

        RSEG XDATA_Z:XDATA:NOROOT(0)
        DATA8
//   59 halDMADesc_t dmaCh0;
dmaCh0:
        DS 8
        REQUIRE __INIT_XDATA_Z

        RSEG XDATA_Z:XDATA:NOROOT(0)
        DATA8
//   60 halDMADesc_t dmaCh1234[4];
dmaCh1234:
        DS 32
        REQUIRE __INIT_XDATA_Z
//   61 
//   62 /******************************************************************************
//   63  * @fn      HalDMAInit
//   64  *
//   65  * @brief   DMA Interrupt Service Routine
//   66  *
//   67  * @param   None
//   68  *
//   69  * @return  None
//   70  *****************************************************************************/

        RSEG BANKED_CODE:CODE:NOROOT(0)
//   71 void HalDmaInit( void )
HalDmaInit:
          CFI Block cfiBlock0 Using cfiCommon0
          CFI Function HalDmaInit
        CODE
//   72 {
        ; Saved register size: 0
        ; Auto size: 0
//   73   HAL_DMA_SET_ADDR_DESC0( &dmaCh0 );
        MOV     A,#(dmaCh0 >> 8) & 0xff
        MOV     0xd5,A
        MOV     0xd4,#dmaCh0 & 0xff
//   74   HAL_DMA_SET_ADDR_DESC1234( dmaCh1234 );
        MOV     A,#(dmaCh1234 >> 8) & 0xff
        MOV     0xd3,A
        MOV     0xd2,#dmaCh1234 & 0xff
//   75 #if (HAL_UART_DMA || \ 
//   76    ((defined HAL_UART_SPI) && (HAL_UART_SPI != 0)) || \ 
//   77    ((defined HAL_IRGEN) && (HAL_IRGEN == TRUE)))
//   78   DMAIE = 1;
        SETB    0xb8.0
//   79 #endif
//   80 }
        LJMP    ?BRET
          CFI EndBlock cfiBlock0
        REQUIRE DMA0CFGH
        REQUIRE DMA0CFGL
        REQUIRE DMA1CFGH
        REQUIRE DMA1CFGL
        REQUIRE _A_IEN1
//   81 
//   82 #if (HAL_UART_DMA || \ 
//   83    ((defined HAL_UART_SPI) && (HAL_UART_SPI != 0)) || \ 
//   84    ((defined HAL_IRGEN) && (HAL_IRGEN == TRUE)))
//   85 /******************************************************************************
//   86  * @fn      HalDMAInit
//   87  *
//   88  * @brief   DMA Interrupt Service Routine
//   89  *
//   90  * @param   None
//   91  *
//   92  * @return  None
//   93  *****************************************************************************/

        RSEG NEAR_CODE:CODE:NOROOT(0)
//   94 HAL_ISR_FUNCTION( halDmaIsr, DMA_VECTOR )
halDmaIsr:
          CFI Block cfiBlock1 Using cfiCommon1
          CFI Function halDmaIsr
        CODE
//   95 {
        FUNCALL halDmaIsr, HalUARTIsrDMA
        LOCFRAME ISTACK, 0, STACK
        LOCFRAME PSTACK, 0, STACK
        LOCFRAME XSTACK, 14, STACK
        LOCFRAME IOVERLAY, 0, STATIC
        LOCFRAME DOVERLAY, 0, STATIC
        ARGFRAME ISTACK, 0, STACK
        ARGFRAME PSTACK, 0, STACK
        ARGFRAME XSTACK, 14, STACK
        ARGFRAME IOVERLAY, 0, STATIC
        ARGFRAME DOVERLAY, 0, STATIC
        PUSH    A
          CFI A Frame(CFA_SP, 3)
          CFI CFA_SP SP+-3
        MOV     A,#-0xe
        LCALL   ?INTERRUPT_ENTER_XSP
          CFI B load(1, XDATA, add(CFA_XSP16, literal(-1)))
          CFI VB load(1, XDATA, add(CFA_XSP16, literal(-2)))
          CFI PSW load(1, XDATA, add(CFA_XSP16, literal(-3)))
          CFI DPL0 load(1, XDATA, add(CFA_XSP16, literal(-4)))
          CFI DPH0 load(1, XDATA, add(CFA_XSP16, literal(-5)))
          CFI R7 load(1, XDATA, add(CFA_XSP16, literal(-6)))
          CFI R6 load(1, XDATA, add(CFA_XSP16, literal(-7)))
          CFI R5 load(1, XDATA, add(CFA_XSP16, literal(-8)))
          CFI R4 load(1, XDATA, add(CFA_XSP16, literal(-9)))
          CFI V0 load(1, XDATA, add(CFA_XSP16, literal(-10)))
          CFI R3 load(1, XDATA, add(CFA_XSP16, literal(-11)))
          CFI R2 load(1, XDATA, add(CFA_XSP16, literal(-12)))
          CFI R1 load(1, XDATA, add(CFA_XSP16, literal(-13)))
          CFI R0 load(1, XDATA, add(CFA_XSP16, literal(-14)))
          CFI CFA_XSP16 add(XSP16, 14)
        ; Saved register size: 14
        ; Auto size: 0
//   96   HAL_ENTER_ISR();
        MOV     C,0xa8.7
        CLR     A
        RLC     A
        MOV     R6,A
        SETB    0xa8.7
//   97 
//   98   DMAIF = 0;
        CLR     0xc0.0
//   99 
//  100 #if (((defined HAL_UART_DMA) && (HAL_UART_DMA != 0)) || \ 
//  101      ((defined HAL_UART_SPI) && (HAL_UART_SPI != 0)))
//  102   if (HAL_DMA_CHECK_IRQ(HAL_DMA_CH_TX))
        MOV     A,0xd1
        MOV     C,0xE0 /* A   */.4
        JNC     ??halDmaIsr_0
//  103   {
//  104     HAL_DMA_CLEAR_IRQ(HAL_DMA_CH_TX);
        ANL     0xd1,#0xef
//  105     extern void HalUARTIsrDMA(void);
//  106     HalUARTIsrDMA();
        ; Setup parameters for call to function HalUARTIsrDMA
        LCALL   ??HalUARTIsrDMA?relay; Banked call to: HalUARTIsrDMA
//  107   }
//  108 #endif
//  109 
//  110 #if (defined HAL_IRGEN) && (HAL_IRGEN == TRUE)
//  111   if ( HAL_IRGEN == TRUE && HAL_DMA_CHECK_IRQ( HAL_IRGEN_DMA_CH ) )
//  112   {
//  113     HAL_DMA_CLEAR_IRQ( HAL_IRGEN_DMA_CH );
//  114     HalIrGenDmaIsr();
//  115   }
//  116 #endif
//  117 
//  118   CLEAR_SLEEP_MODE();
??halDmaIsr_0:
        MOV     halSleepPconValue,#0x0
//  119   HAL_EXIT_ISR();
        MOV     A,R6
        MOV     C,0xE0 /* A   */.0
        MOV     0xa8.7,C
//  120 
//  121   return;
        MOV     R7,#0x1
        LJMP    ?INTERRUPT_LEAVE_XSP
          CFI EndBlock cfiBlock1
        REQUIRE _A_IEN0
        REQUIRE _A_IRCON
        REQUIRE DMAIRQ
//  122 }

        COMMON INTVEC:CODE:ROOT(0)
        ORG 67
`??halDmaIsr??INTVEC 67`:
        LJMP       (halDmaIsr)

        RSEG BANK_RELAYS:CODE:REORDER:NOROOT(0)
??HalDmaInit?relay:
        CODE
        LCALL   ?BDISPATCH
        DATA24
        DC24    HalDmaInit

        END
//  123 #endif
//  124 #endif  // #if ((defined HAL_DMA) && (HAL_DMA == TRUE))
//  125 
//  126 /******************************************************************************
//  127 ******************************************************************************/
// 
// 19 bytes in segment BANKED_CODE
//  6 bytes in segment BANK_RELAYS
//  3 bytes in segment INTVEC
// 41 bytes in segment NEAR_CODE
//  8 bytes in segment SFR_AN
// 40 bytes in segment XDATA_Z
// 
// 66 bytes of CODE  memory (+ 3 bytes shared)
//  0 bytes of DATA  memory (+ 8 bytes shared)
// 40 bytes of XDATA memory
//
//Errors: none
//Warnings: none
