###############################################################################
#                                                                             #
# IAR C/C++ Compiler V8.30.1.41636 for 8051             02/Jun/2014  17:48:16 #
# Copyright 2004-2013 IAR Systems AB.                                         #
#                                                                             #
#    Core               =  plain                                              #
#    Code model         =  banked                                             #
#    Data model         =  large                                              #
#    Calling convention =  xdata reentrant                                    #
#    Constant location  =  data_rom                                           #
#    Dptr setup         =  1,16                                               #
#                                                                             #
#    Source file        =  c:\Users\Administrator\Documents\Dropbox\Fish      #
#                          Brain\HM-10 Hack\HM-10 Firmware\Components\hal\tar #
#                          get\CC2540EB\hal_adc.c                             #
#    Command line       =  -f "c:\Users\Administrator\Documents\Dropbox\Fish  #
#                          Brain\HM-10 Hack\HM-10 Firmware\Projects\ble\HostT #
#                          estApp\CC2540\..\..\config\buildComponents.cfg"    #
#                          (-DBROADCASTER_CFG=0x01 -DOBSERVER_CFG=0x02        #
#                          -DPERIPHERAL_CFG=0x04 -DCENTRAL_CFG=0x08           #
#                          -DADV_NCONN_CFG=0x01 -DADV_CONN_CFG=0x02           #
#                          -DSCAN_CFG=0x04 -DINIT_CFG=0x08                    #
#                          -DADV_CFG=ADV_NCONN_CFG+ADV_CONN_CFG               #
#                          -DLINK_CFG=ADV_CONN_CFG+INIT_CFG                   #
#                          -DFULL_CFG=INIT_CFG+SCAN_CFG+ADV_NCONN_CFG+ADV_CON #
#                          N_CFG) -f "c:\Users\Administrator\Documents\Dropbo #
#                          x\Fish Brain\HM-10 Hack\HM-10                      #
#                          Firmware\Projects\ble\HostTestApp\CC2540\buildConf #
#                          ig.cfg" (-DHOST_CONFIG=PERIPHERAL_CFG+CENTRAL_CFG  #
#                          -DGAP_PRIVACY_RECONNECT)                           #
#                          "c:\Users\Administrator\Documents\Dropbox\Fish     #
#                          Brain\HM-10 Hack\HM-10 Firmware\Components\hal\tar #
#                          get\CC2540EB\hal_adc.c" -D INT_HEAP_LEN=2700 -D    #
#                          HALNODEBUG -D OSAL_CBTIMER_NUM_TASKS=1 -D          #
#                          POWER_SAVING -D HAL_AES_DMA=TRUE -D HAL_DMA=TRUE   #
#                          -D HAL_UART=TRUE -D HAL_UART_DMA=0 -D              #
#                          HAL_UART_ISR=0 -D HAL_UART_SPI=2 -D                #
#                          HAL_SPI_QUEUED_TX=TRUE -D HAL_KEY=FALSE -D         #
#                          HAL_LCD=FALSE -D HAL_LED=FALSE -D                  #
#                          GATT_DB_OFF_CHIP -D GAP_BOND_MGR -lCN              #
#                          "c:\Users\Administrator\Documents\Dropbox\Fish     #
#                          Brain\HM-10 Hack\HM-10 Firmware\Projects\ble\HostT #
#                          estApp\CC2540\CC2540SPI\List\" -lA                 #
#                          "c:\Users\Administrator\Documents\Dropbox\Fish     #
#                          Brain\HM-10 Hack\HM-10 Firmware\Projects\ble\HostT #
#                          estApp\CC2540\CC2540SPI\List\" -o                  #
#                          "c:\Users\Administrator\Documents\Dropbox\Fish     #
#                          Brain\HM-10 Hack\HM-10 Firmware\Projects\ble\HostT #
#                          estApp\CC2540\CC2540SPI\Obj\" -e --debug           #
#                          --core=plain --dptr=16,1 --data_model=large        #
#                          --code_model=banked --calling_convention=xdata_ree #
#                          ntrant --place_constants=data_rom                  #
#                          --nr_virtual_regs 8 -I "c:\Users\Administrator\Doc #
#                          uments\Dropbox\Fish Brain\HM-10 Hack\HM-10         #
#                          Firmware\Projects\ble\HostTestApp\CC2540\..\..\com #
#                          mon\" -I "c:\Users\Administrator\Documents\Dropbox #
#                          \Fish Brain\HM-10 Hack\HM-10                       #
#                          Firmware\Projects\ble\HostTestApp\CC2540\..\..\..\ #
#                          ..\Components\hal\include\" -I                     #
#                          "c:\Users\Administrator\Documents\Dropbox\Fish     #
#                          Brain\HM-10 Hack\HM-10 Firmware\Projects\ble\HostT #
#                          estApp\CC2540\..\..\..\..\Components\hal\target\CC #
#                          2540EB\" -I "c:\Users\Administrator\Documents\Drop #
#                          box\Fish Brain\HM-10 Hack\HM-10                    #
#                          Firmware\Projects\ble\HostTestApp\CC2540\..\..\..\ #
#                          ..\Components\osal\include\" -I                    #
#                          "c:\Users\Administrator\Documents\Dropbox\Fish     #
#                          Brain\HM-10 Hack\HM-10 Firmware\Projects\ble\HostT #
#                          estApp\CC2540\..\..\..\..\Components\services\sadd #
#                          r\" -I "c:\Users\Administrator\Documents\Dropbox\F #
#                          ish Brain\HM-10 Hack\HM-10                         #
#                          Firmware\Projects\ble\HostTestApp\CC2540\..\..\..\ #
#                          ..\Components\ble\include\" -I                     #
#                          "c:\Users\Administrator\Documents\Dropbox\Fish     #
#                          Brain\HM-10 Hack\HM-10 Firmware\Projects\ble\HostT #
#                          estApp\CC2540\..\..\..\..\Components\ble\controlle #
#                          r\phy\" -I "c:\Users\Administrator\Documents\Dropb #
#                          ox\Fish Brain\HM-10 Hack\HM-10                     #
#                          Firmware\Projects\ble\HostTestApp\CC2540\..\..\..\ #
#                          ..\Components\ble\controller\include\" -I          #
#                          "c:\Users\Administrator\Documents\Dropbox\Fish     #
#                          Brain\HM-10 Hack\HM-10 Firmware\Projects\ble\HostT #
#                          estApp\CC2540\..\..\..\..\Components\ble\hci\" -I  #
#                          "c:\Users\Administrator\Documents\Dropbox\Fish     #
#                          Brain\HM-10 Hack\HM-10 Firmware\Projects\ble\HostT #
#                          estApp\CC2540\..\..\..\..\Components\ble\host\"    #
#                          -I "c:\Users\Administrator\Documents\Dropbox\Fish  #
#                          Brain\HM-10 Hack\HM-10 Firmware\Projects\ble\HostT #
#                          estApp\CC2540\..\..\common\cc2540\" -I             #
#                          "c:\Users\Administrator\Documents\Dropbox\Fish     #
#                          Brain\HM-10 Hack\HM-10 Firmware\Projects\ble\HostT #
#                          estApp\CC2540\..\..\common\npi\npi_np\" -I         #
#                          "c:\Users\Administrator\Documents\Dropbox\Fish     #
#                          Brain\HM-10 Hack\HM-10 Firmware\Projects\ble\HostT #
#                          estApp\CC2540\..\..\Include\" -I                   #
#                          "c:\Users\Administrator\Documents\Dropbox\Fish     #
#                          Brain\HM-10 Hack\HM-10 Firmware\Projects\ble\HostT #
#                          estApp\CC2540\..\..\Profiles\Roles\" -I            #
#                          "c:\Users\Administrator\Documents\Dropbox\Fish     #
#                          Brain\HM-10 Hack\HM-10 Firmware\Projects\ble\HostT #
#                          estApp\CC2540\..\source\" -Ohz                     #
#    List file          =  c:\Users\Administrator\Documents\Dropbox\Fish      #
#                          Brain\HM-10 Hack\HM-10 Firmware\Projects\ble\HostT #
#                          estApp\CC2540\CC2540SPI\List\hal_adc.lst           #
#    Object file        =  c:\Users\Administrator\Documents\Dropbox\Fish      #
#                          Brain\HM-10 Hack\HM-10 Firmware\Projects\ble\HostT #
#                          estApp\CC2540\CC2540SPI\Obj\hal_adc.r51            #
#                                                                             #
#                                                                             #
###############################################################################

c:\Users\Administrator\Documents\Dropbox\Fish Brain\HM-10 Hack\HM-10 Firmware\Components\hal\target\CC2540EB\hal_adc.c
      1          /**************************************************************************************************
      2            Filename:       hal_adc.c
      3            Revised:        $Date: 2013-10-24 11:31:53 -0700 (Thu, 24 Oct 2013) $
      4            Revision:       $Revision: 35788 $
      5          
      6            Description:    This file contains the interface to the HAL ADC.
      7          
      8          
      9            Copyright 2006-2010 Texas Instruments Incorporated. All rights reserved.
     10          
     11            IMPORTANT: Your use of this Software is limited to those specific rights
     12            granted under the terms of a software license agreement between the user
     13            who downloaded the software, his/her employer (which must be your employer)
     14            and Texas Instruments Incorporated (the "License").  You may not use this
     15            Software unless you agree to abide by the terms of the License. The License
     16            limits your use, and you acknowledge, that the Software may not be modified,
     17            copied or distributed unless embedded on a Texas Instruments microcontroller
     18            or used solely and exclusively in conjunction with a Texas Instruments radio
     19            frequency transceiver, which is integrated into your product.  Other than for
     20            the foregoing purpose, you may not use, reproduce, copy, prepare derivative
     21            works of, modify, distribute, perform, display or sell this Software and/or
     22            its documentation for any purpose.
     23          
     24            YOU FURTHER ACKNOWLEDGE AND AGREE THAT THE SOFTWARE AND DOCUMENTATION ARE
     25            PROVIDED “AS IS” WITHOUT WARRANTY OF ANY KIND, EITHER EXPRESS OR IMPLIED,
     26            INCLUDING WITHOUT LIMITATION, ANY WARRANTY OF MERCHANTABILITY, TITLE,
     27            NON-INFRINGEMENT AND FITNESS FOR A PARTICULAR PURPOSE. IN NO EVENT SHALL
     28            TEXAS INSTRUMENTS OR ITS LICENSORS BE LIABLE OR OBLIGATED UNDER CONTRACT,
     29            NEGLIGENCE, STRICT LIABILITY, CONTRIBUTION, BREACH OF WARRANTY, OR OTHER
     30            LEGAL EQUITABLE THEORY ANY DIRECT OR INDIRECT DAMAGES OR EXPENSES
     31            INCLUDING BUT NOT LIMITED TO ANY INCIDENTAL, SPECIAL, INDIRECT, PUNITIVE
     32            OR CONSEQUENTIAL DAMAGES, LOST PROFITS OR LOST DATA, COST OF PROCUREMENT
     33            OF SUBSTITUTE GOODS, TECHNOLOGY, SERVICES, OR ANY CLAIMS BY THIRD PARTIES
     34            (INCLUDING BUT NOT LIMITED TO ANY DEFENSE THEREOF), OR OTHER SIMILAR COSTS.
     35          
     36            Should you have any questions regarding your right to use this Software,
     37            contact Texas Instruments Incorporated at www.TI.com.
     38          **************************************************************************************************/
     39          
     40          /**************************************************************************************************
     41           *                                           INCLUDES
     42           **************************************************************************************************/
     43          
     44          #include  "hal_adc.h"

   \                                 In  segment SFR_AN, at 0xb4
   \   unsigned char volatile __sfr ADCCON1
   \                     ADCCON1:
   \   000000                DS 1

   \                                 In  segment SFR_AN, at 0xb6
   \   unsigned char volatile __sfr ADCCON3
   \                     ADCCON3:
   \   000000                DS 1

   \                                 In  segment SFR_AN, at 0xba
   \   unsigned char volatile __sfr ADCL
   \                     ADCL:
   \   000000                DS 1

   \                                 In  segment SFR_AN, at 0xbb
   \   unsigned char volatile __sfr ADCH
   \                     ADCH:
   \   000000                DS 1

   \                                 In  segment SFR_AN, at 0xf2
   \   unsigned char volatile __sfr ADCCFG
   \                     ADCCFG:
   \   000000                DS 1
     45          #include  "hal_defs.h"
     46          #include  "hal_mcu.h"
     47          #include  "hal_types.h"
     48          
     49          /**************************************************************************************************
     50           *                                            CONSTANTS
     51           **************************************************************************************************/
     52          #define HAL_ADC_EOC         0x80    /* End of Conversion bit */
     53          #define HAL_ADC_START       0x40    /* Starts Conversion */
     54          
     55          #define HAL_ADC_STSEL_EXT   0x00    /* External Trigger */
     56          #define HAL_ADC_STSEL_FULL  0x10    /* Full Speed, No Trigger */
     57          #define HAL_ADC_STSEL_T1C0  0x20    /* Timer1, Channel 0 Compare Event Trigger */
     58          #define HAL_ADC_STSEL_ST    0x30    /* ADCCON1.ST =1 Trigger */
     59          
     60          #define HAL_ADC_RAND_NORM   0x00    /* Normal Operation */
     61          #define HAL_ADC_RAND_LFSR   0x04    /* Clock LFSR */
     62          #define HAL_ADC_RAND_SEED   0x08    /* Seed Modulator */
     63          #define HAL_ADC_RAND_STOP   0x0c    /* Stop Random Generator */
     64          #define HAL_ADC_RAND_BITS   0x0c    /* Bits [3:2] */
     65          
     66          #define HAL_ADC_DEC_064     0x00    /* Decimate by 64 : 8-bit resolution */
     67          #define HAL_ADC_DEC_128     0x10    /* Decimate by 128 : 10-bit resolution */
     68          #define HAL_ADC_DEC_256     0x20    /* Decimate by 256 : 12-bit resolution */
     69          #define HAL_ADC_DEC_512     0x30    /* Decimate by 512 : 14-bit resolution */
     70          #define HAL_ADC_DEC_BITS    0x30    /* Bits [5:4] */
     71          
     72          #define HAL_ADC_STSEL       HAL_ADC_STSEL_ST
     73          #define HAL_ADC_RAND_GEN    HAL_ADC_RAND_STOP
     74          #define HAL_ADC_REF_VOLT    HAL_ADC_REF_AVDD
     75          #define HAL_ADC_DEC_RATE    HAL_ADC_DEC_064
     76          #define HAL_ADC_SCHN        HAL_ADC_CHN_VDD3
     77          #define HAL_ADC_ECHN        HAL_ADC_CHN_GND
     78          
     79          /* ------------------------------------------------------------------------------------------------
     80           *                                       Local Variables
     81           * ------------------------------------------------------------------------------------------------
     82           */
     83          
     84          #if (HAL_ADC == TRUE)

   \                                 In  segment XDATA_Z, align 1, keep-with-next
     85          static uint8 adcRef;
   \                     adcRef:
   \   000000                DS 1
   \   000001                REQUIRE __INIT_XDATA_Z
     86          #endif
     87          
     88          /**************************************************************************************************
     89           * @fn      HalAdcInit
     90           *
     91           * @brief   Initialize ADC Service
     92           *
     93           * @param   None
     94           *
     95           * @return  None
     96           **************************************************************************************************/

   \                                 In  segment BANKED_CODE, align 1, keep-with-next
     97          void HalAdcInit (void)
   \                     HalAdcInit:
     98          {
   \   000000   C082         PUSH    DPL
   \   000002   C083         PUSH    DPH
   \   000004                ; Saved register size: 2
   \   000004                ; Auto size: 0
     99          #if (HAL_ADC == TRUE)
    100            adcRef = HAL_ADC_REF_VOLT;
   \   000004   90....       MOV     DPTR,#adcRef
   \   000007   7480         MOV     A,#-0x80
   \   000009                REQUIRE ?Subroutine0
   \   000009                ; // Fall through to label ?Subroutine0
    101          #endif
    102          }

   \                                 In  segment BANKED_CODE, align 1, keep-with-next
   \                     ?Subroutine0:
   \   000000   F0           MOVX    @DPTR,A
   \   000001   D083         POP     DPH
   \   000003   D082         POP     DPL
   \   000005   02....       LJMP    ?BRET
    103          
    104          /**************************************************************************************************
    105           * @fn      HalAdcRead
    106           *
    107           * @brief   Read the ADC based on given channel and resolution
    108           *
    109           * @param   channel - channel where ADC will be read
    110           * @param   resolution - the resolution of the value
    111           *
    112           * @return  16 bit value of the ADC in offset binary format.
    113           *
    114           *          Note that the ADC is "bipolar", which means the GND (0V) level is mid-scale.
    115           *          Note2: This function assumes that ADCCON3 contains the voltage reference.
    116           **************************************************************************************************/

   \                                 In  segment BANKED_CODE, align 1, keep-with-next
    117          uint16 HalAdcRead (uint8 channel, uint8 resolution)
   \                     HalAdcRead:
    118          {
   \   000000                REQUIRE ?V0
   \   000000                REQUIRE ?V1
   \   000000   74F6         MOV     A,#-0xa
   \   000002   12....       LCALL   ?BANKED_ENTER_XDATA
   \   000005                ; Saved register size: 10
   \   000005                ; Auto size: 0
   \   000005   E9           MOV     A,R1
   \   000006   FC           MOV     R4,A
   \   000007   EA           MOV     A,R2
   \   000008   FD           MOV     R5,A
    119            int16  reading = 0;
    120          
    121          #if (HAL_ADC == TRUE)
    122            uint8   i, resbits;
    123            uint8  adcChannel = 1;
   \   000009   7901         MOV     R1,#0x1
    124          
    125            /*
    126             * If Analog input channel is AIN0..AIN7, make sure corresponing P0 I/O pin is enabled.  The code
    127             * does NOT disable the pin at the end of this function.  I think it is better to leave the pin
    128             * enabled because the results will be more accurate.  Because of the inherent capacitance on the
    129             * pin, it takes time for the voltage on the pin to charge up to its steady-state level.  If
    130             * HalAdcRead() has to turn on the pin for every conversion, the results may show a lower voltage
    131             * than actuality because the pin did not have time to fully charge.
    132             */
    133            if (channel <= HAL_ADC_CHANNEL_7)
   \   00000B   EC           MOV     A,R4
   \   00000C   C3           CLR     C
   \   00000D   9408         SUBB    A,#0x8
   \   00000F   5010         JNC     ??HalAdcRead_0
    134            {
    135              for (i=0; i < channel; i++)
   \   000011   7800         MOV     R0,#0x0
   \   000013   8004         SJMP    ??HalAdcRead_1
    136              {
    137                adcChannel <<= 1;
   \                     ??HalAdcRead_2:
   \   000015   C3           CLR     C
   \   000016   33           RLC     A
   \   000017   F9           MOV     R1,A
    138              }
   \   000018   08           INC     R0
   \                     ??HalAdcRead_1:
   \   000019   E8           MOV     A,R0
   \   00001A   C3           CLR     C
   \   00001B   9C           SUBB    A,R4
   \   00001C   E9           MOV     A,R1
   \   00001D   40F6         JC      ??HalAdcRead_2
    139          
    140              /* Enable channel */
    141              ADCCFG |= adcChannel;
   \   00001F   42F2         ORL     0xf2,A
    142            }
    143          
    144            /* Convert resolution to decimation rate */
    145            switch (resolution)
   \                     ??HalAdcRead_0:
   \   000021   ED           MOV     A,R5
   \   000022   14           DEC     A
   \   000023   6008         JZ      ??HalAdcRead_3
   \   000025   14           DEC     A
   \   000026   6009         JZ      ??HalAdcRead_4
   \   000028   14           DEC     A
   \   000029   600A         JZ      ??HalAdcRead_5
   \   00002B   800C         SJMP    ??HalAdcRead_6
    146            {
    147              case HAL_ADC_RESOLUTION_8:
    148                resbits = HAL_ADC_DEC_064;
   \                     ??HalAdcRead_3:
   \   00002D   7A00         MOV     R2,#0x0
    149                break;
   \   00002F   800A         SJMP    ??HalAdcRead_7
    150              case HAL_ADC_RESOLUTION_10:
    151                resbits = HAL_ADC_DEC_128;
   \                     ??HalAdcRead_4:
   \   000031   7A10         MOV     R2,#0x10
    152                break;
   \   000033   8006         SJMP    ??HalAdcRead_7
    153              case HAL_ADC_RESOLUTION_12:
    154                resbits = HAL_ADC_DEC_256;
   \                     ??HalAdcRead_5:
   \   000035   7A20         MOV     R2,#0x20
    155                break;
   \   000037   8002         SJMP    ??HalAdcRead_7
    156              case HAL_ADC_RESOLUTION_14:
    157              default:
    158                resbits = HAL_ADC_DEC_512;
   \                     ??HalAdcRead_6:
   \   000039   7A30         MOV     R2,#0x30
    159                break;
    160            }
    161          
    162            /* writing to this register starts the extra conversion */
    163            ADCCON3 = channel | resbits | adcRef;
   \                     ??HalAdcRead_7:
   \   00003B   90....       MOV     DPTR,#adcRef
   \   00003E   E0           MOVX    A,@DPTR
   \   00003F   F8           MOV     R0,A
   \   000040   EC           MOV     A,R4
   \   000041   4A           ORL     A,R2
   \   000042   48           ORL     A,R0
   \   000043   F5B6         MOV     0xb6,A
    164          
    165            /* Wait for the conversion to be done */
    166            while (!(ADCCON1 & HAL_ADC_EOC));
   \                     ??HalAdcRead_8:
   \   000045   E5B4         MOV     A,0xb4
   \   000047   A2E7         MOV     C,0xE0 /* A   */.7
   \   000049   50FA         JNC     ??HalAdcRead_8
    167          
    168            /* Disable channel after done conversion */
    169            if (channel <= HAL_ADC_CHANNEL_7)
   \   00004B   EC           MOV     A,R4
   \   00004C   C3           CLR     C
   \   00004D   9408         SUBB    A,#0x8
   \   00004F   5005         JNC     ??HalAdcRead_9
    170              ADCCFG &= (adcChannel ^ 0xFF);
   \   000051   74FF         MOV     A,#-0x1
   \   000053   69           XRL     A,R1
   \   000054   52F2         ANL     0xf2,A
    171          
    172            /* Read the result */
    173            reading = (int16) (ADCL);
   \                     ??HalAdcRead_9:
   \   000056   E5BA         MOV     A,0xba
   \   000058   F5..         MOV     ?V0,A
    174            reading |= (int16) (ADCH << 8);
   \   00005A   E5BB         MOV     A,0xbb
   \   00005C   AA..         MOV     R2,?V0
   \   00005E   FB           MOV     R3,A
    175          
    176            /* Treat small negative as 0 */
    177            if (reading < 0)
   \   00005F   C3           CLR     C
   \   000060   9400         SUBB    A,#0x0
   \   000062   A2D2         MOV     C,0xD0 /* PSW */.2
   \   000064   65D0         XRL     A,PSW
   \   000066   33           RLC     A
   \   000067   5004         JNC     ??HalAdcRead_10
    178              reading = 0;
   \   000069   7A00         MOV     R2,#0x0
   \   00006B   7B00         MOV     R3,#0x0
    179          
    180            switch (resolution)
   \                     ??HalAdcRead_10:
   \   00006D   ED           MOV     A,R5
   \   00006E   14           DEC     A
   \   00006F   6008         JZ      ??HalAdcRead_11
   \   000071   14           DEC     A
   \   000072   600D         JZ      ??HalAdcRead_12
   \   000074   14           DEC     A
   \   000075   6012         JZ      ??HalAdcRead_13
   \   000077   8018         SJMP    ??HalAdcRead_14
    181            {
    182              case HAL_ADC_RESOLUTION_8:
    183                reading >>= 8;
   \                     ??HalAdcRead_11:
   \   000079   8A..         MOV     ?V0,R2
   \   00007B   8B..         MOV     ?V1,R3
   \   00007D   7408         MOV     A,#0x8
   \   00007F   8016         SJMP    ??HalAdcRead_15
    184                break;
    185              case HAL_ADC_RESOLUTION_10:
    186                reading >>= 6;
   \                     ??HalAdcRead_12:
   \   000081   8A..         MOV     ?V0,R2
   \   000083   8B..         MOV     ?V1,R3
   \   000085   7406         MOV     A,#0x6
   \   000087   800E         SJMP    ??HalAdcRead_15
    187                break;
    188              case HAL_ADC_RESOLUTION_12:
    189                reading >>= 4;
   \                     ??HalAdcRead_13:
   \   000089   8A..         MOV     ?V0,R2
   \   00008B   8B..         MOV     ?V1,R3
   \   00008D   7404         MOV     A,#0x4
   \   00008F   8006         SJMP    ??HalAdcRead_15
    190                break;
    191              case HAL_ADC_RESOLUTION_14:
    192              default:
    193                reading >>= 2;
   \                     ??HalAdcRead_14:
   \   000091   8A..         MOV     ?V0,R2
   \   000093   8B..         MOV     ?V1,R3
   \   000095   7402         MOV     A,#0x2
   \                     ??HalAdcRead_15:
   \   000097   78..         MOV     R0,#?V0
   \   000099   12....       LCALL   ?SS_SHR
   \   00009C   AA..         MOV     R2,?V0
   \   00009E   AB..         MOV     R3,?V1
    194              break;
    195            }
    196          #else
    197            // unused arguments
    198            (void) channel;
    199            (void) resolution;
    200          #endif
    201          
    202            return ((uint16)reading);
   \   0000A0   7F02         MOV     R7,#0x2
   \   0000A2   02....       LJMP    ?BANKED_LEAVE_XDATA
   \   0000A5                REQUIRE ADCCFG
   \   0000A5                REQUIRE ADCCON3
   \   0000A5                REQUIRE ADCCON1
   \   0000A5                REQUIRE ADCL
   \   0000A5                REQUIRE ADCH
    203          }
    204          
    205          /**************************************************************************************************
    206           * @fn      HalAdcSetReference
    207           *
    208           * @brief   Sets the reference voltage for the ADC and initializes the service
    209           *
    210           * @param   reference - the reference voltage to be used by the ADC
    211           *
    212           * @return  none
    213           *
    214           **************************************************************************************************/

   \                                 In  segment BANKED_CODE, align 1, keep-with-next
    215          void HalAdcSetReference ( uint8 reference )
   \                     HalAdcSetReference:
    216          {
   \   000000   C082         PUSH    DPL
   \   000002   C083         PUSH    DPH
   \   000004                ; Saved register size: 2
   \   000004                ; Auto size: 0
    217          #if (HAL_ADC == TRUE)
    218            adcRef = reference;
   \   000004   E9           MOV     A,R1
   \   000005   90....       MOV     DPTR,#adcRef
   \   000008   02....       LJMP    ?Subroutine0 & 0xFFFF
    219          #endif
    220          }
    221          
    222          /*********************************************************************
    223           * @fn      HalAdcCheckVdd
    224           *
    225           * @brief   Check for minimum Vdd specified.
    226           *
    227           * @param   vdd - The board-specific Vdd reading to check for.
    228           *
    229           * @return  TRUE if the Vdd measured is greater than the 'vdd' minimum parameter;
    230           *          FALSE if not.
    231           *
    232           *********************************************************************/

   \                                 In  segment BANKED_CODE, align 1, keep-with-next
    233          bool HalAdcCheckVdd(uint8 vdd)
   \                     HalAdcCheckVdd:
    234          {
   \   000000                ; Saved register size: 0
   \   000000                ; Auto size: 0
   \   000000   E9           MOV     A,R1
   \   000001   F8           MOV     R0,A
    235            ADCCON3 = 0x0F;
   \   000002   75B60F       MOV     0xb6,#0xf
    236            while (!(ADCCON1 & 0x80));
   \                     ??HalAdcCheckVdd_0:
   \   000005   E5B4         MOV     A,0xb4
   \   000007   A2E7         MOV     C,0xE0 /* A   */.7
   \   000009   50FA         JNC     ??HalAdcCheckVdd_0
    237            return (ADCH > vdd);
   \   00000B   E8           MOV     A,R0
   \   00000C   C3           CLR     C
   \   00000D   95BB         SUBB    A,0xbb
   \   00000F   5004         JNC     ??HalAdcCheckVdd_1
   \   000011   7901         MOV     R1,#0x1
   \   000013   8002         SJMP    ??HalAdcCheckVdd_2
   \                     ??HalAdcCheckVdd_1:
   \   000015   7900         MOV     R1,#0x0
   \                     ??HalAdcCheckVdd_2:
   \   000017   02....       LJMP    ?BRET
   \   00001A                REQUIRE ADCCON3
   \   00001A                REQUIRE ADCCON1
   \   00001A                REQUIRE ADCH
    238          }

   \                                 In  segment BANK_RELAYS, align 1
   \                     ??HalAdcInit?relay:
   \   000000   12....       LCALL   ?BDISPATCH
   \   000003   ......       DC24    HalAdcInit

   \                                 In  segment BANK_RELAYS, align 1
   \                     ??HalAdcRead?relay:
   \   000000   12....       LCALL   ?BDISPATCH
   \   000003   ......       DC24    HalAdcRead

   \                                 In  segment BANK_RELAYS, align 1
   \                     ??HalAdcSetReference?relay:
   \   000000   12....       LCALL   ?BDISPATCH
   \   000003   ......       DC24    HalAdcSetReference

   \                                 In  segment BANK_RELAYS, align 1
   \                     ??HalAdcCheckVdd?relay:
   \   000000   12....       LCALL   ?BDISPATCH
   \   000003   ......       DC24    HalAdcCheckVdd
    239          
    240          /**************************************************************************************************
    241          **************************************************************************************************/

   Maximum stack usage in bytes:

   ISTACK XSTACK Function
   ------ ------ --------
      0      0   HalAdcCheckVdd
      2      0   HalAdcInit
      0     10   HalAdcRead
      2      0   HalAdcSetReference


   Segment part sizes:

   Bytes  Function/Label
   -----  --------------
       6  ??HalAdcCheckVdd?relay
       6  ??HalAdcInit?relay
       6  ??HalAdcRead?relay
       6  ??HalAdcSetReference?relay
       8  ?Subroutine0
       1  ADCCFG
       1  ADCCON1
       1  ADCCON3
       1  ADCH
       1  ADCL
      26  HalAdcCheckVdd
       9  HalAdcInit
     165  HalAdcRead
      11  HalAdcSetReference
       1  adcRef

 
 219 bytes in segment BANKED_CODE
  24 bytes in segment BANK_RELAYS
   5 bytes in segment SFR_AN
   1 byte  in segment XDATA_Z
 
 243 bytes of CODE  memory
   0 bytes of DATA  memory (+ 5 bytes shared)
   1 byte  of XDATA memory

Errors: none
Warnings: none
