///////////////////////////////////////////////////////////////////////////////
//                                                                            /
// IAR C/C++ Compiler V8.30.1.41636 for 8051            02/Jun/2014  17:47:53 /
// Copyright 2004-2013 IAR Systems AB.                                        /
//                                                                            /
//    Core               =  plain                                             /
//    Code model         =  banked                                            /
//    Data model         =  large                                             /
//    Calling convention =  xdata reentrant                                   /
//    Constant location  =  data_rom                                          /
//    Dptr setup         =  1,16                                              /
//                                                                            /
//    Source file        =  c:\Users\Administrator\Documents\Dropbox\Fish     /
//                          Brain\HM-10 Hack\HM-10 Firmware\Components\osal\c /
//                          ommon\OSAL_ClockBLE.c                             /
//    Command line       =  -f "c:\Users\Administrator\Documents\Dropbox\Fish /
//                           Brain\HM-10 Hack\HM-10                           /
//                          Firmware\Projects\ble\HostTestApp\CC2540\..\..\co /
//                          nfig\buildComponents.cfg"                         /
//                          (-DBROADCASTER_CFG=0x01 -DOBSERVER_CFG=0x02       /
//                          -DPERIPHERAL_CFG=0x04 -DCENTRAL_CFG=0x08          /
//                          -DADV_NCONN_CFG=0x01 -DADV_CONN_CFG=0x02          /
//                          -DSCAN_CFG=0x04 -DINIT_CFG=0x08                   /
//                          -DADV_CFG=ADV_NCONN_CFG+ADV_CONN_CFG              /
//                          -DLINK_CFG=ADV_CONN_CFG+INIT_CFG                  /
//                          -DFULL_CFG=INIT_CFG+SCAN_CFG+ADV_NCONN_CFG+ADV_CO /
//                          NN_CFG) -f "c:\Users\Administrator\Documents\Drop /
//                          box\Fish Brain\HM-10 Hack\HM-10                   /
//                          Firmware\Projects\ble\HostTestApp\CC2540\buildCon /
//                          fig.cfg" (-DHOST_CONFIG=PERIPHERAL_CFG+CENTRAL_CF /
//                          G -DGAP_PRIVACY_RECONNECT)                        /
//                          "c:\Users\Administrator\Documents\Dropbox\Fish    /
//                          Brain\HM-10 Hack\HM-10 Firmware\Components\osal\c /
//                          ommon\OSAL_ClockBLE.c" -D INT_HEAP_LEN=2700 -D    /
//                          HALNODEBUG -D OSAL_CBTIMER_NUM_TASKS=1 -D         /
//                          POWER_SAVING -D HAL_AES_DMA=TRUE -D HAL_DMA=TRUE  /
//                          -D HAL_UART=TRUE -D HAL_UART_DMA=0 -D             /
//                          HAL_UART_ISR=0 -D HAL_UART_SPI=2 -D               /
//                          HAL_SPI_QUEUED_TX=TRUE -D HAL_KEY=FALSE -D        /
//                          HAL_LCD=FALSE -D HAL_LED=FALSE -D                 /
//                          GATT_DB_OFF_CHIP -D GAP_BOND_MGR -lCN             /
//                          "c:\Users\Administrator\Documents\Dropbox\Fish    /
//                          Brain\HM-10 Hack\HM-10 Firmware\Projects\ble\Host /
//                          TestApp\CC2540\CC2540SPI\List\" -lA               /
//                          "c:\Users\Administrator\Documents\Dropbox\Fish    /
//                          Brain\HM-10 Hack\HM-10 Firmware\Projects\ble\Host /
//                          TestApp\CC2540\CC2540SPI\List\" -o                /
//                          "c:\Users\Administrator\Documents\Dropbox\Fish    /
//                          Brain\HM-10 Hack\HM-10 Firmware\Projects\ble\Host /
//                          TestApp\CC2540\CC2540SPI\Obj\" -e --debug         /
//                          --core=plain --dptr=16,1 --data_model=large       /
//                          --code_model=banked --calling_convention=xdata_re /
//                          entrant --place_constants=data_rom                /
//                          --nr_virtual_regs 8 -I "c:\Users\Administrator\Do /
//                          cuments\Dropbox\Fish Brain\HM-10 Hack\HM-10       /
//                          Firmware\Projects\ble\HostTestApp\CC2540\..\..\co /
//                          mmon\" -I "c:\Users\Administrator\Documents\Dropb /
//                          ox\Fish Brain\HM-10 Hack\HM-10                    /
//                          Firmware\Projects\ble\HostTestApp\CC2540\..\..\.. /
//                          \..\Components\hal\include\" -I                   /
//                          "c:\Users\Administrator\Documents\Dropbox\Fish    /
//                          Brain\HM-10 Hack\HM-10 Firmware\Projects\ble\Host /
//                          TestApp\CC2540\..\..\..\..\Components\hal\target\ /
//                          CC2540EB\" -I "c:\Users\Administrator\Documents\D /
//                          ropbox\Fish Brain\HM-10 Hack\HM-10                /
//                          Firmware\Projects\ble\HostTestApp\CC2540\..\..\.. /
//                          \..\Components\osal\include\" -I                  /
//                          "c:\Users\Administrator\Documents\Dropbox\Fish    /
//                          Brain\HM-10 Hack\HM-10 Firmware\Projects\ble\Host /
//                          TestApp\CC2540\..\..\..\..\Components\services\sa /
//                          ddr\" -I "c:\Users\Administrator\Documents\Dropbo /
//                          x\Fish Brain\HM-10 Hack\HM-10                     /
//                          Firmware\Projects\ble\HostTestApp\CC2540\..\..\.. /
//                          \..\Components\ble\include\" -I                   /
//                          "c:\Users\Administrator\Documents\Dropbox\Fish    /
//                          Brain\HM-10 Hack\HM-10 Firmware\Projects\ble\Host /
//                          TestApp\CC2540\..\..\..\..\Components\ble\control /
//                          ler\phy\" -I "c:\Users\Administrator\Documents\Dr /
//                          opbox\Fish Brain\HM-10 Hack\HM-10                 /
//                          Firmware\Projects\ble\HostTestApp\CC2540\..\..\.. /
//                          \..\Components\ble\controller\include\" -I        /
//                          "c:\Users\Administrator\Documents\Dropbox\Fish    /
//                          Brain\HM-10 Hack\HM-10 Firmware\Projects\ble\Host /
//                          TestApp\CC2540\..\..\..\..\Components\ble\hci\"   /
//                          -I "c:\Users\Administrator\Documents\Dropbox\Fish /
//                           Brain\HM-10 Hack\HM-10                           /
//                          Firmware\Projects\ble\HostTestApp\CC2540\..\..\.. /
//                          \..\Components\ble\host\" -I                      /
//                          "c:\Users\Administrator\Documents\Dropbox\Fish    /
//                          Brain\HM-10 Hack\HM-10 Firmware\Projects\ble\Host /
//                          TestApp\CC2540\..\..\common\cc2540\" -I           /
//                          "c:\Users\Administrator\Documents\Dropbox\Fish    /
//                          Brain\HM-10 Hack\HM-10 Firmware\Projects\ble\Host /
//                          TestApp\CC2540\..\..\common\npi\npi_np\" -I       /
//                          "c:\Users\Administrator\Documents\Dropbox\Fish    /
//                          Brain\HM-10 Hack\HM-10 Firmware\Projects\ble\Host /
//                          TestApp\CC2540\..\..\Include\" -I                 /
//                          "c:\Users\Administrator\Documents\Dropbox\Fish    /
//                          Brain\HM-10 Hack\HM-10 Firmware\Projects\ble\Host /
//                          TestApp\CC2540\..\..\Profiles\Roles\" -I          /
//                          "c:\Users\Administrator\Documents\Dropbox\Fish    /
//                          Brain\HM-10 Hack\HM-10 Firmware\Projects\ble\Host /
//                          TestApp\CC2540\..\source\" -Ohz                   /
//    List file          =  c:\Users\Administrator\Documents\Dropbox\Fish     /
//                          Brain\HM-10 Hack\HM-10 Firmware\Projects\ble\Host /
//                          TestApp\CC2540\CC2540SPI\List\OSAL_ClockBLE.s51   /
//                                                                            /
//                                                                            /
///////////////////////////////////////////////////////////////////////////////

        NAME OSAL_ClockBLE

        RTMODEL "__SystemLibrary", "CLib"
        RTMODEL "__calling_convention", "xdata_reentrant"
        RTMODEL "__code_model", "banked"
        RTMODEL "__core", "plain"
        RTMODEL "__data_model", "large"
        RTMODEL "__dptr_size", "16"
        RTMODEL "__extended_stack", "disabled"
        RTMODEL "__location_for_constants", "data"
        RTMODEL "__number_of_dptrs", "1"
        RTMODEL "__rt_version", "1"

        RSEG DOVERLAY:DATA:NOROOT(0)
        RSEG IOVERLAY:IDATA:NOROOT(0)
        RSEG ISTACK:IDATA:NOROOT(0)
        RSEG PSTACK:XDATA:NOROOT(0)
        RSEG XSTACK:XDATA:NOROOT(0)

        EXTERN ?V0
        EXTERN ?V1
        EXTERN ?V2
        EXTERN ?V3
        EXTERN ?V4
        EXTERN ?V5
        EXTERN ?V6
        EXTERN ?V7
        EXTERN ?ALLOC_XSTACK8
        EXTERN ?BANKED_ENTER_XDATA
        EXTERN ?BANKED_LEAVE_XDATA
        EXTERN ?BDISPATCH
        EXTERN ?BRET
        EXTERN ?DEALLOC_XSTACK8
        EXTERN ?L_ADD
        EXTERN ?L_ADD_TO_X
        EXTERN ?L_MOV_TO_X
        EXTERN ?L_MOV_X
        EXTERN ?L_MUL
        EXTERN ?UL_DIV_MOD
        EXTERN ?US_DIV_MOD
        EXTERN ?US_SHR
        EXTERN ?XLOAD_R2345
        EXTERN ?XSP
        EXTERN ?XSTACK_DISP0_8
        EXTERN __INIT_XDATA_Z

        FUNCTION ??monthLength?relay,0203H
        PUBLIC ??osalTimeUpdate?relay
        FUNCTION ??osalTimeUpdate?relay,0203H
        PUBLIC ??osal_ConvertUTCSecs?relay
        FUNCTION ??osal_ConvertUTCSecs?relay,0203H
        PUBLIC ??osal_ConvertUTCTime?relay
        FUNCTION ??osal_ConvertUTCTime?relay,0203H
        PUBLIC ??osal_getClock?relay
        FUNCTION ??osal_getClock?relay,0203H
        PUBLIC ??osal_setClock?relay
        FUNCTION ??osal_setClock?relay,0203H
        PUBLIC OSAL_timeSeconds
        PUBWEAK __Constant_15180
        PUBWEAK __Constant_3c
        PUBWEAK __Constant_e10
        FUNCTION monthLength,0203H
        ARGFRAME XSTACK, 22, STACK
        ARGFRAME IOVERLAY, 0, STATIC
        ARGFRAME DOVERLAY, 0, STATIC
        PUBLIC osalTimeUpdate
        FUNCTION osalTimeUpdate,0a1203H
        ARGFRAME XSTACK, 0, STACK
        LOCFRAME XSTACK, 16, STACK
        PUBLIC osal_ConvertUTCSecs
        FUNCTION osal_ConvertUTCSecs,0a1203H
        ARGFRAME XSTACK, 0, STACK
        LOCFRAME ISTACK, 4, STACK
        LOCFRAME XSTACK, 19, STACK
        PUBLIC osal_ConvertUTCTime
        FUNCTION osal_ConvertUTCTime,0a1203H
        ARGFRAME XSTACK, 4, STACK
        LOCFRAME ISTACK, 1, STACK
        LOCFRAME XSTACK, 22, STACK
        PUBLIC osal_getClock
        FUNCTION osal_getClock,0203H
        ARGFRAME XSTACK, 0, STACK
        LOCFRAME ISTACK, 2, STACK
        PUBLIC osal_setClock
        FUNCTION osal_setClock,080203H
        ARGFRAME XSTACK, 0, STACK
        LOCFRAME XSTACK, 12, STACK
        
          CFI Names cfiNames0
          CFI StackFrame CFA_SP SP IDATA
          CFI StackFrame CFA_PSP16 PSP16 XDATA
          CFI StackFrame CFA_XSP16 XSP16 XDATA
          CFI StaticOverlayFrame CFA_IOVERLAY IOVERLAY
          CFI StaticOverlayFrame CFA_DOVERLAY DOVERLAY
          CFI Resource `PSW.CY`:1, `B.BR0`:1, `B.BR1`:1, `B.BR2`:1, `B.BR3`:1
          CFI Resource `B.BR4`:1, `B.BR5`:1, `B.BR6`:1, `B.BR7`:1, `VB.BR8`:1
          CFI Resource `VB.BR9`:1, `VB.BR10`:1, `VB.BR11`:1, `VB.BR12`:1
          CFI Resource `VB.BR13`:1, `VB.BR14`:1, `VB.BR15`:1, VB:8, B:8, A:8
          CFI Resource PSW:8, DPL0:8, DPH0:8, R0:8, R1:8, R2:8, R3:8, R4:8, R5:8
          CFI Resource R6:8, R7:8, V0:8, V1:8, V2:8, V3:8, V4:8, V5:8, V6:8, V7:8
          CFI Resource SP:8, PSPH:8, PSPL:8, PSP16:16, XSPH:8, XSPL:8, XSP16:16
          CFI VirtualResource ?RET:24
          CFI Resource ?BRET_EXT:8
          CFI VirtualResource ?RET_HIGH:8, ?RET_LOW:8
          CFI ResourceParts PSP16 PSPH, PSPL
          CFI ResourceParts XSP16 XSPH, XSPL
          CFI ResourceParts ?RET ?BRET_EXT, ?RET_HIGH, ?RET_LOW
          CFI EndNames cfiNames0
        
          CFI Common cfiCommon0 Using cfiNames0
          CFI CodeAlign 1
          CFI DataAlign -1
          CFI ReturnAddress ?RET CODE
          CFI CFA_DOVERLAY Used
          CFI CFA_IOVERLAY Used
          CFI CFA_SP SP+-3
          CFI CFA_PSP16 PSP16+0
          CFI CFA_XSP16 XSP16+0
          CFI `PSW.CY` SameValue
          CFI `B.BR0` SameValue
          CFI `B.BR1` SameValue
          CFI `B.BR2` SameValue
          CFI `B.BR3` SameValue
          CFI `B.BR4` SameValue
          CFI `B.BR5` SameValue
          CFI `B.BR6` SameValue
          CFI `B.BR7` SameValue
          CFI `VB.BR8` SameValue
          CFI `VB.BR9` SameValue
          CFI `VB.BR10` SameValue
          CFI `VB.BR11` SameValue
          CFI `VB.BR12` SameValue
          CFI `VB.BR13` SameValue
          CFI `VB.BR14` SameValue
          CFI `VB.BR15` SameValue
          CFI VB SameValue
          CFI B Undefined
          CFI A Undefined
          CFI PSW SameValue
          CFI DPL0 SameValue
          CFI DPH0 SameValue
          CFI R0 Undefined
          CFI R1 Undefined
          CFI R2 Undefined
          CFI R3 Undefined
          CFI R4 Undefined
          CFI R5 Undefined
          CFI R6 SameValue
          CFI R7 SameValue
          CFI V0 SameValue
          CFI V1 SameValue
          CFI V2 SameValue
          CFI V3 SameValue
          CFI V4 SameValue
          CFI V5 SameValue
          CFI V6 SameValue
          CFI V7 SameValue
          CFI PSPH Undefined
          CFI PSPL Undefined
          CFI XSPH Undefined
          CFI XSPL Undefined
          CFI ?RET Concat
          CFI ?BRET_EXT Frame(CFA_SP, 3)
          CFI ?RET_HIGH Frame(CFA_SP, 2)
          CFI ?RET_LOW Frame(CFA_SP, 1)
          CFI EndCommon cfiCommon0
        
        
          CFI Common cfiCommon1 Using cfiNames0
          CFI CodeAlign 1
          CFI DataAlign -1
          CFI ReturnAddress ?RET CODE
          CFI CFA_DOVERLAY Used
          CFI CFA_IOVERLAY Used
          CFI CFA_SP SP+-2
          CFI CFA_PSP16 PSP16+0
          CFI CFA_XSP16 XSP16+0
          CFI `PSW.CY` SameValue
          CFI `B.BR0` SameValue
          CFI `B.BR1` SameValue
          CFI `B.BR2` SameValue
          CFI `B.BR3` SameValue
          CFI `B.BR4` SameValue
          CFI `B.BR5` SameValue
          CFI `B.BR6` SameValue
          CFI `B.BR7` SameValue
          CFI `VB.BR8` SameValue
          CFI `VB.BR9` SameValue
          CFI `VB.BR10` SameValue
          CFI `VB.BR11` SameValue
          CFI `VB.BR12` SameValue
          CFI `VB.BR13` SameValue
          CFI `VB.BR14` SameValue
          CFI `VB.BR15` SameValue
          CFI VB SameValue
          CFI B SameValue
          CFI A SameValue
          CFI PSW SameValue
          CFI DPL0 SameValue
          CFI DPH0 SameValue
          CFI R0 SameValue
          CFI R1 SameValue
          CFI R2 SameValue
          CFI R3 SameValue
          CFI R4 SameValue
          CFI R5 SameValue
          CFI R6 SameValue
          CFI R7 SameValue
          CFI V0 SameValue
          CFI V1 SameValue
          CFI V2 SameValue
          CFI V3 SameValue
          CFI V4 SameValue
          CFI V5 SameValue
          CFI V6 SameValue
          CFI V7 SameValue
          CFI PSPH Undefined
          CFI PSPL Undefined
          CFI XSPH Undefined
          CFI XSPL Undefined
          CFI ?RET Concat
          CFI ?BRET_EXT SameValue
          CFI ?RET_HIGH Frame(CFA_SP, 2)
          CFI ?RET_LOW Frame(CFA_SP, 1)
          CFI EndCommon cfiCommon1
        
ll_McuPrecisionCount SYMBOL "ll_McuPrecisionCount"
??ll_McuPrecisionCount?relay SYMBOL "?relay", ll_McuPrecisionCount
osalTimerUpdate     SYMBOL "osalTimerUpdate"
??osalTimerUpdate?relay SYMBOL "?relay", osalTimerUpdate
osalTimeUpdate      SYMBOL "osalTimeUpdate"
??osalTimeUpdate?relay SYMBOL "?relay", osalTimeUpdate
osal_ConvertUTCSecs SYMBOL "osal_ConvertUTCSecs"
??osal_ConvertUTCSecs?relay SYMBOL "?relay", osal_ConvertUTCSecs
osal_ConvertUTCTime SYMBOL "osal_ConvertUTCTime"
??osal_ConvertUTCTime?relay SYMBOL "?relay", osal_ConvertUTCTime
osal_getClock       SYMBOL "osal_getClock"
??osal_getClock?relay SYMBOL "?relay", osal_getClock
osal_setClock       SYMBOL "osal_setClock"
??osal_setClock?relay SYMBOL "?relay", osal_setClock

        EXTERN ??ll_McuPrecisionCount?relay
        FUNCTION ??ll_McuPrecisionCount?relay,00H
        EXTERN ??osalTimerUpdate?relay
        FUNCTION ??osalTimerUpdate?relay,00H
        EXTERN ll_McuPrecisionCount
        FUNCTION ll_McuPrecisionCount,0202H
        ARGFRAME ISTACK, 0, STACK
        ARGFRAME PSTACK, 0, STACK
        ARGFRAME XSTACK, 16, STACK
        ARGFRAME IOVERLAY, 0, STATIC
        ARGFRAME DOVERLAY, 0, STATIC
        EXTERN osalTimerUpdate
        FUNCTION osalTimerUpdate,0202H
        ARGFRAME ISTACK, 0, STACK
        ARGFRAME PSTACK, 0, STACK
        ARGFRAME XSTACK, 16, STACK
        ARGFRAME IOVERLAY, 0, STATIC
        ARGFRAME DOVERLAY, 0, STATIC

// c:\Users\Administrator\Documents\Dropbox\Fish Brain\HM-10 Hack\HM-10 Firmware\Components\osal\common\OSAL_ClockBLE.c
//    1 /**************************************************************************************************
//    2   Filename:       OSAL_ClockBLE.c
//    3   Revised:        $Date: 2008-12-15 15:42:47 -0800 (Mon, 15 Dec 2008) $
//    4   Revision:       $Revision: 18616 $
//    5 
//    6   Description:    OSAL Clock definition and manipulation functions for BLE projects.
//    7 
//    8   Copyright 2008-2011 Texas Instruments Incorporated. All rights reserved.
//    9 
//   10   IMPORTANT: Your use of this Software is limited to those specific rights
//   11   granted under the terms of a software license agreement between the user
//   12   who downloaded the software, his/her employer (which must be your employer)
//   13   and Texas Instruments Incorporated (the "License"). You may not use this
//   14   Software unless you agree to abide by the terms of the License. The License
//   15   limits your use, and you acknowledge, that the Software may not be modified,
//   16   copied or distributed unless embedded on a Texas Instruments microcontroller
//   17   or used solely and exclusively in conjunction with a Texas Instruments radio
//   18   frequency transceiver, which is integrated into your product. Other than for
//   19   the foregoing purpose, you may not use, reproduce, copy, prepare derivative
//   20   works of, modify, distribute, perform, display or sell this Software and/or
//   21   its documentation for any purpose.
//   22 
//   23   YOU FURTHER ACKNOWLEDGE AND AGREE THAT THE SOFTWARE AND DOCUMENTATION ARE
//   24   PROVIDED “AS IS” WITHOUT WARRANTY OF ANY KIND, EITHER EXPRESS OR IMPLIED,
//   25   INCLUDING WITHOUT LIMITATION, ANY WARRANTY OF MERCHANTABILITY, TITLE,
//   26   NON-INFRINGEMENT AND FITNESS FOR A PARTICULAR PURPOSE. IN NO EVENT SHALL
//   27   TEXAS INSTRUMENTS OR ITS LICENSORS BE LIABLE OR OBLIGATED UNDER CONTRACT,
//   28   NEGLIGENCE, STRICT LIABILITY, CONTRIBUTION, BREACH OF WARRANTY, OR OTHER
//   29   LEGAL EQUITABLE THEORY ANY DIRECT OR INDIRECT DAMAGES OR EXPENSES
//   30   INCLUDING BUT NOT LIMITED TO ANY INCIDENTAL, SPECIAL, INDIRECT, PUNITIVE
//   31   OR CONSEQUENTIAL DAMAGES, LOST PROFITS OR LOST DATA, COST OF PROCUREMENT
//   32   OF SUBSTITUTE GOODS, TECHNOLOGY, SERVICES, OR ANY CLAIMS BY THIRD PARTIES
//   33   (INCLUDING BUT NOT LIMITED TO ANY DEFENSE THEREOF), OR OTHER SIMILAR COSTS.
//   34 
//   35   Should you have any questions regarding your right to use this Software,
//   36   contact Texas Instruments Incorporated at www.TI.com.
//   37 **************************************************************************************************/
//   38 
//   39 /*********************************************************************
//   40  * INCLUDES
//   41  */
//   42 
//   43 #include "comdef.h"
//   44 #include "OnBoard.h"
//   45 #include "OSAL.h"
//   46 #include "OSAL_Clock.h"
//   47 
//   48 /*********************************************************************
//   49  * MACROS
//   50  */
//   51 
//   52 #define	YearLength(yr)	(IsLeapYear(yr) ? 366 : 365)
//   53 
//   54 /*********************************************************************
//   55  * CONSTANTS
//   56  */
//   57 
//   58 // (MAXCALCTICKS * 5) + (max remainder) must be <= (uint16 max),
//   59 // so: (13105 * 5) + 7 <= 65535
//   60 #define MAXCALCTICKS  ((uint16)(13105))
//   61 
//   62 #define	BEGYEAR	        2000     // UTC started at 00:00:00 January 1, 2000
//   63 
//   64 #define	DAY             86400UL  // 24 hours * 60 minutes * 60 seconds
//   65 
//   66 /*********************************************************************
//   67  * TYPEDEFS
//   68  */
//   69 
//   70 /*********************************************************************
//   71  * GLOBAL VARIABLES
//   72  */
//   73 
//   74 /*********************************************************************
//   75  * EXTERNAL VARIABLES
//   76  */
//   77 
//   78 /*********************************************************************
//   79  * EXTERNAL FUNCTIONS
//   80  */
//   81 extern uint16 ll_McuPrecisionCount(void);
//   82 
//   83 /*********************************************************************
//   84  * LOCAL VARIABLES
//   85  */

        RSEG XDATA_Z:XDATA:NOROOT(0)
        DATA16
//   86 static uint16 previousLLTimerTick = 0;
previousLLTimerTick:
        DS 2
        REQUIRE __INIT_XDATA_Z

        RSEG XDATA_Z:XDATA:NOROOT(0)
        DATA16
//   87 static uint16 remUsTicks = 0;
remUsTicks:
        DS 2
        REQUIRE __INIT_XDATA_Z

        RSEG XDATA_Z:XDATA:NOROOT(0)
        DATA16
//   88 static uint16 timeMSec = 0;
timeMSec:
        DS 2
        REQUIRE __INIT_XDATA_Z
//   89 
//   90 // number of seconds since 0 hrs, 0 minutes, 0 seconds, on the
//   91 // 1st of January 2000 UTC

        RSEG XDATA_Z:XDATA:NOROOT(0)
        DATA32
//   92 UTCTime OSAL_timeSeconds = 0;
OSAL_timeSeconds:
        DS 4
        REQUIRE __INIT_XDATA_Z
//   93 
//   94 /*********************************************************************
//   95  * LOCAL FUNCTION PROTOTYPES
//   96  */
//   97 static uint8 monthLength( uint8 lpyr, uint8 mon );
//   98 
//   99 static void osalClockUpdate( uint16 elapsedMSec );
//  100 
//  101 /*********************************************************************
//  102  * FUNCTIONS
//  103  *********************************************************************/
//  104 
//  105 /*********************************************************************
//  106  * @fn      osalTimeUpdate
//  107  *
//  108  * @brief   Uses the free running rollover count of the MAC backoff timer;
//  109  *          this timer runs freely with a constant 320 usec interval.  The
//  110  *          count of 320-usec ticks is converted to msecs and used to update
//  111  *          the OSAL clock and Timers by invoking osalClockUpdate() and
//  112  *          osalTimerUpdate().  This function is intended to be invoked
//  113  *          from the background, not interrupt level.
//  114  *
//  115  * @param   None.
//  116  *
//  117  * @return  None.
//  118  */

        RSEG BANKED_CODE:CODE:NOROOT(0)
//  119 void osalTimeUpdate( void )
osalTimeUpdate:
          CFI Block cfiBlock0 Using cfiCommon0
          CFI Function osalTimeUpdate
        CODE
//  120 {
        FUNCALL osalTimeUpdate, ll_McuPrecisionCount
        LOCFRAME ISTACK, 0, STACK
        LOCFRAME PSTACK, 0, STACK
        LOCFRAME XSTACK, 16, STACK
        LOCFRAME IOVERLAY, 0, STATIC
        LOCFRAME DOVERLAY, 0, STATIC
        ARGFRAME ISTACK, 0, STACK
        ARGFRAME PSTACK, 0, STACK
        ARGFRAME XSTACK, 16, STACK
        ARGFRAME IOVERLAY, 0, STATIC
        ARGFRAME DOVERLAY, 0, STATIC
        FUNCALL osalTimeUpdate, osalTimerUpdate
        LOCFRAME ISTACK, 0, STACK
        LOCFRAME PSTACK, 0, STACK
        LOCFRAME XSTACK, 16, STACK
        LOCFRAME IOVERLAY, 0, STATIC
        LOCFRAME DOVERLAY, 0, STATIC
        ARGFRAME ISTACK, 0, STACK
        ARGFRAME PSTACK, 0, STACK
        ARGFRAME XSTACK, 16, STACK
        ARGFRAME IOVERLAY, 0, STATIC
        ARGFRAME DOVERLAY, 0, STATIC
        REQUIRE ?V0
        REQUIRE ?V1
        REQUIRE ?V2
        REQUIRE ?V3
        REQUIRE ?V4
        REQUIRE ?V5
        REQUIRE ?V6
        REQUIRE ?V7
        MOV     A,#-0x10
        LCALL   ?BANKED_ENTER_XDATA
          CFI DPH0 load(1, XDATA, add(CFA_XSP16, literal(-1)))
          CFI DPL0 load(1, XDATA, add(CFA_XSP16, literal(-2)))
          CFI ?BRET_EXT load(1, XDATA, add(CFA_XSP16, literal(-3)))
          CFI ?RET_HIGH load(1, XDATA, add(CFA_XSP16, literal(-4)))
          CFI ?RET_LOW load(1, XDATA, add(CFA_XSP16, literal(-5)))
          CFI R7 load(1, XDATA, add(CFA_XSP16, literal(-6)))
          CFI V7 load(1, XDATA, add(CFA_XSP16, literal(-7)))
          CFI V6 load(1, XDATA, add(CFA_XSP16, literal(-8)))
          CFI V5 load(1, XDATA, add(CFA_XSP16, literal(-9)))
          CFI V4 load(1, XDATA, add(CFA_XSP16, literal(-10)))
          CFI V3 load(1, XDATA, add(CFA_XSP16, literal(-11)))
          CFI V2 load(1, XDATA, add(CFA_XSP16, literal(-12)))
          CFI V1 load(1, XDATA, add(CFA_XSP16, literal(-13)))
          CFI V0 load(1, XDATA, add(CFA_XSP16, literal(-14)))
          CFI VB load(1, XDATA, add(CFA_XSP16, literal(-15)))
          CFI R6 load(1, XDATA, add(CFA_XSP16, literal(-16)))
          CFI CFA_SP SP+0
          CFI CFA_XSP16 add(XSP16, 16)
        ; Saved register size: 16
        ; Auto size: 0
//  121   uint16 tmp;
//  122   uint16 ticks625us;
//  123   uint16 elapsedMSec = 0;
        MOV     ?V0,#0x0
        MOV     ?V1,#0x0
//  124 
//  125   // Get the free-running count of 625us timer ticks
//  126   tmp = ll_McuPrecisionCount();
        ; Setup parameters for call to function ll_McuPrecisionCount
        LCALL   ??ll_McuPrecisionCount?relay; Banked call to: ll_McuPrecisionCount
//  127 
//  128   if ( tmp != previousLLTimerTick )
        MOV     DPTR,#previousLLTimerTick
        MOVX    A,@DPTR
        XRL     A,R2
        JNZ     ??osalTimeUpdate_0
        INC     DPTR
        MOVX    A,@DPTR
        XRL     A,R3
??osalTimeUpdate_0:
        JNZ     $+5
        LJMP    ??osalTimeUpdate_1 & 0xFFFF
//  129   {
//  130     // Calculate the elapsed ticks of the free-running timer.
//  131     ticks625us = tmp - previousLLTimerTick;
        MOV     DPTR,#previousLLTimerTick
        MOVX    A,@DPTR
        MOV     R0,A
        INC     DPTR
        MOVX    A,@DPTR
        MOV     R1,A
        MOV     A,R2
        CLR     C
        SUBB    A,R0
        MOV     R0,A
        MOV     A,R3
        SUBB    A,R1
        MOV     R1,A
//  132 
//  133     // Store the LL Timer tick count for the next time through this function.
//  134     previousLLTimerTick = tmp;
        MOV     DPTR,#previousLLTimerTick
        MOV     A,R2
        MOVX    @DPTR,A
        INC     DPTR
        MOV     A,R3
        SJMP    ??osalTimeUpdate_2
//  135 
//  136     /* It is necessary to loop to convert the usecs to msecs in increments so as
//  137      * not to overflow the 16-bit variables.
//  138      */
//  139     while ( ticks625us > MAXCALCTICKS )
//  140     {
//  141       ticks625us -= MAXCALCTICKS;
??osalTimeUpdate_3:
        ADD     A,#-0x31
        MOV     R0,A
        MOV     A,R1
        ADDC    A,#-0x34
        MOV     R1,A
//  142       elapsedMSec += MAXCALCTICKS * 5 / 8;
        MOV     A,?V0
        ADD     A,#-0x2
        MOV     ?V0,A
        MOV     A,?V1
        ADDC    A,#0x1f
        MOV     ?V1,A
//  143       remUsTicks += MAXCALCTICKS * 5 % 8;
        MOV     DPTR,#remUsTicks
        MOVX    A,@DPTR
        ADD     A,#0x5
        MOVX    @DPTR,A
        INC     DPTR
        MOVX    A,@DPTR
        ADDC    A,#0x0
??osalTimeUpdate_2:
        MOVX    @DPTR,A
//  144     }
        CLR     C
        MOV     A,R0
        SUBB    A,#0x32
        MOV     A,R1
        SUBB    A,#0x33
        MOV     A,R0
        JNC     ??osalTimeUpdate_3
//  145 
//  146     // update converted number with remaining ticks from loop and the
//  147     // accumulated remainder from loop
//  148     tmp = (ticks625us * 5) + remUsTicks;
        MOV     B,#0x5
        MUL     AB
        MOV     R0,A
        MOV     R2,B
        MOV     B,#0x5
        MOV     A,R1
        MUL     AB
        ADD     A,R2
        MOV     R1,A
        MOV     DPTR,#remUsTicks
        MOVX    A,@DPTR
        ADD     A,R0
        MOV     R2,A
        INC     DPTR
        MOVX    A,@DPTR
        ADDC    A,R1
        MOV     R3,A
//  149 
//  150     // Convert the 625 us ticks into milliseconds and a remainder
//  151     elapsedMSec += tmp / 8;
        MOV     ?V2,R2
        MOV     ?V3,R3
        MOV     A,#0x3
        MOV     R0,#?V2
        LCALL   ?US_SHR
        MOV     A,?V0
        ADD     A,?V2
        MOV     ?V0,A
        MOV     A,?V1
        ADDC    A,?V3
        MOV     ?V1,A
//  152     remUsTicks = tmp % 8;
        MOV     A,R2
        ANL     A,#0x7
        MOV     DPTR,#remUsTicks
        MOVX    @DPTR,A
        INC     DPTR
        CLR     A
        MOVX    @DPTR,A
//  153 
//  154     // Update OSAL Clock and Timers
//  155     if ( elapsedMSec )
        MOV     A,?V0
        ORL     A,?V1
        JZ      ??osalTimeUpdate_1
//  156     {
//  157       osalClockUpdate( elapsedMSec );
        MOV     DPTR,#timeMSec
        MOVX    A,@DPTR
        ADD     A,?V0
        MOVX    @DPTR,A
        INC     DPTR
        MOVX    A,@DPTR
        ADDC    A,?V1
        MOVX    @DPTR,A
        MOV     DPTR,#timeMSec
        CLR     C
        MOVX    A,@DPTR
        SUBB    A,#-0x18
        INC     DPTR
        MOVX    A,@DPTR
        SUBB    A,#0x3
        JC      ??osalTimeUpdate_4
        LCALL   ?Subroutine5 & 0xFFFF
??CrossCallReturnLabel_5:
        LCALL   ?US_DIV_MOD
        MOV     ?V4,R0
        MOV     ?V5,R1
        CLR     A
        MOV     ?V6,A
        MOV     ?V7,A
        MOV     DPTR,#OSAL_timeSeconds
        MOV     R0,#?V4
        LCALL   ?L_ADD_TO_X
        LCALL   ?Subroutine5 & 0xFFFF
??CrossCallReturnLabel_6:
        LCALL   ?US_DIV_MOD
        MOV     DPTR,#timeMSec
        MOV     A,R2
        MOVX    @DPTR,A
        INC     DPTR
        MOV     A,R3
        MOVX    @DPTR,A
//  158       osalTimerUpdate( elapsedMSec );
??osalTimeUpdate_4:
        ; Setup parameters for call to function osalTimerUpdate
        MOV     R2,?V0
        MOV     R3,?V1
        CLR     A
        MOV     R4,A
        MOV     R5,A
        LCALL   ??osalTimerUpdate?relay; Banked call to: osalTimerUpdate
//  159     }
//  160   }
//  161 }
??osalTimeUpdate_1:
        LJMP    ??Subroutine10_0 & 0xFFFF
          CFI EndBlock cfiBlock0

        RSEG BANKED_CODE:CODE:NOROOT(0)
?Subroutine5:
          CFI Block cfiCond1 Using cfiCommon0
          CFI Function osalTimeUpdate
          CFI Conditional ??CrossCallReturnLabel_5
          CFI R6 load(1, XDATA, add(CFA_XSP16, literal(-16)))
          CFI VB load(1, XDATA, add(CFA_XSP16, literal(-15)))
          CFI V0 load(1, XDATA, add(CFA_XSP16, literal(-14)))
          CFI V1 load(1, XDATA, add(CFA_XSP16, literal(-13)))
          CFI V2 load(1, XDATA, add(CFA_XSP16, literal(-12)))
          CFI V3 load(1, XDATA, add(CFA_XSP16, literal(-11)))
          CFI V4 load(1, XDATA, add(CFA_XSP16, literal(-10)))
          CFI V5 load(1, XDATA, add(CFA_XSP16, literal(-9)))
          CFI V6 load(1, XDATA, add(CFA_XSP16, literal(-8)))
          CFI V7 load(1, XDATA, add(CFA_XSP16, literal(-7)))
          CFI R7 load(1, XDATA, add(CFA_XSP16, literal(-6)))
          CFI ?RET_LOW load(1, XDATA, add(CFA_XSP16, literal(-5)))
          CFI ?RET_HIGH load(1, XDATA, add(CFA_XSP16, literal(-4)))
          CFI ?BRET_EXT load(1, XDATA, add(CFA_XSP16, literal(-3)))
          CFI DPL0 load(1, XDATA, add(CFA_XSP16, literal(-2)))
          CFI DPH0 load(1, XDATA, add(CFA_XSP16, literal(-1)))
          CFI CFA_SP SP+-2
          CFI CFA_XSP16 add(XSP16, 16)
          CFI Block cfiCond2 Using cfiCommon0
          CFI (cfiCond2) Function osalTimeUpdate
          CFI (cfiCond2) Conditional ??CrossCallReturnLabel_6
          CFI (cfiCond2) R6 load(1, XDATA, add(CFA_XSP16, literal(-16)))
          CFI (cfiCond2) VB load(1, XDATA, add(CFA_XSP16, literal(-15)))
          CFI (cfiCond2) V0 load(1, XDATA, add(CFA_XSP16, literal(-14)))
          CFI (cfiCond2) V1 load(1, XDATA, add(CFA_XSP16, literal(-13)))
          CFI (cfiCond2) V2 load(1, XDATA, add(CFA_XSP16, literal(-12)))
          CFI (cfiCond2) V3 load(1, XDATA, add(CFA_XSP16, literal(-11)))
          CFI (cfiCond2) V4 load(1, XDATA, add(CFA_XSP16, literal(-10)))
          CFI (cfiCond2) V5 load(1, XDATA, add(CFA_XSP16, literal(-9)))
          CFI (cfiCond2) V6 load(1, XDATA, add(CFA_XSP16, literal(-8)))
          CFI (cfiCond2) V7 load(1, XDATA, add(CFA_XSP16, literal(-7)))
          CFI (cfiCond2) R7 load(1, XDATA, add(CFA_XSP16, literal(-6)))
          CFI (cfiCond2) ?RET_LOW load(1, XDATA, add(CFA_XSP16, literal(-5)))
          CFI (cfiCond2) ?RET_HIGH load(1, XDATA, add(CFA_XSP16, literal(-4)))
          CFI (cfiCond2) ?BRET_EXT load(1, XDATA, add(CFA_XSP16, literal(-3)))
          CFI (cfiCond2) DPL0 load(1, XDATA, add(CFA_XSP16, literal(-2)))
          CFI (cfiCond2) DPH0 load(1, XDATA, add(CFA_XSP16, literal(-1)))
          CFI (cfiCond2) CFA_SP SP+-2
          CFI (cfiCond2) CFA_XSP16 add(XSP16, 16)
          CFI Block cfiPicker3 Using cfiCommon1
          CFI (cfiPicker3) NoFunction
          CFI (cfiPicker3) Picker
        MOV     DPTR,#timeMSec
        MOVX    A,@DPTR
        MOV     R0,A
        INC     DPTR
        MOVX    A,@DPTR
        MOV     R1,A
        MOV     R2,#-0x18
        MOV     R3,#0x3
        RET
          CFI EndBlock cfiCond1
          CFI EndBlock cfiCond2
          CFI EndBlock cfiPicker3
//  162 
//  163 /*********************************************************************
//  164  * @fn      osalClockUpdate
//  165  *
//  166  * @brief   Updates the OSAL Clock time with elapsed milliseconds.
//  167  *
//  168  * @param   elapsedMSec - elapsed milliseconds
//  169  *
//  170  * @return  none
//  171  */
//  172 static void osalClockUpdate( uint16 elapsedMSec )
//  173 {
//  174   // Add elapsed milliseconds to the saved millisecond portion of time
//  175   timeMSec += elapsedMSec;
//  176 
//  177   // Roll up milliseconds to the number of seconds
//  178   if ( timeMSec >= 1000 )
//  179   {
//  180     OSAL_timeSeconds += timeMSec / 1000;
//  181     timeMSec = timeMSec % 1000;
//  182   }
//  183 }
//  184 
//  185 /*********************************************************************
//  186  * @fn      osal_setClock
//  187  *
//  188  * @brief   Set the new time.  This will only set the seconds portion
//  189  *          of time and doesn't change the factional second counter.
//  190  *
//  191  * @param   newTime - number of seconds since 0 hrs, 0 minutes,
//  192  *                    0 seconds, on the 1st of January 2000 UTC
//  193  *
//  194  * @return  none
//  195  */

        RSEG BANKED_CODE:CODE:NOROOT(0)
//  196 void osal_setClock( UTCTime newTime )
osal_setClock:
          CFI Block cfiBlock4 Using cfiCommon0
          CFI Function osal_setClock
        CODE
//  197 {
        REQUIRE ?V0
        REQUIRE ?V1
        REQUIRE ?V2
        REQUIRE ?V3
        MOV     A,#-0xc
        LCALL   ?BANKED_ENTER_XDATA
          CFI DPH0 load(1, XDATA, add(CFA_XSP16, literal(-1)))
          CFI DPL0 load(1, XDATA, add(CFA_XSP16, literal(-2)))
          CFI ?BRET_EXT load(1, XDATA, add(CFA_XSP16, literal(-3)))
          CFI ?RET_HIGH load(1, XDATA, add(CFA_XSP16, literal(-4)))
          CFI ?RET_LOW load(1, XDATA, add(CFA_XSP16, literal(-5)))
          CFI R7 load(1, XDATA, add(CFA_XSP16, literal(-6)))
          CFI V3 load(1, XDATA, add(CFA_XSP16, literal(-7)))
          CFI V2 load(1, XDATA, add(CFA_XSP16, literal(-8)))
          CFI V1 load(1, XDATA, add(CFA_XSP16, literal(-9)))
          CFI V0 load(1, XDATA, add(CFA_XSP16, literal(-10)))
          CFI VB load(1, XDATA, add(CFA_XSP16, literal(-11)))
          CFI R6 load(1, XDATA, add(CFA_XSP16, literal(-12)))
          CFI CFA_SP SP+0
          CFI CFA_XSP16 add(XSP16, 12)
        ; Saved register size: 12
        ; Auto size: 0
        MOV     ?V0,R2
        MOV     ?V1,R3
        MOV     ?V2,R4
        MOV     ?V3,R5
//  198   OSAL_timeSeconds = newTime;
        MOV     DPTR,#OSAL_timeSeconds
        MOV     R0,#?V0
        LCALL   ?L_MOV_TO_X
//  199 }
        MOV     R7,#0x4
        LJMP    ?BANKED_LEAVE_XDATA
          CFI EndBlock cfiBlock4
//  200 
//  201 /*********************************************************************
//  202  * @fn      osal_getClock
//  203  *
//  204  * @brief   Gets the current time.  This will only return the seconds
//  205  *          portion of time and doesn't include the factional second
//  206  *          counter.
//  207  *
//  208  * @param   none
//  209  *
//  210  * @return  number of seconds since 0 hrs, 0 minutes, 0 seconds,
//  211  *          on the 1st of January 2000 UTC
//  212  */

        RSEG BANKED_CODE:CODE:NOROOT(0)
//  213 UTCTime osal_getClock( void )
osal_getClock:
          CFI Block cfiBlock5 Using cfiCommon0
          CFI Function osal_getClock
        CODE
//  214 {
        PUSH    DPL
          CFI DPL0 Frame(CFA_SP, 4)
          CFI CFA_SP SP+-4
        PUSH    DPH
          CFI DPH0 Frame(CFA_SP, 5)
          CFI CFA_SP SP+-5
        ; Saved register size: 2
        ; Auto size: 0
//  215   return ( OSAL_timeSeconds );
        MOV     DPTR,#OSAL_timeSeconds
        LCALL   ?XLOAD_R2345
        POP     DPH
          CFI DPH0 SameValue
          CFI CFA_SP SP+-4
        POP     DPL
          CFI DPL0 SameValue
          CFI CFA_SP SP+-3
        LJMP    ?BRET
          CFI EndBlock cfiBlock5
//  216 }
//  217 
//  218 /*********************************************************************
//  219  * @fn      osal_ConvertUTCTime
//  220  *
//  221  * @brief   Converts UTCTime to UTCTimeStruct
//  222  *
//  223  * @param   tm - pointer to breakdown struct
//  224  *
//  225  * @param   secTime - number of seconds since 0 hrs, 0 minutes,
//  226  *          0 seconds, on the 1st of January 2000 UTC
//  227  *
//  228  * @return  none
//  229  */

        RSEG BANKED_CODE:CODE:NOROOT(0)
//  230 void osal_ConvertUTCTime( UTCTimeStruct *tm, UTCTime secTime )
osal_ConvertUTCTime:
          CFI Block cfiBlock6 Using cfiCommon0
          CFI Function osal_ConvertUTCTime
        CODE
//  231 {
        FUNCALL osal_ConvertUTCTime, monthLength
        LOCFRAME ISTACK, 0, STACK
        LOCFRAME PSTACK, 0, STACK
        LOCFRAME XSTACK, 22, STACK
        LOCFRAME IOVERLAY, 0, STATIC
        LOCFRAME DOVERLAY, 0, STATIC
        ARGFRAME ISTACK, 0, STACK
        ARGFRAME PSTACK, 0, STACK
        ARGFRAME XSTACK, 22, STACK
        ARGFRAME IOVERLAY, 0, STATIC
        ARGFRAME DOVERLAY, 0, STATIC
        FUNCALL osal_ConvertUTCTime, monthLength
        LOCFRAME ISTACK, 0, STACK
        LOCFRAME PSTACK, 0, STACK
        LOCFRAME XSTACK, 22, STACK
        LOCFRAME IOVERLAY, 0, STATIC
        LOCFRAME DOVERLAY, 0, STATIC
        ARGFRAME ISTACK, 0, STACK
        ARGFRAME PSTACK, 0, STACK
        ARGFRAME XSTACK, 22, STACK
        ARGFRAME IOVERLAY, 0, STATIC
        ARGFRAME DOVERLAY, 0, STATIC
        REQUIRE ?V0
        REQUIRE ?V1
        REQUIRE ?V2
        REQUIRE ?V3
        REQUIRE ?V4
        REQUIRE ?V5
        REQUIRE ?V6
        REQUIRE ?V7
        MOV     A,#-0x10
        LCALL   ?BANKED_ENTER_XDATA
          CFI DPH0 load(1, XDATA, add(CFA_XSP16, literal(-1)))
          CFI DPL0 load(1, XDATA, add(CFA_XSP16, literal(-2)))
          CFI ?BRET_EXT load(1, XDATA, add(CFA_XSP16, literal(-3)))
          CFI ?RET_HIGH load(1, XDATA, add(CFA_XSP16, literal(-4)))
          CFI ?RET_LOW load(1, XDATA, add(CFA_XSP16, literal(-5)))
          CFI R7 load(1, XDATA, add(CFA_XSP16, literal(-6)))
          CFI V7 load(1, XDATA, add(CFA_XSP16, literal(-7)))
          CFI V6 load(1, XDATA, add(CFA_XSP16, literal(-8)))
          CFI V5 load(1, XDATA, add(CFA_XSP16, literal(-9)))
          CFI V4 load(1, XDATA, add(CFA_XSP16, literal(-10)))
          CFI V3 load(1, XDATA, add(CFA_XSP16, literal(-11)))
          CFI V2 load(1, XDATA, add(CFA_XSP16, literal(-12)))
          CFI V1 load(1, XDATA, add(CFA_XSP16, literal(-13)))
          CFI V0 load(1, XDATA, add(CFA_XSP16, literal(-14)))
          CFI VB load(1, XDATA, add(CFA_XSP16, literal(-15)))
          CFI R6 load(1, XDATA, add(CFA_XSP16, literal(-16)))
          CFI CFA_SP SP+0
          CFI CFA_XSP16 add(XSP16, 16)
        ; Saved register size: 16
        ; Auto size: 6
        MOV     A,#-0x6
        LCALL   ?ALLOC_XSTACK8
          CFI CFA_XSP16 add(XSP16, 22)
        MOV     DPL,?XSP + 0
        MOV     DPH,?XSP + 1
        MOV     A,R2
        MOVX    @DPTR,A
        INC     DPTR
        MOV     A,R3
        MOVX    @DPTR,A
//  232   // calculate the time less than a day - hours, minutes, seconds
//  233   {
//  234     uint32 day = secTime % DAY;
        MOV     A,#0x16
        LCALL   ?XSTACK_DISP0_8
        MOV     R0,#?V0
        LCALL   ?L_MOV_X
        MOV     DPTR,#__Constant_15180
        MOV     R0,#?V4
        LCALL   ?L_MOV_X
        MOV     R0,#?V0
        MOV     R1,#?V4
        LCALL   ?UL_DIV_MOD
        MOV     A,#0x2
        LCALL   ?XSTACK_DISP0_8
        MOV     R0,#?V4
        LCALL   ?L_MOV_TO_X
//  235     tm->seconds = day % 60UL;
        MOV     A,#0x2
        LCALL   ?XSTACK_DISP0_8
        MOV     R0,#?V4
        LCALL   ?L_MOV_X
        MOV     DPTR,#__Constant_3c
        MOV     R0,#?V0
        LCALL   ?L_MOV_X
        MOV     R0,#?V4
        MOV     R1,#?V0
        LCALL   ?UL_DIV_MOD
        MOV     DPL,?XSP + 0
        MOV     DPH,?XSP + 1
        LCALL   ?Subroutine7 & 0xFFFF
??CrossCallReturnLabel_9:
        MOV     A,?V0
        MOVX    @DPTR,A
//  236     tm->minutes = (day % 3600UL) / 60UL;
        MOV     A,#0x2
        LCALL   ?XSTACK_DISP0_8
        MOV     R0,#?V4
        LCALL   ?L_MOV_X
        MOV     DPTR,#__Constant_e10
        MOV     R0,#?V0
        LCALL   ?L_MOV_X
        MOV     R0,#?V4
        MOV     R1,#?V0
        LCALL   ?UL_DIV_MOD
        MOV     DPTR,#__Constant_3c
        MOV     R0,#?V4
        LCALL   ?L_MOV_X
        MOV     R0,#?V0
        MOV     R1,#?V4
        LCALL   ?UL_DIV_MOD
        MOV     DPL,?XSP + 0
        MOV     DPH,?XSP + 1
        LCALL   ?Subroutine6 & 0xFFFF
??CrossCallReturnLabel_7:
        MOV     A,?V0
        MOVX    @DPTR,A
//  237     tm->hour = day / 3600UL;
        MOV     A,#0x2
        LCALL   ?XSTACK_DISP0_8
        MOV     R0,#?V0
        LCALL   ?L_MOV_X
        MOV     DPTR,#__Constant_e10
        MOV     R0,#?V4
        LCALL   ?L_MOV_X
        MOV     R0,#?V0
        MOV     R1,#?V4
        LCALL   ?UL_DIV_MOD
        MOV     DPL,?XSP + 0
        MOV     DPH,?XSP + 1
        LCALL   ?Subroutine4 & 0xFFFF
//  238   }
??CrossCallReturnLabel_16:
        MOV     A,?V0
        MOVX    @DPTR,A
//  239 
//  240   // Fill in the calendar - day, month, year
//  241   {
//  242     uint16 numDays = secTime / DAY;
        MOV     A,#0x16
        LCALL   ?XSTACK_DISP0_8
        MOV     R0,#?V0
        LCALL   ?L_MOV_X
        MOV     DPTR,#__Constant_15180
        MOV     R0,#?V4
        LCALL   ?L_MOV_X
        MOV     R0,#?V0
        MOV     R1,#?V4
        LCALL   ?UL_DIV_MOD
        MOV     R6,?V0
        MOV     R7,?V1
//  243     tm->year = BEGYEAR;
        MOV     DPL,?XSP + 0
        MOV     DPH,?XSP + 1
        MOVX    A,@DPTR
        ADD     A,#0x5
        MOV     ?V0,A
        INC     DPTR
        MOVX    A,@DPTR
        ADDC    A,#0x0
        MOV     ?V1,A
        MOV     DPL,?V0
        MOV     DPH,A
        MOV     A,#-0x30
        MOVX    @DPTR,A
        INC     DPTR
        MOV     A,#0x7
        SJMP    ??osal_ConvertUTCTime_0
//  244     while ( numDays >= YearLength( tm->year ) )
//  245     {
//  246       numDays -= YearLength( tm->year );
??osal_ConvertUTCTime_1:
        MOV     R0,#0x6d
??osal_ConvertUTCTime_2:
        CLR     C
        MOV     A,R6
        SUBB    A,R0
        MOV     R6,A
        MOV     A,R7
        SUBB    A,#0x1
        MOV     R7,A
//  247       tm->year++;
        MOV     DPL,?V0
        MOV     DPH,?V1
        MOVX    A,@DPTR
        ADD     A,#0x1
        MOVX    @DPTR,A
        INC     DPTR
        MOVX    A,@DPTR
        ADDC    A,#0x0
??osal_ConvertUTCTime_0:
        LCALL   ?Subroutine1 & 0xFFFF
??CrossCallReturnLabel_18:
        LCALL   ?US_DIV_MOD
        MOV     ?V4,R2
        MOV     ?V5,R3
        MOV     A,R2
        ORL     A,?V5
        JZ      ??osal_ConvertUTCTime_3
        MOV     A,R4
        MOV     R0,A
        MOV     A,R5
        MOV     R1,A
        MOV     R2,#0x64
        MOV     R3,#0x0
        LCALL   ?US_DIV_MOD
        MOV     ?V3,R3
        MOV     A,R2
        ORL     A,?V3
        JZ      ??osal_ConvertUTCTime_4
        MOV     A,R4
        ANL     A,#0x3
        JNZ     ??osal_ConvertUTCTime_4
??osal_ConvertUTCTime_3:
        MOV     R0,#0x6e
        SJMP    ??osal_ConvertUTCTime_5
??osal_ConvertUTCTime_4:
        MOV     R0,#0x6d
??osal_ConvertUTCTime_5:
        MOV     A,R6
        SUBB    A,R0
        MOV     A,R7
        SUBB    A,#0x1
        JC      ??osal_ConvertUTCTime_6
        MOV     A,?V4
        ORL     A,?V5
        JZ      ??osal_ConvertUTCTime_7
        MOV     A,R4
        MOV     R0,A
        MOV     A,R5
        MOV     R1,A
        MOV     R2,#0x64
        MOV     R3,#0x0
        LCALL   ?US_DIV_MOD
        MOV     ?V3,R3
        MOV     A,R2
        ORL     A,?V3
        JZ      ??osal_ConvertUTCTime_1
        MOV     A,R4
        ANL     A,#0x3
        JNZ     ??osal_ConvertUTCTime_1
??osal_ConvertUTCTime_7:
        MOV     R0,#0x6e
        SJMP    ??osal_ConvertUTCTime_2
//  248     }
//  249 
//  250     tm->month = 0;
??osal_ConvertUTCTime_6:
        MOV     DPL,?XSP + 0
        MOV     DPH,?XSP + 1
        MOVX    A,@DPTR
        ADD     A,#0x4
        MOV     ?V2,A
        INC     DPTR
        MOVX    A,@DPTR
        ADDC    A,#0x0
        MOV     ?V3,A
        MOV     DPL,?V2
        MOV     DPH,A
        CLR     A
        SJMP    ??osal_ConvertUTCTime_8
//  251     while ( numDays >= monthLength( IsLeapYear( tm->year ), tm->month ) )
//  252     {
//  253       numDays -= monthLength( IsLeapYear( tm->year ), tm->month );
??osal_ConvertUTCTime_9:
        MOV     R1,#0x0
??osal_ConvertUTCTime_10:
        ; Setup parameters for call to function monthLength
        MOV     DPL,?V2
        MOV     DPH,?V3
        MOVX    A,@DPTR
        MOV     R2,A
        LCALL   ??monthLength?relay  ; Banked call to: monthLength
        MOV     A,R1
        MOV     R0,A
        CLR     C
        MOV     A,R6
        SUBB    A,R0
        MOV     R6,A
        MOV     A,R7
        SUBB    A,#0x0
        MOV     R7,A
//  254       tm->month++;
        MOV     DPL,?V2
        MOV     DPH,?V3
        MOVX    A,@DPTR
        INC     A
??osal_ConvertUTCTime_8:
        LCALL   ?Subroutine1 & 0xFFFF
??CrossCallReturnLabel_19:
        LCALL   ?US_DIV_MOD
        MOV     ?V5,R3
        MOV     A,R2
        ORL     A,?V5
        JZ      ??osal_ConvertUTCTime_11
        MOV     A,R4
        MOV     R0,A
        MOV     A,R5
        MOV     R1,A
        MOV     R2,#0x64
        MOV     R3,#0x0
        LCALL   ?US_DIV_MOD
        MOV     ?V5,R3
        MOV     A,R2
        ORL     A,?V5
        JZ      ??osal_ConvertUTCTime_12
        MOV     A,R4
        ANL     A,#0x3
        JNZ     ??osal_ConvertUTCTime_12
??osal_ConvertUTCTime_11:
        MOV     R1,#0x1
        SJMP    ??osal_ConvertUTCTime_13
??osal_ConvertUTCTime_12:
        MOV     R1,#0x0
??osal_ConvertUTCTime_13:
        ; Setup parameters for call to function monthLength
        MOV     DPL,?V2
        MOV     DPH,?V3
        MOVX    A,@DPTR
        MOV     R2,A
        LCALL   ??monthLength?relay  ; Banked call to: monthLength
        MOV     A,R1
        MOV     R0,A
        CLR     C
        MOV     A,R6
        SUBB    A,R0
        MOV     A,R7
        SUBB    A,#0x0
        JC      ??osal_ConvertUTCTime_14
        LCALL   ??Subroutine12_0 & 0xFFFF
//  255     }
??CrossCallReturnLabel_20:
        LCALL   ?US_DIV_MOD
        MOV     ?V5,R3
        MOV     A,R2
        ORL     A,?V5
        JZ      ??osal_ConvertUTCTime_15
        MOV     A,R4
        MOV     R0,A
        MOV     A,R5
        MOV     R1,A
        MOV     R2,#0x64
        MOV     R3,#0x0
        LCALL   ?US_DIV_MOD
        MOV     ?V5,R3
        MOV     A,R2
        ORL     A,?V5
        JZ      ??osal_ConvertUTCTime_9
        MOV     A,R4
        ANL     A,#0x3
        JZ      $+5
        LJMP    ??osal_ConvertUTCTime_9 & 0xFFFF
??osal_ConvertUTCTime_15:
        MOV     R1,#0x1
        LJMP    ??osal_ConvertUTCTime_10 & 0xFFFF
//  256 
//  257     tm->day = numDays;
??osal_ConvertUTCTime_14:
        MOV     DPL,?XSP + 0
        MOV     DPH,?XSP + 1
        LCALL   ?Subroutine2 & 0xFFFF
//  258   }
??CrossCallReturnLabel_0:
        MOV     A,R6
        MOVX    @DPTR,A
//  259 }
        MOV     A,#0x6
          CFI EndBlock cfiBlock6
        REQUIRE ?Subroutine0
        ; // Fall through to label ?Subroutine0

        RSEG BANKED_CODE:CODE:NOROOT(0)
?Subroutine0:
          CFI Block cfiBlock7 Using cfiCommon0
          CFI NoFunction
          CFI CFA_SP SP+0
          CFI CFA_XSP16 add(XSP16, 22)
          CFI VB load(1, XDATA, add(CFA_XSP16, literal(-15)))
          CFI DPL0 load(1, XDATA, add(CFA_XSP16, literal(-2)))
          CFI DPH0 load(1, XDATA, add(CFA_XSP16, literal(-1)))
          CFI R6 load(1, XDATA, add(CFA_XSP16, literal(-16)))
          CFI R7 load(1, XDATA, add(CFA_XSP16, literal(-6)))
          CFI V0 load(1, XDATA, add(CFA_XSP16, literal(-14)))
          CFI V1 load(1, XDATA, add(CFA_XSP16, literal(-13)))
          CFI V2 load(1, XDATA, add(CFA_XSP16, literal(-12)))
          CFI V3 load(1, XDATA, add(CFA_XSP16, literal(-11)))
          CFI V4 load(1, XDATA, add(CFA_XSP16, literal(-10)))
          CFI V5 load(1, XDATA, add(CFA_XSP16, literal(-9)))
          CFI V6 load(1, XDATA, add(CFA_XSP16, literal(-8)))
          CFI V7 load(1, XDATA, add(CFA_XSP16, literal(-7)))
          CFI ?BRET_EXT load(1, XDATA, add(CFA_XSP16, literal(-3)))
          CFI ?RET_HIGH load(1, XDATA, add(CFA_XSP16, literal(-4)))
          CFI ?RET_LOW load(1, XDATA, add(CFA_XSP16, literal(-5)))
          CFI Invalid
        LCALL   ?DEALLOC_XSTACK8
          CFI EndBlock cfiBlock7
        REQUIRE ??Subroutine10_0
        ; // Fall through to label ??Subroutine10_0

        RSEG BANKED_CODE:CODE:NOROOT(0)
??Subroutine10_0:
          CFI Block cfiBlock8 Using cfiCommon0
          CFI NoFunction
          CFI CFA_SP SP+0
          CFI CFA_XSP16 add(XSP16, 16)
          CFI VB load(1, XDATA, add(CFA_XSP16, literal(-15)))
          CFI DPL0 load(1, XDATA, add(CFA_XSP16, literal(-2)))
          CFI DPH0 load(1, XDATA, add(CFA_XSP16, literal(-1)))
          CFI R6 load(1, XDATA, add(CFA_XSP16, literal(-16)))
          CFI R7 load(1, XDATA, add(CFA_XSP16, literal(-6)))
          CFI V0 load(1, XDATA, add(CFA_XSP16, literal(-14)))
          CFI V1 load(1, XDATA, add(CFA_XSP16, literal(-13)))
          CFI V2 load(1, XDATA, add(CFA_XSP16, literal(-12)))
          CFI V3 load(1, XDATA, add(CFA_XSP16, literal(-11)))
          CFI V4 load(1, XDATA, add(CFA_XSP16, literal(-10)))
          CFI V5 load(1, XDATA, add(CFA_XSP16, literal(-9)))
          CFI V6 load(1, XDATA, add(CFA_XSP16, literal(-8)))
          CFI V7 load(1, XDATA, add(CFA_XSP16, literal(-7)))
          CFI ?BRET_EXT load(1, XDATA, add(CFA_XSP16, literal(-3)))
          CFI ?RET_HIGH load(1, XDATA, add(CFA_XSP16, literal(-4)))
          CFI ?RET_LOW load(1, XDATA, add(CFA_XSP16, literal(-5)))
        MOV     R7,#0x8
        LJMP    ?BANKED_LEAVE_XDATA
          CFI EndBlock cfiBlock8

        RSEG BANKED_CODE:CODE:NOROOT(0)
?Subroutine4:
          CFI Block cfiCond9 Using cfiCommon0
          CFI Function osal_ConvertUTCTime
          CFI Conditional ??CrossCallReturnLabel_16
          CFI R6 load(1, XDATA, add(CFA_XSP16, literal(-16)))
          CFI VB load(1, XDATA, add(CFA_XSP16, literal(-15)))
          CFI V0 load(1, XDATA, add(CFA_XSP16, literal(-14)))
          CFI V1 load(1, XDATA, add(CFA_XSP16, literal(-13)))
          CFI V2 load(1, XDATA, add(CFA_XSP16, literal(-12)))
          CFI V3 load(1, XDATA, add(CFA_XSP16, literal(-11)))
          CFI V4 load(1, XDATA, add(CFA_XSP16, literal(-10)))
          CFI V5 load(1, XDATA, add(CFA_XSP16, literal(-9)))
          CFI V6 load(1, XDATA, add(CFA_XSP16, literal(-8)))
          CFI V7 load(1, XDATA, add(CFA_XSP16, literal(-7)))
          CFI R7 load(1, XDATA, add(CFA_XSP16, literal(-6)))
          CFI ?RET_LOW load(1, XDATA, add(CFA_XSP16, literal(-5)))
          CFI ?RET_HIGH load(1, XDATA, add(CFA_XSP16, literal(-4)))
          CFI ?BRET_EXT load(1, XDATA, add(CFA_XSP16, literal(-3)))
          CFI DPL0 load(1, XDATA, add(CFA_XSP16, literal(-2)))
          CFI DPH0 load(1, XDATA, add(CFA_XSP16, literal(-1)))
          CFI CFA_SP SP+-2
          CFI CFA_XSP16 add(XSP16, 22)
          CFI Block cfiCond10 Using cfiCommon0
          CFI (cfiCond10) Function osal_ConvertUTCSecs
          CFI (cfiCond10) Conditional ??CrossCallReturnLabel_17
          CFI (cfiCond10) R6 load(1, XDATA, add(CFA_XSP16, literal(-16)))
          CFI (cfiCond10) VB load(1, XDATA, add(CFA_XSP16, literal(-15)))
          CFI (cfiCond10) V0 load(1, XDATA, add(CFA_XSP16, literal(-14)))
          CFI (cfiCond10) V1 load(1, XDATA, add(CFA_XSP16, literal(-13)))
          CFI (cfiCond10) V2 load(1, XDATA, add(CFA_XSP16, literal(-12)))
          CFI (cfiCond10) V3 load(1, XDATA, add(CFA_XSP16, literal(-11)))
          CFI (cfiCond10) V4 load(1, XDATA, add(CFA_XSP16, literal(-10)))
          CFI (cfiCond10) V5 load(1, XDATA, add(CFA_XSP16, literal(-9)))
          CFI (cfiCond10) V6 load(1, XDATA, add(CFA_XSP16, literal(-8)))
          CFI (cfiCond10) V7 load(1, XDATA, add(CFA_XSP16, literal(-7)))
          CFI (cfiCond10) R7 load(1, XDATA, add(CFA_XSP16, literal(-6)))
          CFI (cfiCond10) ?RET_LOW load(1, XDATA, add(CFA_XSP16, literal(-5)))
          CFI (cfiCond10) ?RET_HIGH load(1, XDATA, add(CFA_XSP16, literal(-4)))
          CFI (cfiCond10) ?BRET_EXT load(1, XDATA, add(CFA_XSP16, literal(-3)))
          CFI (cfiCond10) DPL0 load(1, XDATA, add(CFA_XSP16, literal(-2)))
          CFI (cfiCond10) DPH0 load(1, XDATA, add(CFA_XSP16, literal(-1)))
          CFI (cfiCond10) CFA_SP SP+-2
          CFI (cfiCond10) CFA_XSP16 add(XSP16, 19)
          CFI Block cfiPicker11 Using cfiCommon1
          CFI (cfiPicker11) NoFunction
          CFI (cfiPicker11) Picker
        MOVX    A,@DPTR
        MOV     R0,A
          CFI EndBlock cfiCond9
          CFI EndBlock cfiCond10
          CFI EndBlock cfiPicker11
        REQUIRE ??Subroutine11_0
        ; // Fall through to label ??Subroutine11_0

        RSEG BANKED_CODE:CODE:NOROOT(0)
??Subroutine11_0:
          CFI Block cfiCond12 Using cfiCommon0
          CFI Function osal_ConvertUTCSecs
          CFI Conditional ??CrossCallReturnLabel_15
          CFI R6 load(1, XDATA, add(CFA_XSP16, literal(-16)))
          CFI VB load(1, XDATA, add(CFA_XSP16, literal(-15)))
          CFI V0 load(1, XDATA, add(CFA_XSP16, literal(-14)))
          CFI V1 load(1, XDATA, add(CFA_XSP16, literal(-13)))
          CFI V2 load(1, XDATA, add(CFA_XSP16, literal(-12)))
          CFI V3 load(1, XDATA, add(CFA_XSP16, literal(-11)))
          CFI V4 load(1, XDATA, add(CFA_XSP16, literal(-10)))
          CFI V5 load(1, XDATA, add(CFA_XSP16, literal(-9)))
          CFI V6 load(1, XDATA, add(CFA_XSP16, literal(-8)))
          CFI V7 load(1, XDATA, add(CFA_XSP16, literal(-7)))
          CFI R7 load(1, XDATA, add(CFA_XSP16, literal(-6)))
          CFI ?RET_LOW load(1, XDATA, add(CFA_XSP16, literal(-5)))
          CFI ?RET_HIGH load(1, XDATA, add(CFA_XSP16, literal(-4)))
          CFI ?BRET_EXT load(1, XDATA, add(CFA_XSP16, literal(-3)))
          CFI DPL0 load(1, XDATA, add(CFA_XSP16, literal(-2)))
          CFI DPH0 load(1, XDATA, add(CFA_XSP16, literal(-1)))
          CFI CFA_SP SP+-2
          CFI CFA_XSP16 add(XSP16, 19)
          CFI Block cfiCond13 Using cfiCommon0
          CFI (cfiCond13) Function osal_ConvertUTCTime
          CFI (cfiCond13) Conditional ??CrossCallReturnLabel_16
          CFI (cfiCond13) R6 load(1, XDATA, add(CFA_XSP16, literal(-16)))
          CFI (cfiCond13) VB load(1, XDATA, add(CFA_XSP16, literal(-15)))
          CFI (cfiCond13) V0 load(1, XDATA, add(CFA_XSP16, literal(-14)))
          CFI (cfiCond13) V1 load(1, XDATA, add(CFA_XSP16, literal(-13)))
          CFI (cfiCond13) V2 load(1, XDATA, add(CFA_XSP16, literal(-12)))
          CFI (cfiCond13) V3 load(1, XDATA, add(CFA_XSP16, literal(-11)))
          CFI (cfiCond13) V4 load(1, XDATA, add(CFA_XSP16, literal(-10)))
          CFI (cfiCond13) V5 load(1, XDATA, add(CFA_XSP16, literal(-9)))
          CFI (cfiCond13) V6 load(1, XDATA, add(CFA_XSP16, literal(-8)))
          CFI (cfiCond13) V7 load(1, XDATA, add(CFA_XSP16, literal(-7)))
          CFI (cfiCond13) R7 load(1, XDATA, add(CFA_XSP16, literal(-6)))
          CFI (cfiCond13) ?RET_LOW load(1, XDATA, add(CFA_XSP16, literal(-5)))
          CFI (cfiCond13) ?RET_HIGH load(1, XDATA, add(CFA_XSP16, literal(-4)))
          CFI (cfiCond13) ?BRET_EXT load(1, XDATA, add(CFA_XSP16, literal(-3)))
          CFI (cfiCond13) DPL0 load(1, XDATA, add(CFA_XSP16, literal(-2)))
          CFI (cfiCond13) DPH0 load(1, XDATA, add(CFA_XSP16, literal(-1)))
          CFI (cfiCond13) CFA_SP SP+-2
          CFI (cfiCond13) CFA_XSP16 add(XSP16, 22)
          CFI Block cfiCond14 Using cfiCommon0
          CFI (cfiCond14) Function osal_ConvertUTCSecs
          CFI (cfiCond14) Conditional ??CrossCallReturnLabel_17
          CFI (cfiCond14) R6 load(1, XDATA, add(CFA_XSP16, literal(-16)))
          CFI (cfiCond14) VB load(1, XDATA, add(CFA_XSP16, literal(-15)))
          CFI (cfiCond14) V0 load(1, XDATA, add(CFA_XSP16, literal(-14)))
          CFI (cfiCond14) V1 load(1, XDATA, add(CFA_XSP16, literal(-13)))
          CFI (cfiCond14) V2 load(1, XDATA, add(CFA_XSP16, literal(-12)))
          CFI (cfiCond14) V3 load(1, XDATA, add(CFA_XSP16, literal(-11)))
          CFI (cfiCond14) V4 load(1, XDATA, add(CFA_XSP16, literal(-10)))
          CFI (cfiCond14) V5 load(1, XDATA, add(CFA_XSP16, literal(-9)))
          CFI (cfiCond14) V6 load(1, XDATA, add(CFA_XSP16, literal(-8)))
          CFI (cfiCond14) V7 load(1, XDATA, add(CFA_XSP16, literal(-7)))
          CFI (cfiCond14) R7 load(1, XDATA, add(CFA_XSP16, literal(-6)))
          CFI (cfiCond14) ?RET_LOW load(1, XDATA, add(CFA_XSP16, literal(-5)))
          CFI (cfiCond14) ?RET_HIGH load(1, XDATA, add(CFA_XSP16, literal(-4)))
          CFI (cfiCond14) ?BRET_EXT load(1, XDATA, add(CFA_XSP16, literal(-3)))
          CFI (cfiCond14) DPL0 load(1, XDATA, add(CFA_XSP16, literal(-2)))
          CFI (cfiCond14) DPH0 load(1, XDATA, add(CFA_XSP16, literal(-1)))
          CFI (cfiCond14) CFA_SP SP+-2
          CFI (cfiCond14) CFA_XSP16 add(XSP16, 19)
          CFI Block cfiPicker15 Using cfiCommon1
          CFI (cfiPicker15) NoFunction
          CFI (cfiPicker15) Picker
        INC     DPTR
        MOVX    A,@DPTR
        MOV     DPH,A
        MOV     DPL,R0
        INC     DPTR
        INC     DPTR
        RET
          CFI EndBlock cfiCond12
          CFI EndBlock cfiCond13
          CFI EndBlock cfiCond14
          CFI EndBlock cfiPicker15

        RSEG BANKED_CODE:CODE:NOROOT(0)
?Subroutine1:
          CFI Block cfiCond16 Using cfiCommon0
          CFI Function osal_ConvertUTCTime
          CFI Conditional ??CrossCallReturnLabel_18
          CFI R6 load(1, XDATA, add(CFA_XSP16, literal(-16)))
          CFI VB load(1, XDATA, add(CFA_XSP16, literal(-15)))
          CFI V0 load(1, XDATA, add(CFA_XSP16, literal(-14)))
          CFI V1 load(1, XDATA, add(CFA_XSP16, literal(-13)))
          CFI V2 load(1, XDATA, add(CFA_XSP16, literal(-12)))
          CFI V3 load(1, XDATA, add(CFA_XSP16, literal(-11)))
          CFI V4 load(1, XDATA, add(CFA_XSP16, literal(-10)))
          CFI V5 load(1, XDATA, add(CFA_XSP16, literal(-9)))
          CFI V6 load(1, XDATA, add(CFA_XSP16, literal(-8)))
          CFI V7 load(1, XDATA, add(CFA_XSP16, literal(-7)))
          CFI R7 load(1, XDATA, add(CFA_XSP16, literal(-6)))
          CFI ?RET_LOW load(1, XDATA, add(CFA_XSP16, literal(-5)))
          CFI ?RET_HIGH load(1, XDATA, add(CFA_XSP16, literal(-4)))
          CFI ?BRET_EXT load(1, XDATA, add(CFA_XSP16, literal(-3)))
          CFI DPL0 load(1, XDATA, add(CFA_XSP16, literal(-2)))
          CFI DPH0 load(1, XDATA, add(CFA_XSP16, literal(-1)))
          CFI CFA_SP SP+-2
          CFI CFA_XSP16 add(XSP16, 22)
          CFI Block cfiCond17 Using cfiCommon0
          CFI (cfiCond17) Function osal_ConvertUTCTime
          CFI (cfiCond17) Conditional ??CrossCallReturnLabel_19
          CFI (cfiCond17) R6 load(1, XDATA, add(CFA_XSP16, literal(-16)))
          CFI (cfiCond17) VB load(1, XDATA, add(CFA_XSP16, literal(-15)))
          CFI (cfiCond17) V0 load(1, XDATA, add(CFA_XSP16, literal(-14)))
          CFI (cfiCond17) V1 load(1, XDATA, add(CFA_XSP16, literal(-13)))
          CFI (cfiCond17) V2 load(1, XDATA, add(CFA_XSP16, literal(-12)))
          CFI (cfiCond17) V3 load(1, XDATA, add(CFA_XSP16, literal(-11)))
          CFI (cfiCond17) V4 load(1, XDATA, add(CFA_XSP16, literal(-10)))
          CFI (cfiCond17) V5 load(1, XDATA, add(CFA_XSP16, literal(-9)))
          CFI (cfiCond17) V6 load(1, XDATA, add(CFA_XSP16, literal(-8)))
          CFI (cfiCond17) V7 load(1, XDATA, add(CFA_XSP16, literal(-7)))
          CFI (cfiCond17) R7 load(1, XDATA, add(CFA_XSP16, literal(-6)))
          CFI (cfiCond17) ?RET_LOW load(1, XDATA, add(CFA_XSP16, literal(-5)))
          CFI (cfiCond17) ?RET_HIGH load(1, XDATA, add(CFA_XSP16, literal(-4)))
          CFI (cfiCond17) ?BRET_EXT load(1, XDATA, add(CFA_XSP16, literal(-3)))
          CFI (cfiCond17) DPL0 load(1, XDATA, add(CFA_XSP16, literal(-2)))
          CFI (cfiCond17) DPH0 load(1, XDATA, add(CFA_XSP16, literal(-1)))
          CFI (cfiCond17) CFA_SP SP+-2
          CFI (cfiCond17) CFA_XSP16 add(XSP16, 22)
          CFI Block cfiPicker18 Using cfiCommon1
          CFI (cfiPicker18) NoFunction
          CFI (cfiPicker18) Picker
        MOVX    @DPTR,A
          CFI EndBlock cfiCond16
          CFI EndBlock cfiCond17
          CFI EndBlock cfiPicker18
        REQUIRE ??Subroutine12_0
        ; // Fall through to label ??Subroutine12_0

        RSEG BANKED_CODE:CODE:NOROOT(0)
??Subroutine12_0:
          CFI Block cfiCond19 Using cfiCommon0
          CFI Function osal_ConvertUTCTime
          CFI Conditional ??CrossCallReturnLabel_20
          CFI R6 load(1, XDATA, add(CFA_XSP16, literal(-16)))
          CFI VB load(1, XDATA, add(CFA_XSP16, literal(-15)))
          CFI V0 load(1, XDATA, add(CFA_XSP16, literal(-14)))
          CFI V1 load(1, XDATA, add(CFA_XSP16, literal(-13)))
          CFI V2 load(1, XDATA, add(CFA_XSP16, literal(-12)))
          CFI V3 load(1, XDATA, add(CFA_XSP16, literal(-11)))
          CFI V4 load(1, XDATA, add(CFA_XSP16, literal(-10)))
          CFI V5 load(1, XDATA, add(CFA_XSP16, literal(-9)))
          CFI V6 load(1, XDATA, add(CFA_XSP16, literal(-8)))
          CFI V7 load(1, XDATA, add(CFA_XSP16, literal(-7)))
          CFI R7 load(1, XDATA, add(CFA_XSP16, literal(-6)))
          CFI ?RET_LOW load(1, XDATA, add(CFA_XSP16, literal(-5)))
          CFI ?RET_HIGH load(1, XDATA, add(CFA_XSP16, literal(-4)))
          CFI ?BRET_EXT load(1, XDATA, add(CFA_XSP16, literal(-3)))
          CFI DPL0 load(1, XDATA, add(CFA_XSP16, literal(-2)))
          CFI DPH0 load(1, XDATA, add(CFA_XSP16, literal(-1)))
          CFI CFA_SP SP+-2
          CFI CFA_XSP16 add(XSP16, 22)
          CFI Block cfiCond20 Using cfiCommon0
          CFI (cfiCond20) Function osal_ConvertUTCTime
          CFI (cfiCond20) Conditional ??CrossCallReturnLabel_18
          CFI (cfiCond20) R6 load(1, XDATA, add(CFA_XSP16, literal(-16)))
          CFI (cfiCond20) VB load(1, XDATA, add(CFA_XSP16, literal(-15)))
          CFI (cfiCond20) V0 load(1, XDATA, add(CFA_XSP16, literal(-14)))
          CFI (cfiCond20) V1 load(1, XDATA, add(CFA_XSP16, literal(-13)))
          CFI (cfiCond20) V2 load(1, XDATA, add(CFA_XSP16, literal(-12)))
          CFI (cfiCond20) V3 load(1, XDATA, add(CFA_XSP16, literal(-11)))
          CFI (cfiCond20) V4 load(1, XDATA, add(CFA_XSP16, literal(-10)))
          CFI (cfiCond20) V5 load(1, XDATA, add(CFA_XSP16, literal(-9)))
          CFI (cfiCond20) V6 load(1, XDATA, add(CFA_XSP16, literal(-8)))
          CFI (cfiCond20) V7 load(1, XDATA, add(CFA_XSP16, literal(-7)))
          CFI (cfiCond20) R7 load(1, XDATA, add(CFA_XSP16, literal(-6)))
          CFI (cfiCond20) ?RET_LOW load(1, XDATA, add(CFA_XSP16, literal(-5)))
          CFI (cfiCond20) ?RET_HIGH load(1, XDATA, add(CFA_XSP16, literal(-4)))
          CFI (cfiCond20) ?BRET_EXT load(1, XDATA, add(CFA_XSP16, literal(-3)))
          CFI (cfiCond20) DPL0 load(1, XDATA, add(CFA_XSP16, literal(-2)))
          CFI (cfiCond20) DPH0 load(1, XDATA, add(CFA_XSP16, literal(-1)))
          CFI (cfiCond20) CFA_SP SP+-2
          CFI (cfiCond20) CFA_XSP16 add(XSP16, 22)
          CFI Block cfiCond21 Using cfiCommon0
          CFI (cfiCond21) Function osal_ConvertUTCTime
          CFI (cfiCond21) Conditional ??CrossCallReturnLabel_19
          CFI (cfiCond21) R6 load(1, XDATA, add(CFA_XSP16, literal(-16)))
          CFI (cfiCond21) VB load(1, XDATA, add(CFA_XSP16, literal(-15)))
          CFI (cfiCond21) V0 load(1, XDATA, add(CFA_XSP16, literal(-14)))
          CFI (cfiCond21) V1 load(1, XDATA, add(CFA_XSP16, literal(-13)))
          CFI (cfiCond21) V2 load(1, XDATA, add(CFA_XSP16, literal(-12)))
          CFI (cfiCond21) V3 load(1, XDATA, add(CFA_XSP16, literal(-11)))
          CFI (cfiCond21) V4 load(1, XDATA, add(CFA_XSP16, literal(-10)))
          CFI (cfiCond21) V5 load(1, XDATA, add(CFA_XSP16, literal(-9)))
          CFI (cfiCond21) V6 load(1, XDATA, add(CFA_XSP16, literal(-8)))
          CFI (cfiCond21) V7 load(1, XDATA, add(CFA_XSP16, literal(-7)))
          CFI (cfiCond21) R7 load(1, XDATA, add(CFA_XSP16, literal(-6)))
          CFI (cfiCond21) ?RET_LOW load(1, XDATA, add(CFA_XSP16, literal(-5)))
          CFI (cfiCond21) ?RET_HIGH load(1, XDATA, add(CFA_XSP16, literal(-4)))
          CFI (cfiCond21) ?BRET_EXT load(1, XDATA, add(CFA_XSP16, literal(-3)))
          CFI (cfiCond21) DPL0 load(1, XDATA, add(CFA_XSP16, literal(-2)))
          CFI (cfiCond21) DPH0 load(1, XDATA, add(CFA_XSP16, literal(-1)))
          CFI (cfiCond21) CFA_SP SP+-2
          CFI (cfiCond21) CFA_XSP16 add(XSP16, 22)
          CFI Block cfiPicker22 Using cfiCommon1
          CFI (cfiPicker22) NoFunction
          CFI (cfiPicker22) Picker
        MOV     DPL,?V0
        MOV     DPH,?V1
        MOVX    A,@DPTR
        MOV     R4,A
        INC     DPTR
        MOVX    A,@DPTR
        MOV     R5,A
        MOV     A,R4
        MOV     R0,A
        MOV     A,R5
        MOV     R1,A
        MOV     R2,#-0x70
        MOV     R3,#0x1
        RET
          CFI EndBlock cfiCond19
          CFI EndBlock cfiCond20
          CFI EndBlock cfiCond21
          CFI EndBlock cfiPicker22
//  260 
//  261 /*********************************************************************
//  262  * @fn      monthLength
//  263  *
//  264  * @param   lpyr - 1 for leap year, 0 if not
//  265  *
//  266  * @param   mon - 0 - 11 (jan - dec)
//  267  *
//  268  * @return  number of days in specified month
//  269  */

        RSEG BANKED_CODE:CODE:NOROOT(0)
//  270 static uint8 monthLength( uint8 lpyr, uint8 mon )
monthLength:
          CFI Block cfiBlock23 Using cfiCommon0
          CFI Function monthLength
        CODE
//  271 {
        ; Saved register size: 0
        ; Auto size: 0
        MOV     A,R1
        MOV     R0,A
//  272   uint8 days = 31;
        MOV     R1,#0x1f
//  273 
//  274   if ( mon == 1 ) // feb
        MOV     A,#0x1
        XRL     A,R2
        JNZ     ??monthLength_0
//  275   {
//  276     days = ( 28 + lpyr );
        MOV     A,#0x1c
        ADD     A,R0
        MOV     R1,A
        SJMP    ??monthLength_1
//  277   }
//  278   else
//  279   {
//  280     if ( mon > 6 ) // aug-dec
??monthLength_0:
        MOV     A,R2
        CLR     C
        SUBB    A,#0x7
        JC      ??monthLength_2
//  281     {
//  282       mon--;
        DEC     R2
//  283     }
//  284 
//  285     if ( mon & 1 )
??monthLength_2:
        MOV     A,R2
        MOV     C,0xE0 /* A   */.0
        JNC     ??monthLength_1
//  286     {
//  287       days = 30;
        DEC     R1
//  288     }
//  289   }
//  290 
//  291   return ( days );
??monthLength_1:
        LJMP    ?BRET
          CFI EndBlock cfiBlock23
//  292 }
//  293 
//  294 /*********************************************************************
//  295  * @fn      osal_ConvertUTCSecs
//  296  *
//  297  * @brief   Converts a UTCTimeStruct to UTCTime
//  298  *
//  299  * @param   tm - pointer to provided struct
//  300  *
//  301  * @return  number of seconds since 00:00:00 on 01/01/2000 (UTC)
//  302  */

        RSEG BANKED_CODE:CODE:NOROOT(0)
//  303 UTCTime osal_ConvertUTCSecs( UTCTimeStruct *tm )
osal_ConvertUTCSecs:
          CFI Block cfiBlock24 Using cfiCommon0
          CFI Function osal_ConvertUTCSecs
        CODE
//  304 {
        FUNCALL osal_ConvertUTCSecs, monthLength
        LOCFRAME ISTACK, 0, STACK
        LOCFRAME PSTACK, 0, STACK
        LOCFRAME XSTACK, 19, STACK
        LOCFRAME IOVERLAY, 0, STATIC
        LOCFRAME DOVERLAY, 0, STATIC
        ARGFRAME ISTACK, 0, STACK
        ARGFRAME PSTACK, 0, STACK
        ARGFRAME XSTACK, 19, STACK
        ARGFRAME IOVERLAY, 0, STATIC
        ARGFRAME DOVERLAY, 0, STATIC
        REQUIRE ?V0
        REQUIRE ?V1
        REQUIRE ?V2
        REQUIRE ?V3
        REQUIRE ?V4
        REQUIRE ?V5
        REQUIRE ?V6
        REQUIRE ?V7
        MOV     A,#-0x10
        LCALL   ?BANKED_ENTER_XDATA
          CFI DPH0 load(1, XDATA, add(CFA_XSP16, literal(-1)))
          CFI DPL0 load(1, XDATA, add(CFA_XSP16, literal(-2)))
          CFI ?BRET_EXT load(1, XDATA, add(CFA_XSP16, literal(-3)))
          CFI ?RET_HIGH load(1, XDATA, add(CFA_XSP16, literal(-4)))
          CFI ?RET_LOW load(1, XDATA, add(CFA_XSP16, literal(-5)))
          CFI R7 load(1, XDATA, add(CFA_XSP16, literal(-6)))
          CFI V7 load(1, XDATA, add(CFA_XSP16, literal(-7)))
          CFI V6 load(1, XDATA, add(CFA_XSP16, literal(-8)))
          CFI V5 load(1, XDATA, add(CFA_XSP16, literal(-9)))
          CFI V4 load(1, XDATA, add(CFA_XSP16, literal(-10)))
          CFI V3 load(1, XDATA, add(CFA_XSP16, literal(-11)))
          CFI V2 load(1, XDATA, add(CFA_XSP16, literal(-12)))
          CFI V1 load(1, XDATA, add(CFA_XSP16, literal(-13)))
          CFI V0 load(1, XDATA, add(CFA_XSP16, literal(-14)))
          CFI VB load(1, XDATA, add(CFA_XSP16, literal(-15)))
          CFI R6 load(1, XDATA, add(CFA_XSP16, literal(-16)))
          CFI CFA_SP SP+0
          CFI CFA_XSP16 add(XSP16, 16)
        ; Saved register size: 16
        ; Auto size: 3
        MOV     A,#-0x3
        LCALL   ?ALLOC_XSTACK8
          CFI CFA_XSP16 add(XSP16, 19)
        MOV     A,#0x1
        LCALL   ?XSTACK_DISP0_8
        MOV     A,R2
        MOVX    @DPTR,A
        INC     DPTR
        MOV     A,R3
        MOVX    @DPTR,A
//  305   uint32 seconds;
//  306 
//  307   /* Seconds for the partial day */
//  308   seconds = (((tm->hour * 60UL) + tm->minutes) * 60UL) + tm->seconds;
        MOV     A,#0x1
        LCALL   ?XSTACK_DISP0_8
        LCALL   ?Subroutine4 & 0xFFFF
??CrossCallReturnLabel_17:
        MOVX    A,@DPTR
        MOV     ?V0,A
        CLR     A
        MOV     ?V1,A
        MOV     ?V2,A
        MOV     ?V3,A
        MOV     DPTR,#__Constant_3c
        MOV     R0,#?V4
        LCALL   ?L_MOV_X
        MOV     R0,#?V0
        MOV     R1,#?V4
        LCALL   ?L_MUL
        MOV     A,#0x1
        LCALL   ?XSTACK_DISP0_8
        LCALL   ?Subroutine6 & 0xFFFF
??CrossCallReturnLabel_8:
        LCALL   ?Subroutine3 & 0xFFFF
??CrossCallReturnLabel_3:
        LCALL   ?L_ADD
        MOV     DPTR,#__Constant_3c
        MOV     R0,#?V4
        LCALL   ?L_MOV_X
        MOV     R0,#?V0
        MOV     R1,#?V4
        LCALL   ?L_MUL
        MOV     A,#0x1
        LCALL   ?XSTACK_DISP0_8
        LCALL   ?Subroutine7 & 0xFFFF
??CrossCallReturnLabel_10:
        LCALL   ?Subroutine3 & 0xFFFF
??CrossCallReturnLabel_4:
        LCALL   ?L_ADD
//  309 
//  310   /* Account for previous complete days */
//  311   {
//  312     /* Start with complete days in current month */
//  313     uint16 days = tm->day;
        MOV     A,#0x1
        LCALL   ?XSTACK_DISP0_8
        LCALL   ?Subroutine2 & 0xFFFF
??CrossCallReturnLabel_1:
        MOVX    A,@DPTR
        MOV     ?V6,A
//  314 
//  315     /* Next, complete months in current year */
//  316     {
//  317       int8 month = tm->month;
        MOV     A,#0x1
        LCALL   ?XSTACK_DISP0_8
        LCALL   ??Subroutine11_0 & 0xFFFF
??CrossCallReturnLabel_15:
        INC     DPTR
        INC     DPTR
        MOVX    A,@DPTR
        MOV     DPL,?XSP + 0
        MOV     DPH,?XSP + 1
        MOVX    @DPTR,A
        SJMP    ??osal_ConvertUTCSecs_0
//  318       while ( --month >= 0 )
//  319       {
//  320         days += monthLength( IsLeapYear( tm->year ), month );
??osal_ConvertUTCSecs_1:
        MOV     R1,#0x0
??osal_ConvertUTCSecs_2:
        ; Setup parameters for call to function monthLength
        MOVX    A,@DPTR
        MOV     R2,A
        LCALL   ??monthLength?relay  ; Banked call to: monthLength
        MOV     A,?V6
        ADD     A,R1
        MOV     ?V6,A
        CLR     A
        ADDC    A,?V7
        MOV     ?V7,A
??osal_ConvertUTCSecs_0:
        MOV     DPL,?XSP + 0
        MOV     DPH,?XSP + 1
        MOVX    A,@DPTR
        DEC     A
        MOVX    @DPTR,A
        MOV     A,#0x1
        LCALL   ?XSTACK_DISP0_8
        LCALL   ?Subroutine2 & 0xFFFF
??CrossCallReturnLabel_2:
        INC     DPTR
        INC     DPTR
        MOVX    A,@DPTR
        MOV     R6,A
        INC     DPTR
        MOVX    A,@DPTR
        MOV     R7,A
        MOV     DPL,?XSP + 0
        MOV     DPH,?XSP + 1
        MOVX    A,@DPTR
        CLR     C
        SUBB    A,#0x0
        MOV     C,0xD0 /* PSW */.2
        XRL     A,PSW
        RLC     A
        MOV     A,R6
        JC      ??osal_ConvertUTCSecs_3
        MOV     R0,A
        MOV     A,R7
        MOV     R1,A
        MOV     R2,#-0x70
        MOV     R3,#0x1
        LCALL   ?US_DIV_MOD
        MOV     ?V5,R3
        MOV     A,R2
        ORL     A,?V5
        JZ      ??osal_ConvertUTCSecs_4
        MOV     A,R6
        MOV     R0,A
        MOV     A,R7
        MOV     R1,A
        MOV     R2,#0x64
        MOV     R3,#0x0
        LCALL   ?US_DIV_MOD
        MOV     ?V5,R3
        MOV     A,R2
        ORL     A,?V5
        JZ      ??osal_ConvertUTCSecs_1
        MOV     A,R6
        ANL     A,#0x3
        JNZ     ??osal_ConvertUTCSecs_1
??osal_ConvertUTCSecs_4:
        MOV     R1,#0x1
        SJMP    ??osal_ConvertUTCSecs_2
//  321       }
//  322     }
//  323 
//  324     /* Next, complete years before current year */
//  325     {
//  326       uint16 year = tm->year;
??osal_ConvertUTCSecs_3:
        MOV     R4,A
        MOV     A,R7
        MOV     R5,A
        SJMP    ??osal_ConvertUTCSecs_5
//  327       while ( --year >= BEGYEAR )
//  328       {
//  329         days += YearLength( year );
??osal_ConvertUTCSecs_6:
        MOV     R0,#0x6d
??osal_ConvertUTCSecs_7:
        MOV     A,?V6
        ADD     A,R0
        MOV     ?V6,A
        MOV     A,?V7
        ADDC    A,#0x1
        MOV     ?V7,A
??osal_ConvertUTCSecs_5:
        MOV     A,R4
        ADD     A,#-0x1
        DEC     R4
        MOV     A,R5
        ADDC    A,#-0x1
        MOV     R5,A
        CLR     C
        MOV     A,R4
        SUBB    A,#-0x30
        MOV     A,R5
        SUBB    A,#0x7
        JC      ??osal_ConvertUTCSecs_8
        MOV     A,R4
        MOV     R0,A
        MOV     A,R5
        MOV     R1,A
        MOV     R2,#-0x70
        MOV     R3,#0x1
        LCALL   ?US_DIV_MOD
        MOV     ?V5,R3
        MOV     A,R2
        ORL     A,?V5
        JZ      ??osal_ConvertUTCSecs_9
        MOV     A,R4
        MOV     R0,A
        MOV     A,R5
        MOV     R1,A
        MOV     R2,#0x64
        MOV     R3,#0x0
        LCALL   ?US_DIV_MOD
        MOV     ?V5,R3
        MOV     A,R2
        ORL     A,?V5
        JZ      ??osal_ConvertUTCSecs_6
        MOV     A,R4
        ANL     A,#0x3
        JNZ     ??osal_ConvertUTCSecs_6
??osal_ConvertUTCSecs_9:
        MOV     R0,#0x6e
        SJMP    ??osal_ConvertUTCSecs_7
//  330       }
//  331     }
//  332 
//  333     /* Add total seconds before partial day */
//  334     seconds += (days * DAY);
//  335   }
//  336 
//  337   return ( seconds );
??osal_ConvertUTCSecs_8:
        PUSH    ?V0
          CFI CFA_SP SP+-1
        PUSH    ?V1
          CFI CFA_SP SP+-2
        PUSH    ?V2
          CFI CFA_SP SP+-3
        PUSH    ?V3
          CFI CFA_SP SP+-4
        MOV     ?V4,?V6
        MOV     ?V5,?V7
        CLR     A
        MOV     ?V6,A
        MOV     ?V7,A
        MOV     DPTR,#__Constant_15180
        MOV     R0,#?V0
        LCALL   ?L_MOV_X
        MOV     R0,#?V4
        MOV     R1,#?V0
        LCALL   ?L_MUL
        POP     ?V3
          CFI CFA_SP SP+-3
        POP     ?V2
          CFI CFA_SP SP+-2
        POP     ?V1
          CFI CFA_SP SP+-1
        POP     ?V0
          CFI CFA_SP SP+0
        MOV     R0,#?V0
        MOV     R1,#?V4
        LCALL   ?L_ADD
        MOV     R2,?V0
        MOV     R3,?V1
        MOV     R4,?V2
        MOV     R5,?V3
        MOV     A,#0x3
        LJMP    ?Subroutine0 & 0xFFFF
          CFI EndBlock cfiBlock24
//  338 }

        RSEG BANKED_CODE:CODE:NOROOT(0)
?Subroutine7:
          CFI Block cfiCond25 Using cfiCommon0
          CFI Function osal_ConvertUTCTime
          CFI Conditional ??CrossCallReturnLabel_9
          CFI R6 load(1, XDATA, add(CFA_XSP16, literal(-16)))
          CFI VB load(1, XDATA, add(CFA_XSP16, literal(-15)))
          CFI V0 load(1, XDATA, add(CFA_XSP16, literal(-14)))
          CFI V1 load(1, XDATA, add(CFA_XSP16, literal(-13)))
          CFI V2 load(1, XDATA, add(CFA_XSP16, literal(-12)))
          CFI V3 load(1, XDATA, add(CFA_XSP16, literal(-11)))
          CFI V4 load(1, XDATA, add(CFA_XSP16, literal(-10)))
          CFI V5 load(1, XDATA, add(CFA_XSP16, literal(-9)))
          CFI V6 load(1, XDATA, add(CFA_XSP16, literal(-8)))
          CFI V7 load(1, XDATA, add(CFA_XSP16, literal(-7)))
          CFI R7 load(1, XDATA, add(CFA_XSP16, literal(-6)))
          CFI ?RET_LOW load(1, XDATA, add(CFA_XSP16, literal(-5)))
          CFI ?RET_HIGH load(1, XDATA, add(CFA_XSP16, literal(-4)))
          CFI ?BRET_EXT load(1, XDATA, add(CFA_XSP16, literal(-3)))
          CFI DPL0 load(1, XDATA, add(CFA_XSP16, literal(-2)))
          CFI DPH0 load(1, XDATA, add(CFA_XSP16, literal(-1)))
          CFI CFA_SP SP+-2
          CFI CFA_XSP16 add(XSP16, 22)
          CFI Block cfiCond26 Using cfiCommon0
          CFI (cfiCond26) Function osal_ConvertUTCSecs
          CFI (cfiCond26) Conditional ??CrossCallReturnLabel_10
          CFI (cfiCond26) R6 load(1, XDATA, add(CFA_XSP16, literal(-16)))
          CFI (cfiCond26) VB load(1, XDATA, add(CFA_XSP16, literal(-15)))
          CFI (cfiCond26) V0 load(1, XDATA, add(CFA_XSP16, literal(-14)))
          CFI (cfiCond26) V1 load(1, XDATA, add(CFA_XSP16, literal(-13)))
          CFI (cfiCond26) V2 load(1, XDATA, add(CFA_XSP16, literal(-12)))
          CFI (cfiCond26) V3 load(1, XDATA, add(CFA_XSP16, literal(-11)))
          CFI (cfiCond26) V4 load(1, XDATA, add(CFA_XSP16, literal(-10)))
          CFI (cfiCond26) V5 load(1, XDATA, add(CFA_XSP16, literal(-9)))
          CFI (cfiCond26) V6 load(1, XDATA, add(CFA_XSP16, literal(-8)))
          CFI (cfiCond26) V7 load(1, XDATA, add(CFA_XSP16, literal(-7)))
          CFI (cfiCond26) R7 load(1, XDATA, add(CFA_XSP16, literal(-6)))
          CFI (cfiCond26) ?RET_LOW load(1, XDATA, add(CFA_XSP16, literal(-5)))
          CFI (cfiCond26) ?RET_HIGH load(1, XDATA, add(CFA_XSP16, literal(-4)))
          CFI (cfiCond26) ?BRET_EXT load(1, XDATA, add(CFA_XSP16, literal(-3)))
          CFI (cfiCond26) DPL0 load(1, XDATA, add(CFA_XSP16, literal(-2)))
          CFI (cfiCond26) DPH0 load(1, XDATA, add(CFA_XSP16, literal(-1)))
          CFI (cfiCond26) CFA_SP SP+-2
          CFI (cfiCond26) CFA_XSP16 add(XSP16, 19)
          CFI Block cfiPicker27 Using cfiCommon1
          CFI (cfiPicker27) NoFunction
          CFI (cfiPicker27) Picker
        LCALL   ?Subroutine9 & 0xFFFF
??CrossCallReturnLabel_13:
        RET
          CFI EndBlock cfiCond25
          CFI EndBlock cfiCond26
          CFI EndBlock cfiPicker27

        RSEG BANKED_CODE:CODE:NOROOT(0)
?Subroutine9:
          CFI Block cfiCond28 Using cfiCommon0
          CFI Function osal_ConvertUTCTime
          CFI Conditional ??CrossCallReturnLabel_13, ??CrossCallReturnLabel_9
          CFI R6 load(1, XDATA, add(CFA_XSP16, literal(-16)))
          CFI VB load(1, XDATA, add(CFA_XSP16, literal(-15)))
          CFI V0 load(1, XDATA, add(CFA_XSP16, literal(-14)))
          CFI V1 load(1, XDATA, add(CFA_XSP16, literal(-13)))
          CFI V2 load(1, XDATA, add(CFA_XSP16, literal(-12)))
          CFI V3 load(1, XDATA, add(CFA_XSP16, literal(-11)))
          CFI V4 load(1, XDATA, add(CFA_XSP16, literal(-10)))
          CFI V5 load(1, XDATA, add(CFA_XSP16, literal(-9)))
          CFI V6 load(1, XDATA, add(CFA_XSP16, literal(-8)))
          CFI V7 load(1, XDATA, add(CFA_XSP16, literal(-7)))
          CFI R7 load(1, XDATA, add(CFA_XSP16, literal(-6)))
          CFI ?RET_LOW load(1, XDATA, add(CFA_XSP16, literal(-5)))
          CFI ?RET_HIGH load(1, XDATA, add(CFA_XSP16, literal(-4)))
          CFI ?BRET_EXT load(1, XDATA, add(CFA_XSP16, literal(-3)))
          CFI DPL0 load(1, XDATA, add(CFA_XSP16, literal(-2)))
          CFI DPH0 load(1, XDATA, add(CFA_XSP16, literal(-1)))
          CFI CFA_SP SP+-4
          CFI CFA_XSP16 add(XSP16, 22)
          CFI Block cfiCond29 Using cfiCommon0
          CFI (cfiCond29) Function osal_ConvertUTCSecs
          CFI (cfiCond29) Conditional ??CrossCallReturnLabel_13, ??CrossCallReturnLabel_10
          CFI (cfiCond29) R6 load(1, XDATA, add(CFA_XSP16, literal(-16)))
          CFI (cfiCond29) VB load(1, XDATA, add(CFA_XSP16, literal(-15)))
          CFI (cfiCond29) V0 load(1, XDATA, add(CFA_XSP16, literal(-14)))
          CFI (cfiCond29) V1 load(1, XDATA, add(CFA_XSP16, literal(-13)))
          CFI (cfiCond29) V2 load(1, XDATA, add(CFA_XSP16, literal(-12)))
          CFI (cfiCond29) V3 load(1, XDATA, add(CFA_XSP16, literal(-11)))
          CFI (cfiCond29) V4 load(1, XDATA, add(CFA_XSP16, literal(-10)))
          CFI (cfiCond29) V5 load(1, XDATA, add(CFA_XSP16, literal(-9)))
          CFI (cfiCond29) V6 load(1, XDATA, add(CFA_XSP16, literal(-8)))
          CFI (cfiCond29) V7 load(1, XDATA, add(CFA_XSP16, literal(-7)))
          CFI (cfiCond29) R7 load(1, XDATA, add(CFA_XSP16, literal(-6)))
          CFI (cfiCond29) ?RET_LOW load(1, XDATA, add(CFA_XSP16, literal(-5)))
          CFI (cfiCond29) ?RET_HIGH load(1, XDATA, add(CFA_XSP16, literal(-4)))
          CFI (cfiCond29) ?BRET_EXT load(1, XDATA, add(CFA_XSP16, literal(-3)))
          CFI (cfiCond29) DPL0 load(1, XDATA, add(CFA_XSP16, literal(-2)))
          CFI (cfiCond29) DPH0 load(1, XDATA, add(CFA_XSP16, literal(-1)))
          CFI (cfiCond29) CFA_SP SP+-4
          CFI (cfiCond29) CFA_XSP16 add(XSP16, 19)
          CFI Block cfiCond30 Using cfiCommon0
          CFI (cfiCond30) Function osal_ConvertUTCTime
          CFI (cfiCond30) Conditional ??CrossCallReturnLabel_14, ??CrossCallReturnLabel_12, ??CrossCallReturnLabel_7
          CFI (cfiCond30) R6 load(1, XDATA, add(CFA_XSP16, literal(-16)))
          CFI (cfiCond30) VB load(1, XDATA, add(CFA_XSP16, literal(-15)))
          CFI (cfiCond30) V0 load(1, XDATA, add(CFA_XSP16, literal(-14)))
          CFI (cfiCond30) V1 load(1, XDATA, add(CFA_XSP16, literal(-13)))
          CFI (cfiCond30) V2 load(1, XDATA, add(CFA_XSP16, literal(-12)))
          CFI (cfiCond30) V3 load(1, XDATA, add(CFA_XSP16, literal(-11)))
          CFI (cfiCond30) V4 load(1, XDATA, add(CFA_XSP16, literal(-10)))
          CFI (cfiCond30) V5 load(1, XDATA, add(CFA_XSP16, literal(-9)))
          CFI (cfiCond30) V6 load(1, XDATA, add(CFA_XSP16, literal(-8)))
          CFI (cfiCond30) V7 load(1, XDATA, add(CFA_XSP16, literal(-7)))
          CFI (cfiCond30) R7 load(1, XDATA, add(CFA_XSP16, literal(-6)))
          CFI (cfiCond30) ?RET_LOW load(1, XDATA, add(CFA_XSP16, literal(-5)))
          CFI (cfiCond30) ?RET_HIGH load(1, XDATA, add(CFA_XSP16, literal(-4)))
          CFI (cfiCond30) ?BRET_EXT load(1, XDATA, add(CFA_XSP16, literal(-3)))
          CFI (cfiCond30) DPL0 load(1, XDATA, add(CFA_XSP16, literal(-2)))
          CFI (cfiCond30) DPH0 load(1, XDATA, add(CFA_XSP16, literal(-1)))
          CFI (cfiCond30) CFA_SP SP+-6
          CFI (cfiCond30) CFA_XSP16 add(XSP16, 22)
          CFI Block cfiCond31 Using cfiCommon0
          CFI (cfiCond31) Function osal_ConvertUTCSecs
          CFI (cfiCond31) Conditional ??CrossCallReturnLabel_14, ??CrossCallReturnLabel_12, ??CrossCallReturnLabel_8
          CFI (cfiCond31) R6 load(1, XDATA, add(CFA_XSP16, literal(-16)))
          CFI (cfiCond31) VB load(1, XDATA, add(CFA_XSP16, literal(-15)))
          CFI (cfiCond31) V0 load(1, XDATA, add(CFA_XSP16, literal(-14)))
          CFI (cfiCond31) V1 load(1, XDATA, add(CFA_XSP16, literal(-13)))
          CFI (cfiCond31) V2 load(1, XDATA, add(CFA_XSP16, literal(-12)))
          CFI (cfiCond31) V3 load(1, XDATA, add(CFA_XSP16, literal(-11)))
          CFI (cfiCond31) V4 load(1, XDATA, add(CFA_XSP16, literal(-10)))
          CFI (cfiCond31) V5 load(1, XDATA, add(CFA_XSP16, literal(-9)))
          CFI (cfiCond31) V6 load(1, XDATA, add(CFA_XSP16, literal(-8)))
          CFI (cfiCond31) V7 load(1, XDATA, add(CFA_XSP16, literal(-7)))
          CFI (cfiCond31) R7 load(1, XDATA, add(CFA_XSP16, literal(-6)))
          CFI (cfiCond31) ?RET_LOW load(1, XDATA, add(CFA_XSP16, literal(-5)))
          CFI (cfiCond31) ?RET_HIGH load(1, XDATA, add(CFA_XSP16, literal(-4)))
          CFI (cfiCond31) ?BRET_EXT load(1, XDATA, add(CFA_XSP16, literal(-3)))
          CFI (cfiCond31) DPL0 load(1, XDATA, add(CFA_XSP16, literal(-2)))
          CFI (cfiCond31) DPH0 load(1, XDATA, add(CFA_XSP16, literal(-1)))
          CFI (cfiCond31) CFA_SP SP+-6
          CFI (cfiCond31) CFA_XSP16 add(XSP16, 19)
          CFI Block cfiCond32 Using cfiCommon0
          CFI (cfiCond32) Function osal_ConvertUTCTime
          CFI (cfiCond32) Conditional ??CrossCallReturnLabel_14, ??CrossCallReturnLabel_11, ??CrossCallReturnLabel_0
          CFI (cfiCond32) R6 load(1, XDATA, add(CFA_XSP16, literal(-16)))
          CFI (cfiCond32) VB load(1, XDATA, add(CFA_XSP16, literal(-15)))
          CFI (cfiCond32) V0 load(1, XDATA, add(CFA_XSP16, literal(-14)))
          CFI (cfiCond32) V1 load(1, XDATA, add(CFA_XSP16, literal(-13)))
          CFI (cfiCond32) V2 load(1, XDATA, add(CFA_XSP16, literal(-12)))
          CFI (cfiCond32) V3 load(1, XDATA, add(CFA_XSP16, literal(-11)))
          CFI (cfiCond32) V4 load(1, XDATA, add(CFA_XSP16, literal(-10)))
          CFI (cfiCond32) V5 load(1, XDATA, add(CFA_XSP16, literal(-9)))
          CFI (cfiCond32) V6 load(1, XDATA, add(CFA_XSP16, literal(-8)))
          CFI (cfiCond32) V7 load(1, XDATA, add(CFA_XSP16, literal(-7)))
          CFI (cfiCond32) R7 load(1, XDATA, add(CFA_XSP16, literal(-6)))
          CFI (cfiCond32) ?RET_LOW load(1, XDATA, add(CFA_XSP16, literal(-5)))
          CFI (cfiCond32) ?RET_HIGH load(1, XDATA, add(CFA_XSP16, literal(-4)))
          CFI (cfiCond32) ?BRET_EXT load(1, XDATA, add(CFA_XSP16, literal(-3)))
          CFI (cfiCond32) DPL0 load(1, XDATA, add(CFA_XSP16, literal(-2)))
          CFI (cfiCond32) DPH0 load(1, XDATA, add(CFA_XSP16, literal(-1)))
          CFI (cfiCond32) CFA_SP SP+-6
          CFI (cfiCond32) CFA_XSP16 add(XSP16, 22)
          CFI Block cfiCond33 Using cfiCommon0
          CFI (cfiCond33) Function osal_ConvertUTCSecs
          CFI (cfiCond33) Conditional ??CrossCallReturnLabel_14, ??CrossCallReturnLabel_11, ??CrossCallReturnLabel_1
          CFI (cfiCond33) R6 load(1, XDATA, add(CFA_XSP16, literal(-16)))
          CFI (cfiCond33) VB load(1, XDATA, add(CFA_XSP16, literal(-15)))
          CFI (cfiCond33) V0 load(1, XDATA, add(CFA_XSP16, literal(-14)))
          CFI (cfiCond33) V1 load(1, XDATA, add(CFA_XSP16, literal(-13)))
          CFI (cfiCond33) V2 load(1, XDATA, add(CFA_XSP16, literal(-12)))
          CFI (cfiCond33) V3 load(1, XDATA, add(CFA_XSP16, literal(-11)))
          CFI (cfiCond33) V4 load(1, XDATA, add(CFA_XSP16, literal(-10)))
          CFI (cfiCond33) V5 load(1, XDATA, add(CFA_XSP16, literal(-9)))
          CFI (cfiCond33) V6 load(1, XDATA, add(CFA_XSP16, literal(-8)))
          CFI (cfiCond33) V7 load(1, XDATA, add(CFA_XSP16, literal(-7)))
          CFI (cfiCond33) R7 load(1, XDATA, add(CFA_XSP16, literal(-6)))
          CFI (cfiCond33) ?RET_LOW load(1, XDATA, add(CFA_XSP16, literal(-5)))
          CFI (cfiCond33) ?RET_HIGH load(1, XDATA, add(CFA_XSP16, literal(-4)))
          CFI (cfiCond33) ?BRET_EXT load(1, XDATA, add(CFA_XSP16, literal(-3)))
          CFI (cfiCond33) DPL0 load(1, XDATA, add(CFA_XSP16, literal(-2)))
          CFI (cfiCond33) DPH0 load(1, XDATA, add(CFA_XSP16, literal(-1)))
          CFI (cfiCond33) CFA_SP SP+-6
          CFI (cfiCond33) CFA_XSP16 add(XSP16, 19)
          CFI Block cfiCond34 Using cfiCommon0
          CFI (cfiCond34) Function osal_ConvertUTCSecs
          CFI (cfiCond34) Conditional ??CrossCallReturnLabel_14, ??CrossCallReturnLabel_11, ??CrossCallReturnLabel_2
          CFI (cfiCond34) R6 load(1, XDATA, add(CFA_XSP16, literal(-16)))
          CFI (cfiCond34) VB load(1, XDATA, add(CFA_XSP16, literal(-15)))
          CFI (cfiCond34) V0 load(1, XDATA, add(CFA_XSP16, literal(-14)))
          CFI (cfiCond34) V1 load(1, XDATA, add(CFA_XSP16, literal(-13)))
          CFI (cfiCond34) V2 load(1, XDATA, add(CFA_XSP16, literal(-12)))
          CFI (cfiCond34) V3 load(1, XDATA, add(CFA_XSP16, literal(-11)))
          CFI (cfiCond34) V4 load(1, XDATA, add(CFA_XSP16, literal(-10)))
          CFI (cfiCond34) V5 load(1, XDATA, add(CFA_XSP16, literal(-9)))
          CFI (cfiCond34) V6 load(1, XDATA, add(CFA_XSP16, literal(-8)))
          CFI (cfiCond34) V7 load(1, XDATA, add(CFA_XSP16, literal(-7)))
          CFI (cfiCond34) R7 load(1, XDATA, add(CFA_XSP16, literal(-6)))
          CFI (cfiCond34) ?RET_LOW load(1, XDATA, add(CFA_XSP16, literal(-5)))
          CFI (cfiCond34) ?RET_HIGH load(1, XDATA, add(CFA_XSP16, literal(-4)))
          CFI (cfiCond34) ?BRET_EXT load(1, XDATA, add(CFA_XSP16, literal(-3)))
          CFI (cfiCond34) DPL0 load(1, XDATA, add(CFA_XSP16, literal(-2)))
          CFI (cfiCond34) DPH0 load(1, XDATA, add(CFA_XSP16, literal(-1)))
          CFI (cfiCond34) CFA_SP SP+-6
          CFI (cfiCond34) CFA_XSP16 add(XSP16, 19)
          CFI Block cfiPicker35 Using cfiCommon1
          CFI (cfiPicker35) NoFunction
          CFI (cfiPicker35) Picker
        MOVX    A,@DPTR
        MOV     R0,A
        INC     DPTR
        MOVX    A,@DPTR
        MOV     DPH,A
        MOV     DPL,R0
        RET
          CFI EndBlock cfiCond28
          CFI EndBlock cfiCond29
          CFI EndBlock cfiCond30
          CFI EndBlock cfiCond31
          CFI EndBlock cfiCond32
          CFI EndBlock cfiCond33
          CFI EndBlock cfiCond34
          CFI EndBlock cfiPicker35

        RSEG BANKED_CODE:CODE:NOROOT(0)
?Subroutine6:
          CFI Block cfiCond36 Using cfiCommon0
          CFI Function osal_ConvertUTCTime
          CFI Conditional ??CrossCallReturnLabel_7
          CFI R6 load(1, XDATA, add(CFA_XSP16, literal(-16)))
          CFI VB load(1, XDATA, add(CFA_XSP16, literal(-15)))
          CFI V0 load(1, XDATA, add(CFA_XSP16, literal(-14)))
          CFI V1 load(1, XDATA, add(CFA_XSP16, literal(-13)))
          CFI V2 load(1, XDATA, add(CFA_XSP16, literal(-12)))
          CFI V3 load(1, XDATA, add(CFA_XSP16, literal(-11)))
          CFI V4 load(1, XDATA, add(CFA_XSP16, literal(-10)))
          CFI V5 load(1, XDATA, add(CFA_XSP16, literal(-9)))
          CFI V6 load(1, XDATA, add(CFA_XSP16, literal(-8)))
          CFI V7 load(1, XDATA, add(CFA_XSP16, literal(-7)))
          CFI R7 load(1, XDATA, add(CFA_XSP16, literal(-6)))
          CFI ?RET_LOW load(1, XDATA, add(CFA_XSP16, literal(-5)))
          CFI ?RET_HIGH load(1, XDATA, add(CFA_XSP16, literal(-4)))
          CFI ?BRET_EXT load(1, XDATA, add(CFA_XSP16, literal(-3)))
          CFI DPL0 load(1, XDATA, add(CFA_XSP16, literal(-2)))
          CFI DPH0 load(1, XDATA, add(CFA_XSP16, literal(-1)))
          CFI CFA_SP SP+-2
          CFI CFA_XSP16 add(XSP16, 22)
          CFI Block cfiCond37 Using cfiCommon0
          CFI (cfiCond37) Function osal_ConvertUTCSecs
          CFI (cfiCond37) Conditional ??CrossCallReturnLabel_8
          CFI (cfiCond37) R6 load(1, XDATA, add(CFA_XSP16, literal(-16)))
          CFI (cfiCond37) VB load(1, XDATA, add(CFA_XSP16, literal(-15)))
          CFI (cfiCond37) V0 load(1, XDATA, add(CFA_XSP16, literal(-14)))
          CFI (cfiCond37) V1 load(1, XDATA, add(CFA_XSP16, literal(-13)))
          CFI (cfiCond37) V2 load(1, XDATA, add(CFA_XSP16, literal(-12)))
          CFI (cfiCond37) V3 load(1, XDATA, add(CFA_XSP16, literal(-11)))
          CFI (cfiCond37) V4 load(1, XDATA, add(CFA_XSP16, literal(-10)))
          CFI (cfiCond37) V5 load(1, XDATA, add(CFA_XSP16, literal(-9)))
          CFI (cfiCond37) V6 load(1, XDATA, add(CFA_XSP16, literal(-8)))
          CFI (cfiCond37) V7 load(1, XDATA, add(CFA_XSP16, literal(-7)))
          CFI (cfiCond37) R7 load(1, XDATA, add(CFA_XSP16, literal(-6)))
          CFI (cfiCond37) ?RET_LOW load(1, XDATA, add(CFA_XSP16, literal(-5)))
          CFI (cfiCond37) ?RET_HIGH load(1, XDATA, add(CFA_XSP16, literal(-4)))
          CFI (cfiCond37) ?BRET_EXT load(1, XDATA, add(CFA_XSP16, literal(-3)))
          CFI (cfiCond37) DPL0 load(1, XDATA, add(CFA_XSP16, literal(-2)))
          CFI (cfiCond37) DPH0 load(1, XDATA, add(CFA_XSP16, literal(-1)))
          CFI (cfiCond37) CFA_SP SP+-2
          CFI (cfiCond37) CFA_XSP16 add(XSP16, 19)
          CFI Block cfiPicker38 Using cfiCommon1
          CFI (cfiPicker38) NoFunction
          CFI (cfiPicker38) Picker
        LCALL   ?Subroutine8 & 0xFFFF
??CrossCallReturnLabel_12:
        RET
          CFI EndBlock cfiCond36
          CFI EndBlock cfiCond37
          CFI EndBlock cfiPicker38

        RSEG BANKED_CODE:CODE:NOROOT(0)
?Subroutine8:
          CFI Block cfiCond39 Using cfiCommon0
          CFI Function osal_ConvertUTCTime
          CFI Conditional ??CrossCallReturnLabel_12, ??CrossCallReturnLabel_7
          CFI R6 load(1, XDATA, add(CFA_XSP16, literal(-16)))
          CFI VB load(1, XDATA, add(CFA_XSP16, literal(-15)))
          CFI V0 load(1, XDATA, add(CFA_XSP16, literal(-14)))
          CFI V1 load(1, XDATA, add(CFA_XSP16, literal(-13)))
          CFI V2 load(1, XDATA, add(CFA_XSP16, literal(-12)))
          CFI V3 load(1, XDATA, add(CFA_XSP16, literal(-11)))
          CFI V4 load(1, XDATA, add(CFA_XSP16, literal(-10)))
          CFI V5 load(1, XDATA, add(CFA_XSP16, literal(-9)))
          CFI V6 load(1, XDATA, add(CFA_XSP16, literal(-8)))
          CFI V7 load(1, XDATA, add(CFA_XSP16, literal(-7)))
          CFI R7 load(1, XDATA, add(CFA_XSP16, literal(-6)))
          CFI ?RET_LOW load(1, XDATA, add(CFA_XSP16, literal(-5)))
          CFI ?RET_HIGH load(1, XDATA, add(CFA_XSP16, literal(-4)))
          CFI ?BRET_EXT load(1, XDATA, add(CFA_XSP16, literal(-3)))
          CFI DPL0 load(1, XDATA, add(CFA_XSP16, literal(-2)))
          CFI DPH0 load(1, XDATA, add(CFA_XSP16, literal(-1)))
          CFI CFA_SP SP+-4
          CFI CFA_XSP16 add(XSP16, 22)
          CFI Block cfiCond40 Using cfiCommon0
          CFI (cfiCond40) Function osal_ConvertUTCSecs
          CFI (cfiCond40) Conditional ??CrossCallReturnLabel_12, ??CrossCallReturnLabel_8
          CFI (cfiCond40) R6 load(1, XDATA, add(CFA_XSP16, literal(-16)))
          CFI (cfiCond40) VB load(1, XDATA, add(CFA_XSP16, literal(-15)))
          CFI (cfiCond40) V0 load(1, XDATA, add(CFA_XSP16, literal(-14)))
          CFI (cfiCond40) V1 load(1, XDATA, add(CFA_XSP16, literal(-13)))
          CFI (cfiCond40) V2 load(1, XDATA, add(CFA_XSP16, literal(-12)))
          CFI (cfiCond40) V3 load(1, XDATA, add(CFA_XSP16, literal(-11)))
          CFI (cfiCond40) V4 load(1, XDATA, add(CFA_XSP16, literal(-10)))
          CFI (cfiCond40) V5 load(1, XDATA, add(CFA_XSP16, literal(-9)))
          CFI (cfiCond40) V6 load(1, XDATA, add(CFA_XSP16, literal(-8)))
          CFI (cfiCond40) V7 load(1, XDATA, add(CFA_XSP16, literal(-7)))
          CFI (cfiCond40) R7 load(1, XDATA, add(CFA_XSP16, literal(-6)))
          CFI (cfiCond40) ?RET_LOW load(1, XDATA, add(CFA_XSP16, literal(-5)))
          CFI (cfiCond40) ?RET_HIGH load(1, XDATA, add(CFA_XSP16, literal(-4)))
          CFI (cfiCond40) ?BRET_EXT load(1, XDATA, add(CFA_XSP16, literal(-3)))
          CFI (cfiCond40) DPL0 load(1, XDATA, add(CFA_XSP16, literal(-2)))
          CFI (cfiCond40) DPH0 load(1, XDATA, add(CFA_XSP16, literal(-1)))
          CFI (cfiCond40) CFA_SP SP+-4
          CFI (cfiCond40) CFA_XSP16 add(XSP16, 19)
          CFI Block cfiCond41 Using cfiCommon0
          CFI (cfiCond41) Function osal_ConvertUTCTime
          CFI (cfiCond41) Conditional ??CrossCallReturnLabel_11, ??CrossCallReturnLabel_0
          CFI (cfiCond41) R6 load(1, XDATA, add(CFA_XSP16, literal(-16)))
          CFI (cfiCond41) VB load(1, XDATA, add(CFA_XSP16, literal(-15)))
          CFI (cfiCond41) V0 load(1, XDATA, add(CFA_XSP16, literal(-14)))
          CFI (cfiCond41) V1 load(1, XDATA, add(CFA_XSP16, literal(-13)))
          CFI (cfiCond41) V2 load(1, XDATA, add(CFA_XSP16, literal(-12)))
          CFI (cfiCond41) V3 load(1, XDATA, add(CFA_XSP16, literal(-11)))
          CFI (cfiCond41) V4 load(1, XDATA, add(CFA_XSP16, literal(-10)))
          CFI (cfiCond41) V5 load(1, XDATA, add(CFA_XSP16, literal(-9)))
          CFI (cfiCond41) V6 load(1, XDATA, add(CFA_XSP16, literal(-8)))
          CFI (cfiCond41) V7 load(1, XDATA, add(CFA_XSP16, literal(-7)))
          CFI (cfiCond41) R7 load(1, XDATA, add(CFA_XSP16, literal(-6)))
          CFI (cfiCond41) ?RET_LOW load(1, XDATA, add(CFA_XSP16, literal(-5)))
          CFI (cfiCond41) ?RET_HIGH load(1, XDATA, add(CFA_XSP16, literal(-4)))
          CFI (cfiCond41) ?BRET_EXT load(1, XDATA, add(CFA_XSP16, literal(-3)))
          CFI (cfiCond41) DPL0 load(1, XDATA, add(CFA_XSP16, literal(-2)))
          CFI (cfiCond41) DPH0 load(1, XDATA, add(CFA_XSP16, literal(-1)))
          CFI (cfiCond41) CFA_SP SP+-4
          CFI (cfiCond41) CFA_XSP16 add(XSP16, 22)
          CFI Block cfiCond42 Using cfiCommon0
          CFI (cfiCond42) Function osal_ConvertUTCSecs
          CFI (cfiCond42) Conditional ??CrossCallReturnLabel_11, ??CrossCallReturnLabel_1
          CFI (cfiCond42) R6 load(1, XDATA, add(CFA_XSP16, literal(-16)))
          CFI (cfiCond42) VB load(1, XDATA, add(CFA_XSP16, literal(-15)))
          CFI (cfiCond42) V0 load(1, XDATA, add(CFA_XSP16, literal(-14)))
          CFI (cfiCond42) V1 load(1, XDATA, add(CFA_XSP16, literal(-13)))
          CFI (cfiCond42) V2 load(1, XDATA, add(CFA_XSP16, literal(-12)))
          CFI (cfiCond42) V3 load(1, XDATA, add(CFA_XSP16, literal(-11)))
          CFI (cfiCond42) V4 load(1, XDATA, add(CFA_XSP16, literal(-10)))
          CFI (cfiCond42) V5 load(1, XDATA, add(CFA_XSP16, literal(-9)))
          CFI (cfiCond42) V6 load(1, XDATA, add(CFA_XSP16, literal(-8)))
          CFI (cfiCond42) V7 load(1, XDATA, add(CFA_XSP16, literal(-7)))
          CFI (cfiCond42) R7 load(1, XDATA, add(CFA_XSP16, literal(-6)))
          CFI (cfiCond42) ?RET_LOW load(1, XDATA, add(CFA_XSP16, literal(-5)))
          CFI (cfiCond42) ?RET_HIGH load(1, XDATA, add(CFA_XSP16, literal(-4)))
          CFI (cfiCond42) ?BRET_EXT load(1, XDATA, add(CFA_XSP16, literal(-3)))
          CFI (cfiCond42) DPL0 load(1, XDATA, add(CFA_XSP16, literal(-2)))
          CFI (cfiCond42) DPH0 load(1, XDATA, add(CFA_XSP16, literal(-1)))
          CFI (cfiCond42) CFA_SP SP+-4
          CFI (cfiCond42) CFA_XSP16 add(XSP16, 19)
          CFI Block cfiCond43 Using cfiCommon0
          CFI (cfiCond43) Function osal_ConvertUTCSecs
          CFI (cfiCond43) Conditional ??CrossCallReturnLabel_11, ??CrossCallReturnLabel_2
          CFI (cfiCond43) R6 load(1, XDATA, add(CFA_XSP16, literal(-16)))
          CFI (cfiCond43) VB load(1, XDATA, add(CFA_XSP16, literal(-15)))
          CFI (cfiCond43) V0 load(1, XDATA, add(CFA_XSP16, literal(-14)))
          CFI (cfiCond43) V1 load(1, XDATA, add(CFA_XSP16, literal(-13)))
          CFI (cfiCond43) V2 load(1, XDATA, add(CFA_XSP16, literal(-12)))
          CFI (cfiCond43) V3 load(1, XDATA, add(CFA_XSP16, literal(-11)))
          CFI (cfiCond43) V4 load(1, XDATA, add(CFA_XSP16, literal(-10)))
          CFI (cfiCond43) V5 load(1, XDATA, add(CFA_XSP16, literal(-9)))
          CFI (cfiCond43) V6 load(1, XDATA, add(CFA_XSP16, literal(-8)))
          CFI (cfiCond43) V7 load(1, XDATA, add(CFA_XSP16, literal(-7)))
          CFI (cfiCond43) R7 load(1, XDATA, add(CFA_XSP16, literal(-6)))
          CFI (cfiCond43) ?RET_LOW load(1, XDATA, add(CFA_XSP16, literal(-5)))
          CFI (cfiCond43) ?RET_HIGH load(1, XDATA, add(CFA_XSP16, literal(-4)))
          CFI (cfiCond43) ?BRET_EXT load(1, XDATA, add(CFA_XSP16, literal(-3)))
          CFI (cfiCond43) DPL0 load(1, XDATA, add(CFA_XSP16, literal(-2)))
          CFI (cfiCond43) DPH0 load(1, XDATA, add(CFA_XSP16, literal(-1)))
          CFI (cfiCond43) CFA_SP SP+-4
          CFI (cfiCond43) CFA_XSP16 add(XSP16, 19)
          CFI Block cfiPicker44 Using cfiCommon1
          CFI (cfiPicker44) NoFunction
          CFI (cfiPicker44) Picker
        LCALL   ?Subroutine9 & 0xFFFF
??CrossCallReturnLabel_14:
        INC     DPTR
        RET
          CFI EndBlock cfiCond39
          CFI EndBlock cfiCond40
          CFI EndBlock cfiCond41
          CFI EndBlock cfiCond42
          CFI EndBlock cfiCond43
          CFI EndBlock cfiPicker44

        RSEG BANKED_CODE:CODE:NOROOT(0)
?Subroutine3:
          CFI Block cfiCond45 Using cfiCommon0
          CFI Function osal_ConvertUTCSecs
          CFI Conditional ??CrossCallReturnLabel_3
          CFI R6 load(1, XDATA, add(CFA_XSP16, literal(-16)))
          CFI VB load(1, XDATA, add(CFA_XSP16, literal(-15)))
          CFI V0 load(1, XDATA, add(CFA_XSP16, literal(-14)))
          CFI V1 load(1, XDATA, add(CFA_XSP16, literal(-13)))
          CFI V2 load(1, XDATA, add(CFA_XSP16, literal(-12)))
          CFI V3 load(1, XDATA, add(CFA_XSP16, literal(-11)))
          CFI V4 load(1, XDATA, add(CFA_XSP16, literal(-10)))
          CFI V5 load(1, XDATA, add(CFA_XSP16, literal(-9)))
          CFI V6 load(1, XDATA, add(CFA_XSP16, literal(-8)))
          CFI V7 load(1, XDATA, add(CFA_XSP16, literal(-7)))
          CFI R7 load(1, XDATA, add(CFA_XSP16, literal(-6)))
          CFI ?RET_LOW load(1, XDATA, add(CFA_XSP16, literal(-5)))
          CFI ?RET_HIGH load(1, XDATA, add(CFA_XSP16, literal(-4)))
          CFI ?BRET_EXT load(1, XDATA, add(CFA_XSP16, literal(-3)))
          CFI DPL0 load(1, XDATA, add(CFA_XSP16, literal(-2)))
          CFI DPH0 load(1, XDATA, add(CFA_XSP16, literal(-1)))
          CFI CFA_SP SP+-2
          CFI CFA_XSP16 add(XSP16, 19)
          CFI Block cfiCond46 Using cfiCommon0
          CFI (cfiCond46) Function osal_ConvertUTCSecs
          CFI (cfiCond46) Conditional ??CrossCallReturnLabel_4
          CFI (cfiCond46) R6 load(1, XDATA, add(CFA_XSP16, literal(-16)))
          CFI (cfiCond46) VB load(1, XDATA, add(CFA_XSP16, literal(-15)))
          CFI (cfiCond46) V0 load(1, XDATA, add(CFA_XSP16, literal(-14)))
          CFI (cfiCond46) V1 load(1, XDATA, add(CFA_XSP16, literal(-13)))
          CFI (cfiCond46) V2 load(1, XDATA, add(CFA_XSP16, literal(-12)))
          CFI (cfiCond46) V3 load(1, XDATA, add(CFA_XSP16, literal(-11)))
          CFI (cfiCond46) V4 load(1, XDATA, add(CFA_XSP16, literal(-10)))
          CFI (cfiCond46) V5 load(1, XDATA, add(CFA_XSP16, literal(-9)))
          CFI (cfiCond46) V6 load(1, XDATA, add(CFA_XSP16, literal(-8)))
          CFI (cfiCond46) V7 load(1, XDATA, add(CFA_XSP16, literal(-7)))
          CFI (cfiCond46) R7 load(1, XDATA, add(CFA_XSP16, literal(-6)))
          CFI (cfiCond46) ?RET_LOW load(1, XDATA, add(CFA_XSP16, literal(-5)))
          CFI (cfiCond46) ?RET_HIGH load(1, XDATA, add(CFA_XSP16, literal(-4)))
          CFI (cfiCond46) ?BRET_EXT load(1, XDATA, add(CFA_XSP16, literal(-3)))
          CFI (cfiCond46) DPL0 load(1, XDATA, add(CFA_XSP16, literal(-2)))
          CFI (cfiCond46) DPH0 load(1, XDATA, add(CFA_XSP16, literal(-1)))
          CFI (cfiCond46) CFA_SP SP+-2
          CFI (cfiCond46) CFA_XSP16 add(XSP16, 19)
          CFI Block cfiPicker47 Using cfiCommon1
          CFI (cfiPicker47) NoFunction
          CFI (cfiPicker47) Picker
        MOVX    A,@DPTR
        MOV     ?V4,A
        CLR     A
        MOV     ?V5,A
        MOV     ?V6,A
        MOV     ?V7,A
        MOV     R0,#?V0
        MOV     R1,#?V4
        RET
          CFI EndBlock cfiCond45
          CFI EndBlock cfiCond46
          CFI EndBlock cfiPicker47

        RSEG BANKED_CODE:CODE:NOROOT(0)
?Subroutine2:
          CFI Block cfiCond48 Using cfiCommon0
          CFI Function osal_ConvertUTCTime
          CFI Conditional ??CrossCallReturnLabel_0
          CFI R6 load(1, XDATA, add(CFA_XSP16, literal(-16)))
          CFI VB load(1, XDATA, add(CFA_XSP16, literal(-15)))
          CFI V0 load(1, XDATA, add(CFA_XSP16, literal(-14)))
          CFI V1 load(1, XDATA, add(CFA_XSP16, literal(-13)))
          CFI V2 load(1, XDATA, add(CFA_XSP16, literal(-12)))
          CFI V3 load(1, XDATA, add(CFA_XSP16, literal(-11)))
          CFI V4 load(1, XDATA, add(CFA_XSP16, literal(-10)))
          CFI V5 load(1, XDATA, add(CFA_XSP16, literal(-9)))
          CFI V6 load(1, XDATA, add(CFA_XSP16, literal(-8)))
          CFI V7 load(1, XDATA, add(CFA_XSP16, literal(-7)))
          CFI R7 load(1, XDATA, add(CFA_XSP16, literal(-6)))
          CFI ?RET_LOW load(1, XDATA, add(CFA_XSP16, literal(-5)))
          CFI ?RET_HIGH load(1, XDATA, add(CFA_XSP16, literal(-4)))
          CFI ?BRET_EXT load(1, XDATA, add(CFA_XSP16, literal(-3)))
          CFI DPL0 load(1, XDATA, add(CFA_XSP16, literal(-2)))
          CFI DPH0 load(1, XDATA, add(CFA_XSP16, literal(-1)))
          CFI CFA_SP SP+-2
          CFI CFA_XSP16 add(XSP16, 22)
          CFI Block cfiCond49 Using cfiCommon0
          CFI (cfiCond49) Function osal_ConvertUTCSecs
          CFI (cfiCond49) Conditional ??CrossCallReturnLabel_1
          CFI (cfiCond49) R6 load(1, XDATA, add(CFA_XSP16, literal(-16)))
          CFI (cfiCond49) VB load(1, XDATA, add(CFA_XSP16, literal(-15)))
          CFI (cfiCond49) V0 load(1, XDATA, add(CFA_XSP16, literal(-14)))
          CFI (cfiCond49) V1 load(1, XDATA, add(CFA_XSP16, literal(-13)))
          CFI (cfiCond49) V2 load(1, XDATA, add(CFA_XSP16, literal(-12)))
          CFI (cfiCond49) V3 load(1, XDATA, add(CFA_XSP16, literal(-11)))
          CFI (cfiCond49) V4 load(1, XDATA, add(CFA_XSP16, literal(-10)))
          CFI (cfiCond49) V5 load(1, XDATA, add(CFA_XSP16, literal(-9)))
          CFI (cfiCond49) V6 load(1, XDATA, add(CFA_XSP16, literal(-8)))
          CFI (cfiCond49) V7 load(1, XDATA, add(CFA_XSP16, literal(-7)))
          CFI (cfiCond49) R7 load(1, XDATA, add(CFA_XSP16, literal(-6)))
          CFI (cfiCond49) ?RET_LOW load(1, XDATA, add(CFA_XSP16, literal(-5)))
          CFI (cfiCond49) ?RET_HIGH load(1, XDATA, add(CFA_XSP16, literal(-4)))
          CFI (cfiCond49) ?BRET_EXT load(1, XDATA, add(CFA_XSP16, literal(-3)))
          CFI (cfiCond49) DPL0 load(1, XDATA, add(CFA_XSP16, literal(-2)))
          CFI (cfiCond49) DPH0 load(1, XDATA, add(CFA_XSP16, literal(-1)))
          CFI (cfiCond49) CFA_SP SP+-2
          CFI (cfiCond49) CFA_XSP16 add(XSP16, 19)
          CFI Block cfiCond50 Using cfiCommon0
          CFI (cfiCond50) Function osal_ConvertUTCSecs
          CFI (cfiCond50) Conditional ??CrossCallReturnLabel_2
          CFI (cfiCond50) R6 load(1, XDATA, add(CFA_XSP16, literal(-16)))
          CFI (cfiCond50) VB load(1, XDATA, add(CFA_XSP16, literal(-15)))
          CFI (cfiCond50) V0 load(1, XDATA, add(CFA_XSP16, literal(-14)))
          CFI (cfiCond50) V1 load(1, XDATA, add(CFA_XSP16, literal(-13)))
          CFI (cfiCond50) V2 load(1, XDATA, add(CFA_XSP16, literal(-12)))
          CFI (cfiCond50) V3 load(1, XDATA, add(CFA_XSP16, literal(-11)))
          CFI (cfiCond50) V4 load(1, XDATA, add(CFA_XSP16, literal(-10)))
          CFI (cfiCond50) V5 load(1, XDATA, add(CFA_XSP16, literal(-9)))
          CFI (cfiCond50) V6 load(1, XDATA, add(CFA_XSP16, literal(-8)))
          CFI (cfiCond50) V7 load(1, XDATA, add(CFA_XSP16, literal(-7)))
          CFI (cfiCond50) R7 load(1, XDATA, add(CFA_XSP16, literal(-6)))
          CFI (cfiCond50) ?RET_LOW load(1, XDATA, add(CFA_XSP16, literal(-5)))
          CFI (cfiCond50) ?RET_HIGH load(1, XDATA, add(CFA_XSP16, literal(-4)))
          CFI (cfiCond50) ?BRET_EXT load(1, XDATA, add(CFA_XSP16, literal(-3)))
          CFI (cfiCond50) DPL0 load(1, XDATA, add(CFA_XSP16, literal(-2)))
          CFI (cfiCond50) DPH0 load(1, XDATA, add(CFA_XSP16, literal(-1)))
          CFI (cfiCond50) CFA_SP SP+-2
          CFI (cfiCond50) CFA_XSP16 add(XSP16, 19)
          CFI Block cfiPicker51 Using cfiCommon1
          CFI (cfiPicker51) NoFunction
          CFI (cfiPicker51) Picker
        LCALL   ?Subroutine8 & 0xFFFF
??CrossCallReturnLabel_11:
        INC     DPTR
        INC     DPTR
        RET
          CFI EndBlock cfiCond48
          CFI EndBlock cfiCond49
          CFI EndBlock cfiCond50
          CFI EndBlock cfiPicker51

        RSEG XDATA_ROM_C:CONST:REORDER:NOROOT(0)
        DATA32
__Constant_15180:
        DD 86400

        RSEG XDATA_ROM_C:CONST:REORDER:NOROOT(0)
        DATA32
__Constant_3c:
        DD 60

        RSEG XDATA_ROM_C:CONST:REORDER:NOROOT(0)
        DATA32
__Constant_e10:
        DD 3600

        RSEG BANK_RELAYS:CODE:REORDER:NOROOT(0)
??osalTimeUpdate?relay:
        CODE
        LCALL   ?BDISPATCH
        DATA24
        DC24    osalTimeUpdate

        RSEG BANK_RELAYS:CODE:REORDER:NOROOT(0)
??osal_setClock?relay:
        CODE
        LCALL   ?BDISPATCH
        DATA24
        DC24    osal_setClock

        RSEG BANK_RELAYS:CODE:REORDER:NOROOT(0)
??osal_getClock?relay:
        CODE
        LCALL   ?BDISPATCH
        DATA24
        DC24    osal_getClock

        RSEG BANK_RELAYS:CODE:REORDER:NOROOT(0)
??osal_ConvertUTCTime?relay:
        CODE
        LCALL   ?BDISPATCH
        DATA24
        DC24    osal_ConvertUTCTime

        RSEG BANK_RELAYS:CODE:REORDER:NOROOT(0)
??monthLength?relay:
        CODE
        LCALL   ?BDISPATCH
        DATA24
        DC24    monthLength

        RSEG BANK_RELAYS:CODE:REORDER:NOROOT(0)
??osal_ConvertUTCSecs?relay:
        CODE
        LCALL   ?BDISPATCH
        DATA24
        DC24    osal_ConvertUTCSecs

        END
// 
// 1 299 bytes in segment BANKED_CODE
//    36 bytes in segment BANK_RELAYS
//    12 bytes in segment XDATA_ROM_C
//    10 bytes in segment XDATA_Z
// 
// 1 335 bytes of CODE  memory
//     0 bytes of CONST memory (+ 12 bytes shared)
//    10 bytes of XDATA memory
//
//Errors: none
//Warnings: none
