###############################################################################
#                                                                             #
# IAR C/C++ Compiler V8.30.1.41636 for 8051             02/Jun/2014  17:47:53 #
# Copyright 2004-2013 IAR Systems AB.                                         #
#                                                                             #
#    Core               =  plain                                              #
#    Code model         =  banked                                             #
#    Data model         =  large                                              #
#    Calling convention =  xdata reentrant                                    #
#    Constant location  =  data_rom                                           #
#    Dptr setup         =  1,16                                               #
#                                                                             #
#    Source file        =  c:\Users\Administrator\Documents\Dropbox\Fish      #
#                          Brain\HM-10 Hack\HM-10 Firmware\Components\osal\co #
#                          mmon\OSAL_ClockBLE.c                               #
#    Command line       =  -f "c:\Users\Administrator\Documents\Dropbox\Fish  #
#                          Brain\HM-10 Hack\HM-10 Firmware\Projects\ble\HostT #
#                          estApp\CC2540\..\..\config\buildComponents.cfg"    #
#                          (-DBROADCASTER_CFG=0x01 -DOBSERVER_CFG=0x02        #
#                          -DPERIPHERAL_CFG=0x04 -DCENTRAL_CFG=0x08           #
#                          -DADV_NCONN_CFG=0x01 -DADV_CONN_CFG=0x02           #
#                          -DSCAN_CFG=0x04 -DINIT_CFG=0x08                    #
#                          -DADV_CFG=ADV_NCONN_CFG+ADV_CONN_CFG               #
#                          -DLINK_CFG=ADV_CONN_CFG+INIT_CFG                   #
#                          -DFULL_CFG=INIT_CFG+SCAN_CFG+ADV_NCONN_CFG+ADV_CON #
#                          N_CFG) -f "c:\Users\Administrator\Documents\Dropbo #
#                          x\Fish Brain\HM-10 Hack\HM-10                      #
#                          Firmware\Projects\ble\HostTestApp\CC2540\buildConf #
#                          ig.cfg" (-DHOST_CONFIG=PERIPHERAL_CFG+CENTRAL_CFG  #
#                          -DGAP_PRIVACY_RECONNECT)                           #
#                          "c:\Users\Administrator\Documents\Dropbox\Fish     #
#                          Brain\HM-10 Hack\HM-10 Firmware\Components\osal\co #
#                          mmon\OSAL_ClockBLE.c" -D INT_HEAP_LEN=2700 -D      #
#                          HALNODEBUG -D OSAL_CBTIMER_NUM_TASKS=1 -D          #
#                          POWER_SAVING -D HAL_AES_DMA=TRUE -D HAL_DMA=TRUE   #
#                          -D HAL_UART=TRUE -D HAL_UART_DMA=0 -D              #
#                          HAL_UART_ISR=0 -D HAL_UART_SPI=2 -D                #
#                          HAL_SPI_QUEUED_TX=TRUE -D HAL_KEY=FALSE -D         #
#                          HAL_LCD=FALSE -D HAL_LED=FALSE -D                  #
#                          GATT_DB_OFF_CHIP -D GAP_BOND_MGR -lCN              #
#                          "c:\Users\Administrator\Documents\Dropbox\Fish     #
#                          Brain\HM-10 Hack\HM-10 Firmware\Projects\ble\HostT #
#                          estApp\CC2540\CC2540SPI\List\" -lA                 #
#                          "c:\Users\Administrator\Documents\Dropbox\Fish     #
#                          Brain\HM-10 Hack\HM-10 Firmware\Projects\ble\HostT #
#                          estApp\CC2540\CC2540SPI\List\" -o                  #
#                          "c:\Users\Administrator\Documents\Dropbox\Fish     #
#                          Brain\HM-10 Hack\HM-10 Firmware\Projects\ble\HostT #
#                          estApp\CC2540\CC2540SPI\Obj\" -e --debug           #
#                          --core=plain --dptr=16,1 --data_model=large        #
#                          --code_model=banked --calling_convention=xdata_ree #
#                          ntrant --place_constants=data_rom                  #
#                          --nr_virtual_regs 8 -I "c:\Users\Administrator\Doc #
#                          uments\Dropbox\Fish Brain\HM-10 Hack\HM-10         #
#                          Firmware\Projects\ble\HostTestApp\CC2540\..\..\com #
#                          mon\" -I "c:\Users\Administrator\Documents\Dropbox #
#                          \Fish Brain\HM-10 Hack\HM-10                       #
#                          Firmware\Projects\ble\HostTestApp\CC2540\..\..\..\ #
#                          ..\Components\hal\include\" -I                     #
#                          "c:\Users\Administrator\Documents\Dropbox\Fish     #
#                          Brain\HM-10 Hack\HM-10 Firmware\Projects\ble\HostT #
#                          estApp\CC2540\..\..\..\..\Components\hal\target\CC #
#                          2540EB\" -I "c:\Users\Administrator\Documents\Drop #
#                          box\Fish Brain\HM-10 Hack\HM-10                    #
#                          Firmware\Projects\ble\HostTestApp\CC2540\..\..\..\ #
#                          ..\Components\osal\include\" -I                    #
#                          "c:\Users\Administrator\Documents\Dropbox\Fish     #
#                          Brain\HM-10 Hack\HM-10 Firmware\Projects\ble\HostT #
#                          estApp\CC2540\..\..\..\..\Components\services\sadd #
#                          r\" -I "c:\Users\Administrator\Documents\Dropbox\F #
#                          ish Brain\HM-10 Hack\HM-10                         #
#                          Firmware\Projects\ble\HostTestApp\CC2540\..\..\..\ #
#                          ..\Components\ble\include\" -I                     #
#                          "c:\Users\Administrator\Documents\Dropbox\Fish     #
#                          Brain\HM-10 Hack\HM-10 Firmware\Projects\ble\HostT #
#                          estApp\CC2540\..\..\..\..\Components\ble\controlle #
#                          r\phy\" -I "c:\Users\Administrator\Documents\Dropb #
#                          ox\Fish Brain\HM-10 Hack\HM-10                     #
#                          Firmware\Projects\ble\HostTestApp\CC2540\..\..\..\ #
#                          ..\Components\ble\controller\include\" -I          #
#                          "c:\Users\Administrator\Documents\Dropbox\Fish     #
#                          Brain\HM-10 Hack\HM-10 Firmware\Projects\ble\HostT #
#                          estApp\CC2540\..\..\..\..\Components\ble\hci\" -I  #
#                          "c:\Users\Administrator\Documents\Dropbox\Fish     #
#                          Brain\HM-10 Hack\HM-10 Firmware\Projects\ble\HostT #
#                          estApp\CC2540\..\..\..\..\Components\ble\host\"    #
#                          -I "c:\Users\Administrator\Documents\Dropbox\Fish  #
#                          Brain\HM-10 Hack\HM-10 Firmware\Projects\ble\HostT #
#                          estApp\CC2540\..\..\common\cc2540\" -I             #
#                          "c:\Users\Administrator\Documents\Dropbox\Fish     #
#                          Brain\HM-10 Hack\HM-10 Firmware\Projects\ble\HostT #
#                          estApp\CC2540\..\..\common\npi\npi_np\" -I         #
#                          "c:\Users\Administrator\Documents\Dropbox\Fish     #
#                          Brain\HM-10 Hack\HM-10 Firmware\Projects\ble\HostT #
#                          estApp\CC2540\..\..\Include\" -I                   #
#                          "c:\Users\Administrator\Documents\Dropbox\Fish     #
#                          Brain\HM-10 Hack\HM-10 Firmware\Projects\ble\HostT #
#                          estApp\CC2540\..\..\Profiles\Roles\" -I            #
#                          "c:\Users\Administrator\Documents\Dropbox\Fish     #
#                          Brain\HM-10 Hack\HM-10 Firmware\Projects\ble\HostT #
#                          estApp\CC2540\..\source\" -Ohz                     #
#    List file          =  c:\Users\Administrator\Documents\Dropbox\Fish      #
#                          Brain\HM-10 Hack\HM-10 Firmware\Projects\ble\HostT #
#                          estApp\CC2540\CC2540SPI\List\OSAL_ClockBLE.lst     #
#    Object file        =  c:\Users\Administrator\Documents\Dropbox\Fish      #
#                          Brain\HM-10 Hack\HM-10 Firmware\Projects\ble\HostT #
#                          estApp\CC2540\CC2540SPI\Obj\OSAL_ClockBLE.r51      #
#                                                                             #
#                                                                             #
###############################################################################

c:\Users\Administrator\Documents\Dropbox\Fish Brain\HM-10 Hack\HM-10 Firmware\Components\osal\common\OSAL_ClockBLE.c
      1          /**************************************************************************************************
      2            Filename:       OSAL_ClockBLE.c
      3            Revised:        $Date: 2008-12-15 15:42:47 -0800 (Mon, 15 Dec 2008) $
      4            Revision:       $Revision: 18616 $
      5          
      6            Description:    OSAL Clock definition and manipulation functions for BLE projects.
      7          
      8            Copyright 2008-2011 Texas Instruments Incorporated. All rights reserved.
      9          
     10            IMPORTANT: Your use of this Software is limited to those specific rights
     11            granted under the terms of a software license agreement between the user
     12            who downloaded the software, his/her employer (which must be your employer)
     13            and Texas Instruments Incorporated (the "License"). You may not use this
     14            Software unless you agree to abide by the terms of the License. The License
     15            limits your use, and you acknowledge, that the Software may not be modified,
     16            copied or distributed unless embedded on a Texas Instruments microcontroller
     17            or used solely and exclusively in conjunction with a Texas Instruments radio
     18            frequency transceiver, which is integrated into your product. Other than for
     19            the foregoing purpose, you may not use, reproduce, copy, prepare derivative
     20            works of, modify, distribute, perform, display or sell this Software and/or
     21            its documentation for any purpose.
     22          
     23            YOU FURTHER ACKNOWLEDGE AND AGREE THAT THE SOFTWARE AND DOCUMENTATION ARE
     24            PROVIDED “AS IS” WITHOUT WARRANTY OF ANY KIND, EITHER EXPRESS OR IMPLIED,
     25            INCLUDING WITHOUT LIMITATION, ANY WARRANTY OF MERCHANTABILITY, TITLE,
     26            NON-INFRINGEMENT AND FITNESS FOR A PARTICULAR PURPOSE. IN NO EVENT SHALL
     27            TEXAS INSTRUMENTS OR ITS LICENSORS BE LIABLE OR OBLIGATED UNDER CONTRACT,
     28            NEGLIGENCE, STRICT LIABILITY, CONTRIBUTION, BREACH OF WARRANTY, OR OTHER
     29            LEGAL EQUITABLE THEORY ANY DIRECT OR INDIRECT DAMAGES OR EXPENSES
     30            INCLUDING BUT NOT LIMITED TO ANY INCIDENTAL, SPECIAL, INDIRECT, PUNITIVE
     31            OR CONSEQUENTIAL DAMAGES, LOST PROFITS OR LOST DATA, COST OF PROCUREMENT
     32            OF SUBSTITUTE GOODS, TECHNOLOGY, SERVICES, OR ANY CLAIMS BY THIRD PARTIES
     33            (INCLUDING BUT NOT LIMITED TO ANY DEFENSE THEREOF), OR OTHER SIMILAR COSTS.
     34          
     35            Should you have any questions regarding your right to use this Software,
     36            contact Texas Instruments Incorporated at www.TI.com.
     37          **************************************************************************************************/
     38          
     39          /*********************************************************************
     40           * INCLUDES
     41           */
     42          
     43          #include "comdef.h"
     44          #include "OnBoard.h"
     45          #include "OSAL.h"
     46          #include "OSAL_Clock.h"
     47          
     48          /*********************************************************************
     49           * MACROS
     50           */
     51          
     52          #define	YearLength(yr)	(IsLeapYear(yr) ? 366 : 365)
     53          
     54          /*********************************************************************
     55           * CONSTANTS
     56           */
     57          
     58          // (MAXCALCTICKS * 5) + (max remainder) must be <= (uint16 max),
     59          // so: (13105 * 5) + 7 <= 65535
     60          #define MAXCALCTICKS  ((uint16)(13105))
     61          
     62          #define	BEGYEAR	        2000     // UTC started at 00:00:00 January 1, 2000
     63          
     64          #define	DAY             86400UL  // 24 hours * 60 minutes * 60 seconds
     65          
     66          /*********************************************************************
     67           * TYPEDEFS
     68           */
     69          
     70          /*********************************************************************
     71           * GLOBAL VARIABLES
     72           */
     73          
     74          /*********************************************************************
     75           * EXTERNAL VARIABLES
     76           */
     77          
     78          /*********************************************************************
     79           * EXTERNAL FUNCTIONS
     80           */
     81          extern uint16 ll_McuPrecisionCount(void);
     82          
     83          /*********************************************************************
     84           * LOCAL VARIABLES
     85           */

   \                                 In  segment XDATA_Z, align 1, keep-with-next
     86          static uint16 previousLLTimerTick = 0;
   \                     previousLLTimerTick:
   \   000000                DS 2
   \   000002                REQUIRE __INIT_XDATA_Z

   \                                 In  segment XDATA_Z, align 1, keep-with-next
     87          static uint16 remUsTicks = 0;
   \                     remUsTicks:
   \   000000                DS 2
   \   000002                REQUIRE __INIT_XDATA_Z

   \                                 In  segment XDATA_Z, align 1, keep-with-next
     88          static uint16 timeMSec = 0;
   \                     timeMSec:
   \   000000                DS 2
   \   000002                REQUIRE __INIT_XDATA_Z
     89          
     90          // number of seconds since 0 hrs, 0 minutes, 0 seconds, on the
     91          // 1st of January 2000 UTC

   \                                 In  segment XDATA_Z, align 1, keep-with-next
     92          UTCTime OSAL_timeSeconds = 0;
   \                     OSAL_timeSeconds:
   \   000000                DS 4
   \   000004                REQUIRE __INIT_XDATA_Z
     93          
     94          /*********************************************************************
     95           * LOCAL FUNCTION PROTOTYPES
     96           */
     97          static uint8 monthLength( uint8 lpyr, uint8 mon );
     98          
     99          static void osalClockUpdate( uint16 elapsedMSec );
    100          
    101          /*********************************************************************
    102           * FUNCTIONS
    103           *********************************************************************/
    104          
    105          /*********************************************************************
    106           * @fn      osalTimeUpdate
    107           *
    108           * @brief   Uses the free running rollover count of the MAC backoff timer;
    109           *          this timer runs freely with a constant 320 usec interval.  The
    110           *          count of 320-usec ticks is converted to msecs and used to update
    111           *          the OSAL clock and Timers by invoking osalClockUpdate() and
    112           *          osalTimerUpdate().  This function is intended to be invoked
    113           *          from the background, not interrupt level.
    114           *
    115           * @param   None.
    116           *
    117           * @return  None.
    118           */

   \                                 In  segment BANKED_CODE, align 1, keep-with-next
    119          void osalTimeUpdate( void )
   \                     osalTimeUpdate:
    120          {
   \   000000                REQUIRE ?V0
   \   000000                REQUIRE ?V1
   \   000000                REQUIRE ?V2
   \   000000                REQUIRE ?V3
   \   000000                REQUIRE ?V4
   \   000000                REQUIRE ?V5
   \   000000                REQUIRE ?V6
   \   000000                REQUIRE ?V7
   \   000000   74F0         MOV     A,#-0x10
   \   000002   12....       LCALL   ?BANKED_ENTER_XDATA
   \   000005                ; Saved register size: 16
   \   000005                ; Auto size: 0
    121            uint16 tmp;
    122            uint16 ticks625us;
    123            uint16 elapsedMSec = 0;
   \   000005   75..00       MOV     ?V0,#0x0
   \   000008   75..00       MOV     ?V1,#0x0
    124          
    125            // Get the free-running count of 625us timer ticks
    126            tmp = ll_McuPrecisionCount();
   \   00000B                ; Setup parameters for call to function ll_McuPrecisionCount
   \   00000B   12....       LCALL   ??ll_McuPrecisionCount?relay; Banked call to: ll_McuPrecisionCount
    127          
    128            if ( tmp != previousLLTimerTick )
   \   00000E   90....       MOV     DPTR,#previousLLTimerTick
   \   000011   E0           MOVX    A,@DPTR
   \   000012   6A           XRL     A,R2
   \   000013   7003         JNZ     ??osalTimeUpdate_0
   \   000015   A3           INC     DPTR
   \   000016   E0           MOVX    A,@DPTR
   \   000017   6B           XRL     A,R3
   \                     ??osalTimeUpdate_0:
   \   000018   7003         JNZ     $+5
   \   00001A   02....       LJMP    ??osalTimeUpdate_1 & 0xFFFF
    129            {
    130              // Calculate the elapsed ticks of the free-running timer.
    131              ticks625us = tmp - previousLLTimerTick;
   \   00001D   90....       MOV     DPTR,#previousLLTimerTick
   \   000020   E0           MOVX    A,@DPTR
   \   000021   F8           MOV     R0,A
   \   000022   A3           INC     DPTR
   \   000023   E0           MOVX    A,@DPTR
   \   000024   F9           MOV     R1,A
   \   000025   EA           MOV     A,R2
   \   000026   C3           CLR     C
   \   000027   98           SUBB    A,R0
   \   000028   F8           MOV     R0,A
   \   000029   EB           MOV     A,R3
   \   00002A   99           SUBB    A,R1
   \   00002B   F9           MOV     R1,A
    132          
    133              // Store the LL Timer tick count for the next time through this function.
    134              previousLLTimerTick = tmp;
   \   00002C   90....       MOV     DPTR,#previousLLTimerTick
   \   00002F   EA           MOV     A,R2
   \   000030   F0           MOVX    @DPTR,A
   \   000031   A3           INC     DPTR
   \   000032   EB           MOV     A,R3
   \   000033   801E         SJMP    ??osalTimeUpdate_2
    135          
    136              /* It is necessary to loop to convert the usecs to msecs in increments so as
    137               * not to overflow the 16-bit variables.
    138               */
    139              while ( ticks625us > MAXCALCTICKS )
    140              {
    141                ticks625us -= MAXCALCTICKS;
   \                     ??osalTimeUpdate_3:
   \   000035   24CF         ADD     A,#-0x31
   \   000037   F8           MOV     R0,A
   \   000038   E9           MOV     A,R1
   \   000039   34CC         ADDC    A,#-0x34
   \   00003B   F9           MOV     R1,A
    142                elapsedMSec += MAXCALCTICKS * 5 / 8;
   \   00003C   E5..         MOV     A,?V0
   \   00003E   24FE         ADD     A,#-0x2
   \   000040   F5..         MOV     ?V0,A
   \   000042   E5..         MOV     A,?V1
   \   000044   341F         ADDC    A,#0x1f
   \   000046   F5..         MOV     ?V1,A
    143                remUsTicks += MAXCALCTICKS * 5 % 8;
   \   000048   90....       MOV     DPTR,#remUsTicks
   \   00004B   E0           MOVX    A,@DPTR
   \   00004C   2405         ADD     A,#0x5
   \   00004E   F0           MOVX    @DPTR,A
   \   00004F   A3           INC     DPTR
   \   000050   E0           MOVX    A,@DPTR
   \   000051   3400         ADDC    A,#0x0
   \                     ??osalTimeUpdate_2:
   \   000053   F0           MOVX    @DPTR,A
    144              }
   \   000054   C3           CLR     C
   \   000055   E8           MOV     A,R0
   \   000056   9432         SUBB    A,#0x32
   \   000058   E9           MOV     A,R1
   \   000059   9433         SUBB    A,#0x33
   \   00005B   E8           MOV     A,R0
   \   00005C   50D7         JNC     ??osalTimeUpdate_3
    145          
    146              // update converted number with remaining ticks from loop and the
    147              // accumulated remainder from loop
    148              tmp = (ticks625us * 5) + remUsTicks;
   \   00005E   75F005       MOV     B,#0x5
   \   000061   A4           MUL     AB
   \   000062   F8           MOV     R0,A
   \   000063   AAF0         MOV     R2,B
   \   000065   75F005       MOV     B,#0x5
   \   000068   E9           MOV     A,R1
   \   000069   A4           MUL     AB
   \   00006A   2A           ADD     A,R2
   \   00006B   F9           MOV     R1,A
   \   00006C   90....       MOV     DPTR,#remUsTicks
   \   00006F   E0           MOVX    A,@DPTR
   \   000070   28           ADD     A,R0
   \   000071   FA           MOV     R2,A
   \   000072   A3           INC     DPTR
   \   000073   E0           MOVX    A,@DPTR
   \   000074   39           ADDC    A,R1
   \   000075   FB           MOV     R3,A
    149          
    150              // Convert the 625 us ticks into milliseconds and a remainder
    151              elapsedMSec += tmp / 8;
   \   000076   8A..         MOV     ?V2,R2
   \   000078   8B..         MOV     ?V3,R3
   \   00007A   7403         MOV     A,#0x3
   \   00007C   78..         MOV     R0,#?V2
   \   00007E   12....       LCALL   ?US_SHR
   \   000081   E5..         MOV     A,?V0
   \   000083   25..         ADD     A,?V2
   \   000085   F5..         MOV     ?V0,A
   \   000087   E5..         MOV     A,?V1
   \   000089   35..         ADDC    A,?V3
   \   00008B   F5..         MOV     ?V1,A
    152              remUsTicks = tmp % 8;
   \   00008D   EA           MOV     A,R2
   \   00008E   5407         ANL     A,#0x7
   \   000090   90....       MOV     DPTR,#remUsTicks
   \   000093   F0           MOVX    @DPTR,A
   \   000094   A3           INC     DPTR
   \   000095   E4           CLR     A
   \   000096   F0           MOVX    @DPTR,A
    153          
    154              // Update OSAL Clock and Timers
    155              if ( elapsedMSec )
   \   000097   E5..         MOV     A,?V0
   \   000099   45..         ORL     A,?V1
   \   00009B   6048         JZ      ??osalTimeUpdate_1
    156              {
    157                osalClockUpdate( elapsedMSec );
   \   00009D   90....       MOV     DPTR,#timeMSec
   \   0000A0   E0           MOVX    A,@DPTR
   \   0000A1   25..         ADD     A,?V0
   \   0000A3   F0           MOVX    @DPTR,A
   \   0000A4   A3           INC     DPTR
   \   0000A5   E0           MOVX    A,@DPTR
   \   0000A6   35..         ADDC    A,?V1
   \   0000A8   F0           MOVX    @DPTR,A
   \   0000A9   90....       MOV     DPTR,#timeMSec
   \   0000AC   C3           CLR     C
   \   0000AD   E0           MOVX    A,@DPTR
   \   0000AE   94E8         SUBB    A,#-0x18
   \   0000B0   A3           INC     DPTR
   \   0000B1   E0           MOVX    A,@DPTR
   \   0000B2   9403         SUBB    A,#0x3
   \   0000B4   4025         JC      ??osalTimeUpdate_4
   \   0000B6   12....       LCALL   ?Subroutine5 & 0xFFFF
   \                     ??CrossCallReturnLabel_5:
   \   0000B9   12....       LCALL   ?US_DIV_MOD
   \   0000BC   88..         MOV     ?V4,R0
   \   0000BE   89..         MOV     ?V5,R1
   \   0000C0   E4           CLR     A
   \   0000C1   F5..         MOV     ?V6,A
   \   0000C3   F5..         MOV     ?V7,A
   \   0000C5   90....       MOV     DPTR,#OSAL_timeSeconds
   \   0000C8   78..         MOV     R0,#?V4
   \   0000CA   12....       LCALL   ?L_ADD_TO_X
   \   0000CD   12....       LCALL   ?Subroutine5 & 0xFFFF
   \                     ??CrossCallReturnLabel_6:
   \   0000D0   12....       LCALL   ?US_DIV_MOD
   \   0000D3   90....       MOV     DPTR,#timeMSec
   \   0000D6   EA           MOV     A,R2
   \   0000D7   F0           MOVX    @DPTR,A
   \   0000D8   A3           INC     DPTR
   \   0000D9   EB           MOV     A,R3
   \   0000DA   F0           MOVX    @DPTR,A
    158                osalTimerUpdate( elapsedMSec );
   \                     ??osalTimeUpdate_4:
   \   0000DB                ; Setup parameters for call to function osalTimerUpdate
   \   0000DB   AA..         MOV     R2,?V0
   \   0000DD   AB..         MOV     R3,?V1
   \   0000DF   E4           CLR     A
   \   0000E0   FC           MOV     R4,A
   \   0000E1   FD           MOV     R5,A
   \   0000E2   12....       LCALL   ??osalTimerUpdate?relay; Banked call to: osalTimerUpdate
    159              }
    160            }
    161          }
   \                     ??osalTimeUpdate_1:
   \   0000E5   02....       LJMP    ??Subroutine10_0 & 0xFFFF

   \                                 In  segment BANKED_CODE, align 1, keep-with-next
   \                     ??Subroutine10_0:
   \   000000   7F08         MOV     R7,#0x8
   \   000002   02....       LJMP    ?BANKED_LEAVE_XDATA
    162          
    163          /*********************************************************************
    164           * @fn      osalClockUpdate
    165           *
    166           * @brief   Updates the OSAL Clock time with elapsed milliseconds.
    167           *
    168           * @param   elapsedMSec - elapsed milliseconds
    169           *
    170           * @return  none
    171           */
    172          static void osalClockUpdate( uint16 elapsedMSec )
    173          {
    174            // Add elapsed milliseconds to the saved millisecond portion of time
    175            timeMSec += elapsedMSec;
    176          
    177            // Roll up milliseconds to the number of seconds
    178            if ( timeMSec >= 1000 )
    179            {
    180              OSAL_timeSeconds += timeMSec / 1000;
    181              timeMSec = timeMSec % 1000;
    182            }
    183          }
    184          
    185          /*********************************************************************
    186           * @fn      osal_setClock
    187           *
    188           * @brief   Set the new time.  This will only set the seconds portion
    189           *          of time and doesn't change the factional second counter.
    190           *
    191           * @param   newTime - number of seconds since 0 hrs, 0 minutes,
    192           *                    0 seconds, on the 1st of January 2000 UTC
    193           *
    194           * @return  none
    195           */

   \                                 In  segment BANKED_CODE, align 1, keep-with-next
    196          void osal_setClock( UTCTime newTime )
   \                     osal_setClock:
    197          {
   \   000000                REQUIRE ?V0
   \   000000                REQUIRE ?V1
   \   000000                REQUIRE ?V2
   \   000000                REQUIRE ?V3
   \   000000   74F4         MOV     A,#-0xc
   \   000002   12....       LCALL   ?BANKED_ENTER_XDATA
   \   000005                ; Saved register size: 12
   \   000005                ; Auto size: 0
   \   000005   8A..         MOV     ?V0,R2
   \   000007   8B..         MOV     ?V1,R3
   \   000009   8C..         MOV     ?V2,R4
   \   00000B   8D..         MOV     ?V3,R5
    198            OSAL_timeSeconds = newTime;
   \   00000D   90....       MOV     DPTR,#OSAL_timeSeconds
   \   000010   78..         MOV     R0,#?V0
   \   000012   12....       LCALL   ?L_MOV_TO_X
    199          }
   \   000015   7F04         MOV     R7,#0x4
   \   000017   02....       LJMP    ?BANKED_LEAVE_XDATA
    200          
    201          /*********************************************************************
    202           * @fn      osal_getClock
    203           *
    204           * @brief   Gets the current time.  This will only return the seconds
    205           *          portion of time and doesn't include the factional second
    206           *          counter.
    207           *
    208           * @param   none
    209           *
    210           * @return  number of seconds since 0 hrs, 0 minutes, 0 seconds,
    211           *          on the 1st of January 2000 UTC
    212           */

   \                                 In  segment BANKED_CODE, align 1, keep-with-next
    213          UTCTime osal_getClock( void )
   \                     osal_getClock:
    214          {
   \   000000   C082         PUSH    DPL
   \   000002   C083         PUSH    DPH
   \   000004                ; Saved register size: 2
   \   000004                ; Auto size: 0
    215            return ( OSAL_timeSeconds );
   \   000004   90....       MOV     DPTR,#OSAL_timeSeconds
   \   000007   12....       LCALL   ?XLOAD_R2345
   \   00000A   D083         POP     DPH
   \   00000C   D082         POP     DPL
   \   00000E   02....       LJMP    ?BRET
    216          }
    217          
    218          /*********************************************************************
    219           * @fn      osal_ConvertUTCTime
    220           *
    221           * @brief   Converts UTCTime to UTCTimeStruct
    222           *
    223           * @param   tm - pointer to breakdown struct
    224           *
    225           * @param   secTime - number of seconds since 0 hrs, 0 minutes,
    226           *          0 seconds, on the 1st of January 2000 UTC
    227           *
    228           * @return  none
    229           */

   \                                 In  segment BANKED_CODE, align 1, keep-with-next
    230          void osal_ConvertUTCTime( UTCTimeStruct *tm, UTCTime secTime )
   \                     osal_ConvertUTCTime:
    231          {
   \   000000                REQUIRE ?V0
   \   000000                REQUIRE ?V1
   \   000000                REQUIRE ?V2
   \   000000                REQUIRE ?V3
   \   000000                REQUIRE ?V4
   \   000000                REQUIRE ?V5
   \   000000                REQUIRE ?V6
   \   000000                REQUIRE ?V7
   \   000000   74F0         MOV     A,#-0x10
   \   000002   12....       LCALL   ?BANKED_ENTER_XDATA
   \   000005                ; Saved register size: 16
   \   000005                ; Auto size: 6
   \   000005   74FA         MOV     A,#-0x6
   \   000007   12....       LCALL   ?ALLOC_XSTACK8
   \   00000A   85..82       MOV     DPL,?XSP + 0
   \   00000D   85..83       MOV     DPH,?XSP + 1
   \   000010   EA           MOV     A,R2
   \   000011   F0           MOVX    @DPTR,A
   \   000012   A3           INC     DPTR
   \   000013   EB           MOV     A,R3
   \   000014   F0           MOVX    @DPTR,A
    232            // calculate the time less than a day - hours, minutes, seconds
    233            {
    234              uint32 day = secTime % DAY;
   \   000015   7416         MOV     A,#0x16
   \   000017   12....       LCALL   ?XSTACK_DISP0_8
   \   00001A   78..         MOV     R0,#?V0
   \   00001C   12....       LCALL   ?L_MOV_X
   \   00001F   90....       MOV     DPTR,#__Constant_15180
   \   000022   78..         MOV     R0,#?V4
   \   000024   12....       LCALL   ?L_MOV_X
   \   000027   78..         MOV     R0,#?V0
   \   000029   79..         MOV     R1,#?V4
   \   00002B   12....       LCALL   ?UL_DIV_MOD
   \   00002E   7402         MOV     A,#0x2
   \   000030   12....       LCALL   ?XSTACK_DISP0_8
   \   000033   78..         MOV     R0,#?V4
   \   000035   12....       LCALL   ?L_MOV_TO_X
    235              tm->seconds = day % 60UL;
   \   000038   7402         MOV     A,#0x2
   \   00003A   12....       LCALL   ?XSTACK_DISP0_8
   \   00003D   78..         MOV     R0,#?V4
   \   00003F   12....       LCALL   ?L_MOV_X
   \   000042   90....       MOV     DPTR,#__Constant_3c
   \   000045   78..         MOV     R0,#?V0
   \   000047   12....       LCALL   ?L_MOV_X
   \   00004A   78..         MOV     R0,#?V4
   \   00004C   79..         MOV     R1,#?V0
   \   00004E   12....       LCALL   ?UL_DIV_MOD
   \   000051   85..82       MOV     DPL,?XSP + 0
   \   000054   85..83       MOV     DPH,?XSP + 1
   \   000057   12....       LCALL   ?Subroutine7 & 0xFFFF
   \                     ??CrossCallReturnLabel_9:
   \   00005A   E5..         MOV     A,?V0
   \   00005C   F0           MOVX    @DPTR,A
    236              tm->minutes = (day % 3600UL) / 60UL;
   \   00005D   7402         MOV     A,#0x2
   \   00005F   12....       LCALL   ?XSTACK_DISP0_8
   \   000062   78..         MOV     R0,#?V4
   \   000064   12....       LCALL   ?L_MOV_X
   \   000067   90....       MOV     DPTR,#__Constant_e10
   \   00006A   78..         MOV     R0,#?V0
   \   00006C   12....       LCALL   ?L_MOV_X
   \   00006F   78..         MOV     R0,#?V4
   \   000071   79..         MOV     R1,#?V0
   \   000073   12....       LCALL   ?UL_DIV_MOD
   \   000076   90....       MOV     DPTR,#__Constant_3c
   \   000079   78..         MOV     R0,#?V4
   \   00007B   12....       LCALL   ?L_MOV_X
   \   00007E   78..         MOV     R0,#?V0
   \   000080   79..         MOV     R1,#?V4
   \   000082   12....       LCALL   ?UL_DIV_MOD
   \   000085   85..82       MOV     DPL,?XSP + 0
   \   000088   85..83       MOV     DPH,?XSP + 1
   \   00008B   12....       LCALL   ?Subroutine6 & 0xFFFF
   \                     ??CrossCallReturnLabel_7:
   \   00008E   E5..         MOV     A,?V0
   \   000090   F0           MOVX    @DPTR,A
    237              tm->hour = day / 3600UL;
   \   000091   7402         MOV     A,#0x2
   \   000093   12....       LCALL   ?XSTACK_DISP0_8
   \   000096   78..         MOV     R0,#?V0
   \   000098   12....       LCALL   ?L_MOV_X
   \   00009B   90....       MOV     DPTR,#__Constant_e10
   \   00009E   78..         MOV     R0,#?V4
   \   0000A0   12....       LCALL   ?L_MOV_X
   \   0000A3   78..         MOV     R0,#?V0
   \   0000A5   79..         MOV     R1,#?V4
   \   0000A7   12....       LCALL   ?UL_DIV_MOD
   \   0000AA   85..82       MOV     DPL,?XSP + 0
   \   0000AD   85..83       MOV     DPH,?XSP + 1
   \   0000B0   12....       LCALL   ?Subroutine4 & 0xFFFF
    238            }
   \                     ??CrossCallReturnLabel_16:
   \   0000B3   E5..         MOV     A,?V0
   \   0000B5   F0           MOVX    @DPTR,A
    239          
    240            // Fill in the calendar - day, month, year
    241            {
    242              uint16 numDays = secTime / DAY;
   \   0000B6   7416         MOV     A,#0x16
   \   0000B8   12....       LCALL   ?XSTACK_DISP0_8
   \   0000BB   78..         MOV     R0,#?V0
   \   0000BD   12....       LCALL   ?L_MOV_X
   \   0000C0   90....       MOV     DPTR,#__Constant_15180
   \   0000C3   78..         MOV     R0,#?V4
   \   0000C5   12....       LCALL   ?L_MOV_X
   \   0000C8   78..         MOV     R0,#?V0
   \   0000CA   79..         MOV     R1,#?V4
   \   0000CC   12....       LCALL   ?UL_DIV_MOD
   \   0000CF   AE..         MOV     R6,?V0
   \   0000D1   AF..         MOV     R7,?V1
    243              tm->year = BEGYEAR;
   \   0000D3   85..82       MOV     DPL,?XSP + 0
   \   0000D6   85..83       MOV     DPH,?XSP + 1
   \   0000D9   E0           MOVX    A,@DPTR
   \   0000DA   2405         ADD     A,#0x5
   \   0000DC   F5..         MOV     ?V0,A
   \   0000DE   A3           INC     DPTR
   \   0000DF   E0           MOVX    A,@DPTR
   \   0000E0   3400         ADDC    A,#0x0
   \   0000E2   F5..         MOV     ?V1,A
   \   0000E4   85..82       MOV     DPL,?V0
   \   0000E7   F583         MOV     DPH,A
   \   0000E9   74D0         MOV     A,#-0x30
   \   0000EB   F0           MOVX    @DPTR,A
   \   0000EC   A3           INC     DPTR
   \   0000ED   7407         MOV     A,#0x7
   \   0000EF   8018         SJMP    ??osal_ConvertUTCTime_0
    244              while ( numDays >= YearLength( tm->year ) )
    245              {
    246                numDays -= YearLength( tm->year );
   \                     ??osal_ConvertUTCTime_1:
   \   0000F1   786D         MOV     R0,#0x6d
   \                     ??osal_ConvertUTCTime_2:
   \   0000F3   C3           CLR     C
   \   0000F4   EE           MOV     A,R6
   \   0000F5   98           SUBB    A,R0
   \   0000F6   FE           MOV     R6,A
   \   0000F7   EF           MOV     A,R7
   \   0000F8   9401         SUBB    A,#0x1
   \   0000FA   FF           MOV     R7,A
    247                tm->year++;
   \   0000FB   85..82       MOV     DPL,?V0
   \   0000FE   85..83       MOV     DPH,?V1
   \   000101   E0           MOVX    A,@DPTR
   \   000102   2401         ADD     A,#0x1
   \   000104   F0           MOVX    @DPTR,A
   \   000105   A3           INC     DPTR
   \   000106   E0           MOVX    A,@DPTR
   \   000107   3400         ADDC    A,#0x0
   \                     ??osal_ConvertUTCTime_0:
   \   000109   12....       LCALL   ?Subroutine1 & 0xFFFF
   \                     ??CrossCallReturnLabel_18:
   \   00010C   12....       LCALL   ?US_DIV_MOD
   \   00010F   8A..         MOV     ?V4,R2
   \   000111   8B..         MOV     ?V5,R3
   \   000113   EA           MOV     A,R2
   \   000114   45..         ORL     A,?V5
   \   000116   6017         JZ      ??osal_ConvertUTCTime_3
   \   000118   EC           MOV     A,R4
   \   000119   F8           MOV     R0,A
   \   00011A   ED           MOV     A,R5
   \   00011B   F9           MOV     R1,A
   \   00011C   7A64         MOV     R2,#0x64
   \   00011E   7B00         MOV     R3,#0x0
   \   000120   12....       LCALL   ?US_DIV_MOD
   \   000123   8B..         MOV     ?V3,R3
   \   000125   EA           MOV     A,R2
   \   000126   45..         ORL     A,?V3
   \   000128   6009         JZ      ??osal_ConvertUTCTime_4
   \   00012A   EC           MOV     A,R4
   \   00012B   5403         ANL     A,#0x3
   \   00012D   7004         JNZ     ??osal_ConvertUTCTime_4
   \                     ??osal_ConvertUTCTime_3:
   \   00012F   786E         MOV     R0,#0x6e
   \   000131   8002         SJMP    ??osal_ConvertUTCTime_5
   \                     ??osal_ConvertUTCTime_4:
   \   000133   786D         MOV     R0,#0x6d
   \                     ??osal_ConvertUTCTime_5:
   \   000135   EE           MOV     A,R6
   \   000136   98           SUBB    A,R0
   \   000137   EF           MOV     A,R7
   \   000138   9401         SUBB    A,#0x1
   \   00013A   4021         JC      ??osal_ConvertUTCTime_6
   \   00013C   E5..         MOV     A,?V4
   \   00013E   45..         ORL     A,?V5
   \   000140   6017         JZ      ??osal_ConvertUTCTime_7
   \   000142   EC           MOV     A,R4
   \   000143   F8           MOV     R0,A
   \   000144   ED           MOV     A,R5
   \   000145   F9           MOV     R1,A
   \   000146   7A64         MOV     R2,#0x64
   \   000148   7B00         MOV     R3,#0x0
   \   00014A   12....       LCALL   ?US_DIV_MOD
   \   00014D   8B..         MOV     ?V3,R3
   \   00014F   EA           MOV     A,R2
   \   000150   45..         ORL     A,?V3
   \   000152   609D         JZ      ??osal_ConvertUTCTime_1
   \   000154   EC           MOV     A,R4
   \   000155   5403         ANL     A,#0x3
   \   000157   7098         JNZ     ??osal_ConvertUTCTime_1
   \                     ??osal_ConvertUTCTime_7:
   \   000159   786E         MOV     R0,#0x6e
   \   00015B   8096         SJMP    ??osal_ConvertUTCTime_2
    248              }
    249          
    250              tm->month = 0;
   \                     ??osal_ConvertUTCTime_6:
   \   00015D   85..82       MOV     DPL,?XSP + 0
   \   000160   85..83       MOV     DPH,?XSP + 1
   \   000163   E0           MOVX    A,@DPTR
   \   000164   2404         ADD     A,#0x4
   \   000166   F5..         MOV     ?V2,A
   \   000168   A3           INC     DPTR
   \   000169   E0           MOVX    A,@DPTR
   \   00016A   3400         ADDC    A,#0x0
   \   00016C   F5..         MOV     ?V3,A
   \   00016E   85..82       MOV     DPL,?V2
   \   000171   F583         MOV     DPH,A
   \   000173   E4           CLR     A
   \   000174   801F         SJMP    ??osal_ConvertUTCTime_8
    251              while ( numDays >= monthLength( IsLeapYear( tm->year ), tm->month ) )
    252              {
    253                numDays -= monthLength( IsLeapYear( tm->year ), tm->month );
   \                     ??osal_ConvertUTCTime_9:
   \   000176   7900         MOV     R1,#0x0
   \                     ??osal_ConvertUTCTime_10:
   \   000178                ; Setup parameters for call to function monthLength
   \   000178   85..82       MOV     DPL,?V2
   \   00017B   85..83       MOV     DPH,?V3
   \   00017E   E0           MOVX    A,@DPTR
   \   00017F   FA           MOV     R2,A
   \   000180   12....       LCALL   ??monthLength?relay  ; Banked call to: monthLength
   \   000183   E9           MOV     A,R1
   \   000184   F8           MOV     R0,A
   \   000185   C3           CLR     C
   \   000186   EE           MOV     A,R6
   \   000187   98           SUBB    A,R0
   \   000188   FE           MOV     R6,A
   \   000189   EF           MOV     A,R7
   \   00018A   9400         SUBB    A,#0x0
   \   00018C   FF           MOV     R7,A
    254                tm->month++;
   \   00018D   85..82       MOV     DPL,?V2
   \   000190   85..83       MOV     DPH,?V3
   \   000193   E0           MOVX    A,@DPTR
   \   000194   04           INC     A
   \                     ??osal_ConvertUTCTime_8:
   \   000195   12....       LCALL   ?Subroutine1 & 0xFFFF
   \                     ??CrossCallReturnLabel_19:
   \   000198   12....       LCALL   ?US_DIV_MOD
   \   00019B   8B..         MOV     ?V5,R3
   \   00019D   EA           MOV     A,R2
   \   00019E   45..         ORL     A,?V5
   \   0001A0   6017         JZ      ??osal_ConvertUTCTime_11
   \   0001A2   EC           MOV     A,R4
   \   0001A3   F8           MOV     R0,A
   \   0001A4   ED           MOV     A,R5
   \   0001A5   F9           MOV     R1,A
   \   0001A6   7A64         MOV     R2,#0x64
   \   0001A8   7B00         MOV     R3,#0x0
   \   0001AA   12....       LCALL   ?US_DIV_MOD
   \   0001AD   8B..         MOV     ?V5,R3
   \   0001AF   EA           MOV     A,R2
   \   0001B0   45..         ORL     A,?V5
   \   0001B2   6009         JZ      ??osal_ConvertUTCTime_12
   \   0001B4   EC           MOV     A,R4
   \   0001B5   5403         ANL     A,#0x3
   \   0001B7   7004         JNZ     ??osal_ConvertUTCTime_12
   \                     ??osal_ConvertUTCTime_11:
   \   0001B9   7901         MOV     R1,#0x1
   \   0001BB   8002         SJMP    ??osal_ConvertUTCTime_13
   \                     ??osal_ConvertUTCTime_12:
   \   0001BD   7900         MOV     R1,#0x0
   \                     ??osal_ConvertUTCTime_13:
   \   0001BF                ; Setup parameters for call to function monthLength
   \   0001BF   85..82       MOV     DPL,?V2
   \   0001C2   85..83       MOV     DPH,?V3
   \   0001C5   E0           MOVX    A,@DPTR
   \   0001C6   FA           MOV     R2,A
   \   0001C7   12....       LCALL   ??monthLength?relay  ; Banked call to: monthLength
   \   0001CA   E9           MOV     A,R1
   \   0001CB   F8           MOV     R0,A
   \   0001CC   C3           CLR     C
   \   0001CD   EE           MOV     A,R6
   \   0001CE   98           SUBB    A,R0
   \   0001CF   EF           MOV     A,R7
   \   0001D0   9400         SUBB    A,#0x0
   \   0001D2   402C         JC      ??osal_ConvertUTCTime_14
   \   0001D4   12....       LCALL   ??Subroutine12_0 & 0xFFFF
    255              }
   \                     ??CrossCallReturnLabel_20:
   \   0001D7   12....       LCALL   ?US_DIV_MOD
   \   0001DA   8B..         MOV     ?V5,R3
   \   0001DC   EA           MOV     A,R2
   \   0001DD   45..         ORL     A,?V5
   \   0001DF   601A         JZ      ??osal_ConvertUTCTime_15
   \   0001E1   EC           MOV     A,R4
   \   0001E2   F8           MOV     R0,A
   \   0001E3   ED           MOV     A,R5
   \   0001E4   F9           MOV     R1,A
   \   0001E5   7A64         MOV     R2,#0x64
   \   0001E7   7B00         MOV     R3,#0x0
   \   0001E9   12....       LCALL   ?US_DIV_MOD
   \   0001EC   8B..         MOV     ?V5,R3
   \   0001EE   EA           MOV     A,R2
   \   0001EF   45..         ORL     A,?V5
   \   0001F1   6083         JZ      ??osal_ConvertUTCTime_9
   \   0001F3   EC           MOV     A,R4
   \   0001F4   5403         ANL     A,#0x3
   \   0001F6   6003         JZ      $+5
   \   0001F8   02....       LJMP    ??osal_ConvertUTCTime_9 & 0xFFFF
   \                     ??osal_ConvertUTCTime_15:
   \   0001FB   7901         MOV     R1,#0x1
   \   0001FD   02....       LJMP    ??osal_ConvertUTCTime_10 & 0xFFFF
    256          
    257              tm->day = numDays;
   \                     ??osal_ConvertUTCTime_14:
   \   000200   85..82       MOV     DPL,?XSP + 0
   \   000203   85..83       MOV     DPH,?XSP + 1
   \   000206   12....       LCALL   ?Subroutine2 & 0xFFFF
    258            }
   \                     ??CrossCallReturnLabel_0:
   \   000209   EE           MOV     A,R6
   \   00020A   F0           MOVX    @DPTR,A
    259          }
   \   00020B   7406         MOV     A,#0x6
   \   00020D                REQUIRE ?Subroutine0
   \   00020D                ; // Fall through to label ?Subroutine0

   \                                 In  segment BANKED_CODE, align 1, keep-with-next
   \                     ?Subroutine0:
   \   000000   12....       LCALL   ?DEALLOC_XSTACK8
   \   000003                REQUIRE ??Subroutine10_0
   \   000003                ; // Fall through to label ??Subroutine10_0

   \                                 In  segment BANKED_CODE, align 1, keep-with-next
   \                     ?Subroutine4:
   \   000000   E0           MOVX    A,@DPTR
   \   000001   F8           MOV     R0,A
   \   000002                REQUIRE ??Subroutine11_0
   \   000002                ; // Fall through to label ??Subroutine11_0

   \                                 In  segment BANKED_CODE, align 1, keep-with-next
   \                     ??Subroutine11_0:
   \   000000   A3           INC     DPTR
   \   000001   E0           MOVX    A,@DPTR
   \   000002   F583         MOV     DPH,A
   \   000004   8882         MOV     DPL,R0
   \   000006   A3           INC     DPTR
   \   000007   A3           INC     DPTR
   \   000008   22           RET

   \                                 In  segment BANKED_CODE, align 1, keep-with-next
   \                     ?Subroutine1:
   \   000000   F0           MOVX    @DPTR,A
   \   000001                REQUIRE ??Subroutine12_0
   \   000001                ; // Fall through to label ??Subroutine12_0

   \                                 In  segment BANKED_CODE, align 1, keep-with-next
   \                     ??Subroutine12_0:
   \   000000   85..82       MOV     DPL,?V0
   \   000003   85..83       MOV     DPH,?V1
   \   000006   E0           MOVX    A,@DPTR
   \   000007   FC           MOV     R4,A
   \   000008   A3           INC     DPTR
   \   000009   E0           MOVX    A,@DPTR
   \   00000A   FD           MOV     R5,A
   \   00000B   EC           MOV     A,R4
   \   00000C   F8           MOV     R0,A
   \   00000D   ED           MOV     A,R5
   \   00000E   F9           MOV     R1,A
   \   00000F   7A90         MOV     R2,#-0x70
   \   000011   7B01         MOV     R3,#0x1
   \   000013   22           RET

   \                                 In  segment BANKED_CODE, align 1, keep-with-next
   \                     ?Subroutine7:
   \   000000   12....       LCALL   ?Subroutine9 & 0xFFFF
   \                     ??CrossCallReturnLabel_13:
   \   000003   22           RET

   \                                 In  segment BANKED_CODE, align 1, keep-with-next
   \                     ?Subroutine9:
   \   000000   E0           MOVX    A,@DPTR
   \   000001   F8           MOV     R0,A
   \   000002   A3           INC     DPTR
   \   000003   E0           MOVX    A,@DPTR
   \   000004   F583         MOV     DPH,A
   \   000006   8882         MOV     DPL,R0
   \   000008   22           RET

   \                                 In  segment BANKED_CODE, align 1, keep-with-next
   \                     ?Subroutine6:
   \   000000   12....       LCALL   ?Subroutine8 & 0xFFFF
   \                     ??CrossCallReturnLabel_12:
   \   000003   22           RET

   \                                 In  segment BANKED_CODE, align 1, keep-with-next
   \                     ?Subroutine8:
   \   000000   12....       LCALL   ?Subroutine9 & 0xFFFF
   \                     ??CrossCallReturnLabel_14:
   \   000003   A3           INC     DPTR
   \   000004   22           RET

   \                                 In  segment BANKED_CODE, align 1, keep-with-next
   \                     ?Subroutine2:
   \   000000   12....       LCALL   ?Subroutine8 & 0xFFFF
   \                     ??CrossCallReturnLabel_11:
   \   000003   A3           INC     DPTR
   \   000004   A3           INC     DPTR
   \   000005   22           RET
    260          
    261          /*********************************************************************
    262           * @fn      monthLength
    263           *
    264           * @param   lpyr - 1 for leap year, 0 if not
    265           *
    266           * @param   mon - 0 - 11 (jan - dec)
    267           *
    268           * @return  number of days in specified month
    269           */

   \                                 In  segment BANKED_CODE, align 1, keep-with-next
    270          static uint8 monthLength( uint8 lpyr, uint8 mon )
   \                     monthLength:
    271          {
   \   000000                ; Saved register size: 0
   \   000000                ; Auto size: 0
   \   000000   E9           MOV     A,R1
   \   000001   F8           MOV     R0,A
    272            uint8 days = 31;
   \   000002   791F         MOV     R1,#0x1f
    273          
    274            if ( mon == 1 ) // feb
   \   000004   7401         MOV     A,#0x1
   \   000006   6A           XRL     A,R2
   \   000007   7006         JNZ     ??monthLength_0
    275            {
    276              days = ( 28 + lpyr );
   \   000009   741C         MOV     A,#0x1c
   \   00000B   28           ADD     A,R0
   \   00000C   F9           MOV     R1,A
   \   00000D   800D         SJMP    ??monthLength_1
    277            }
    278            else
    279            {
    280              if ( mon > 6 ) // aug-dec
   \                     ??monthLength_0:
   \   00000F   EA           MOV     A,R2
   \   000010   C3           CLR     C
   \   000011   9407         SUBB    A,#0x7
   \   000013   4001         JC      ??monthLength_2
    281              {
    282                mon--;
   \   000015   1A           DEC     R2
    283              }
    284          
    285              if ( mon & 1 )
   \                     ??monthLength_2:
   \   000016   EA           MOV     A,R2
   \   000017   A2E0         MOV     C,0xE0 /* A   */.0
   \   000019   5001         JNC     ??monthLength_1
    286              {
    287                days = 30;
   \   00001B   19           DEC     R1
    288              }
    289            }
    290          
    291            return ( days );
   \                     ??monthLength_1:
   \   00001C   02....       LJMP    ?BRET
    292          }
    293          
    294          /*********************************************************************
    295           * @fn      osal_ConvertUTCSecs
    296           *
    297           * @brief   Converts a UTCTimeStruct to UTCTime
    298           *
    299           * @param   tm - pointer to provided struct
    300           *
    301           * @return  number of seconds since 00:00:00 on 01/01/2000 (UTC)
    302           */

   \                                 In  segment BANKED_CODE, align 1, keep-with-next
    303          UTCTime osal_ConvertUTCSecs( UTCTimeStruct *tm )
   \                     osal_ConvertUTCSecs:
    304          {
   \   000000                REQUIRE ?V0
   \   000000                REQUIRE ?V1
   \   000000                REQUIRE ?V2
   \   000000                REQUIRE ?V3
   \   000000                REQUIRE ?V4
   \   000000                REQUIRE ?V5
   \   000000                REQUIRE ?V6
   \   000000                REQUIRE ?V7
   \   000000   74F0         MOV     A,#-0x10
   \   000002   12....       LCALL   ?BANKED_ENTER_XDATA
   \   000005                ; Saved register size: 16
   \   000005                ; Auto size: 3
   \   000005   74FD         MOV     A,#-0x3
   \   000007   12....       LCALL   ?ALLOC_XSTACK8
   \   00000A   7401         MOV     A,#0x1
   \   00000C   12....       LCALL   ?XSTACK_DISP0_8
   \   00000F   EA           MOV     A,R2
   \   000010   F0           MOVX    @DPTR,A
   \   000011   A3           INC     DPTR
   \   000012   EB           MOV     A,R3
   \   000013   F0           MOVX    @DPTR,A
    305            uint32 seconds;
    306          
    307            /* Seconds for the partial day */
    308            seconds = (((tm->hour * 60UL) + tm->minutes) * 60UL) + tm->seconds;
   \   000014   7401         MOV     A,#0x1
   \   000016   12....       LCALL   ?XSTACK_DISP0_8
   \   000019   12....       LCALL   ?Subroutine4 & 0xFFFF
   \                     ??CrossCallReturnLabel_17:
   \   00001C   E0           MOVX    A,@DPTR
   \   00001D   F5..         MOV     ?V0,A
   \   00001F   E4           CLR     A
   \   000020   F5..         MOV     ?V1,A
   \   000022   F5..         MOV     ?V2,A
   \   000024   F5..         MOV     ?V3,A
   \   000026   90....       MOV     DPTR,#__Constant_3c
   \   000029   78..         MOV     R0,#?V4
   \   00002B   12....       LCALL   ?L_MOV_X
   \   00002E   78..         MOV     R0,#?V0
   \   000030   79..         MOV     R1,#?V4
   \   000032   12....       LCALL   ?L_MUL
   \   000035   7401         MOV     A,#0x1
   \   000037   12....       LCALL   ?XSTACK_DISP0_8
   \   00003A   12....       LCALL   ?Subroutine6 & 0xFFFF
   \                     ??CrossCallReturnLabel_8:
   \   00003D   12....       LCALL   ?Subroutine3 & 0xFFFF
   \                     ??CrossCallReturnLabel_3:
   \   000040   12....       LCALL   ?L_ADD
   \   000043   90....       MOV     DPTR,#__Constant_3c
   \   000046   78..         MOV     R0,#?V4
   \   000048   12....       LCALL   ?L_MOV_X
   \   00004B   78..         MOV     R0,#?V0
   \   00004D   79..         MOV     R1,#?V4
   \   00004F   12....       LCALL   ?L_MUL
   \   000052   7401         MOV     A,#0x1
   \   000054   12....       LCALL   ?XSTACK_DISP0_8
   \   000057   12....       LCALL   ?Subroutine7 & 0xFFFF
   \                     ??CrossCallReturnLabel_10:
   \   00005A   12....       LCALL   ?Subroutine3 & 0xFFFF
   \                     ??CrossCallReturnLabel_4:
   \   00005D   12....       LCALL   ?L_ADD
    309          
    310            /* Account for previous complete days */
    311            {
    312              /* Start with complete days in current month */
    313              uint16 days = tm->day;
   \   000060   7401         MOV     A,#0x1
   \   000062   12....       LCALL   ?XSTACK_DISP0_8
   \   000065   12....       LCALL   ?Subroutine2 & 0xFFFF
   \                     ??CrossCallReturnLabel_1:
   \   000068   E0           MOVX    A,@DPTR
   \   000069   F5..         MOV     ?V6,A
    314          
    315              /* Next, complete months in current year */
    316              {
    317                int8 month = tm->month;
   \   00006B   7401         MOV     A,#0x1
   \   00006D   12....       LCALL   ?XSTACK_DISP0_8
   \   000070   12....       LCALL   ??Subroutine11_0 & 0xFFFF
   \                     ??CrossCallReturnLabel_15:
   \   000073   A3           INC     DPTR
   \   000074   A3           INC     DPTR
   \   000075   E0           MOVX    A,@DPTR
   \   000076   85..82       MOV     DPL,?XSP + 0
   \   000079   85..83       MOV     DPH,?XSP + 1
   \   00007C   F0           MOVX    @DPTR,A
   \   00007D   8011         SJMP    ??osal_ConvertUTCSecs_0
    318                while ( --month >= 0 )
    319                {
    320                  days += monthLength( IsLeapYear( tm->year ), month );
   \                     ??osal_ConvertUTCSecs_1:
   \   00007F   7900         MOV     R1,#0x0
   \                     ??osal_ConvertUTCSecs_2:
   \   000081                ; Setup parameters for call to function monthLength
   \   000081   E0           MOVX    A,@DPTR
   \   000082   FA           MOV     R2,A
   \   000083   12....       LCALL   ??monthLength?relay  ; Banked call to: monthLength
   \   000086   E5..         MOV     A,?V6
   \   000088   29           ADD     A,R1
   \   000089   F5..         MOV     ?V6,A
   \   00008B   E4           CLR     A
   \   00008C   35..         ADDC    A,?V7
   \   00008E   F5..         MOV     ?V7,A
   \                     ??osal_ConvertUTCSecs_0:
   \   000090   85..82       MOV     DPL,?XSP + 0
   \   000093   85..83       MOV     DPH,?XSP + 1
   \   000096   E0           MOVX    A,@DPTR
   \   000097   14           DEC     A
   \   000098   F0           MOVX    @DPTR,A
   \   000099   7401         MOV     A,#0x1
   \   00009B   12....       LCALL   ?XSTACK_DISP0_8
   \   00009E   12....       LCALL   ?Subroutine2 & 0xFFFF
   \                     ??CrossCallReturnLabel_2:
   \   0000A1   A3           INC     DPTR
   \   0000A2   A3           INC     DPTR
   \   0000A3   E0           MOVX    A,@DPTR
   \   0000A4   FE           MOV     R6,A
   \   0000A5   A3           INC     DPTR
   \   0000A6   E0           MOVX    A,@DPTR
   \   0000A7   FF           MOV     R7,A
   \   0000A8   85..82       MOV     DPL,?XSP + 0
   \   0000AB   85..83       MOV     DPH,?XSP + 1
   \   0000AE   E0           MOVX    A,@DPTR
   \   0000AF   C3           CLR     C
   \   0000B0   9400         SUBB    A,#0x0
   \   0000B2   A2D2         MOV     C,0xD0 /* PSW */.2
   \   0000B4   65D0         XRL     A,PSW
   \   0000B6   33           RLC     A
   \   0000B7   EE           MOV     A,R6
   \   0000B8   402C         JC      ??osal_ConvertUTCSecs_3
   \   0000BA   F8           MOV     R0,A
   \   0000BB   EF           MOV     A,R7
   \   0000BC   F9           MOV     R1,A
   \   0000BD   7A90         MOV     R2,#-0x70
   \   0000BF   7B01         MOV     R3,#0x1
   \   0000C1   12....       LCALL   ?US_DIV_MOD
   \   0000C4   8B..         MOV     ?V5,R3
   \   0000C6   EA           MOV     A,R2
   \   0000C7   45..         ORL     A,?V5
   \   0000C9   6017         JZ      ??osal_ConvertUTCSecs_4
   \   0000CB   EE           MOV     A,R6
   \   0000CC   F8           MOV     R0,A
   \   0000CD   EF           MOV     A,R7
   \   0000CE   F9           MOV     R1,A
   \   0000CF   7A64         MOV     R2,#0x64
   \   0000D1   7B00         MOV     R3,#0x0
   \   0000D3   12....       LCALL   ?US_DIV_MOD
   \   0000D6   8B..         MOV     ?V5,R3
   \   0000D8   EA           MOV     A,R2
   \   0000D9   45..         ORL     A,?V5
   \   0000DB   60A2         JZ      ??osal_ConvertUTCSecs_1
   \   0000DD   EE           MOV     A,R6
   \   0000DE   5403         ANL     A,#0x3
   \   0000E0   709D         JNZ     ??osal_ConvertUTCSecs_1
   \                     ??osal_ConvertUTCSecs_4:
   \   0000E2   7901         MOV     R1,#0x1
   \   0000E4   809B         SJMP    ??osal_ConvertUTCSecs_2
    321                }
    322              }
    323          
    324              /* Next, complete years before current year */
    325              {
    326                uint16 year = tm->year;
   \                     ??osal_ConvertUTCSecs_3:
   \   0000E6   FC           MOV     R4,A
   \   0000E7   EF           MOV     A,R7
   \   0000E8   FD           MOV     R5,A
   \   0000E9   800D         SJMP    ??osal_ConvertUTCSecs_5
    327                while ( --year >= BEGYEAR )
    328                {
    329                  days += YearLength( year );
   \                     ??osal_ConvertUTCSecs_6:
   \   0000EB   786D         MOV     R0,#0x6d
   \                     ??osal_ConvertUTCSecs_7:
   \   0000ED   E5..         MOV     A,?V6
   \   0000EF   28           ADD     A,R0
   \   0000F0   F5..         MOV     ?V6,A
   \   0000F2   E5..         MOV     A,?V7
   \   0000F4   3401         ADDC    A,#0x1
   \   0000F6   F5..         MOV     ?V7,A
   \                     ??osal_ConvertUTCSecs_5:
   \   0000F8   EC           MOV     A,R4
   \   0000F9   24FF         ADD     A,#-0x1
   \   0000FB   1C           DEC     R4
   \   0000FC   ED           MOV     A,R5
   \   0000FD   34FF         ADDC    A,#-0x1
   \   0000FF   FD           MOV     R5,A
   \   000100   C3           CLR     C
   \   000101   EC           MOV     A,R4
   \   000102   94D0         SUBB    A,#-0x30
   \   000104   ED           MOV     A,R5
   \   000105   9407         SUBB    A,#0x7
   \   000107   402D         JC      ??osal_ConvertUTCSecs_8
   \   000109   EC           MOV     A,R4
   \   00010A   F8           MOV     R0,A
   \   00010B   ED           MOV     A,R5
   \   00010C   F9           MOV     R1,A
   \   00010D   7A90         MOV     R2,#-0x70
   \   00010F   7B01         MOV     R3,#0x1
   \   000111   12....       LCALL   ?US_DIV_MOD
   \   000114   8B..         MOV     ?V5,R3
   \   000116   EA           MOV     A,R2
   \   000117   45..         ORL     A,?V5
   \   000119   6017         JZ      ??osal_ConvertUTCSecs_9
   \   00011B   EC           MOV     A,R4
   \   00011C   F8           MOV     R0,A
   \   00011D   ED           MOV     A,R5
   \   00011E   F9           MOV     R1,A
   \   00011F   7A64         MOV     R2,#0x64
   \   000121   7B00         MOV     R3,#0x0
   \   000123   12....       LCALL   ?US_DIV_MOD
   \   000126   8B..         MOV     ?V5,R3
   \   000128   EA           MOV     A,R2
   \   000129   45..         ORL     A,?V5
   \   00012B   60BE         JZ      ??osal_ConvertUTCSecs_6
   \   00012D   EC           MOV     A,R4
   \   00012E   5403         ANL     A,#0x3
   \   000130   70B9         JNZ     ??osal_ConvertUTCSecs_6
   \                     ??osal_ConvertUTCSecs_9:
   \   000132   786E         MOV     R0,#0x6e
   \   000134   80B7         SJMP    ??osal_ConvertUTCSecs_7
    330                }
    331              }
    332          
    333              /* Add total seconds before partial day */
    334              seconds += (days * DAY);
    335            }
    336          
    337            return ( seconds );
   \                     ??osal_ConvertUTCSecs_8:
   \   000136   C0..         PUSH    ?V0
   \   000138   C0..         PUSH    ?V1
   \   00013A   C0..         PUSH    ?V2
   \   00013C   C0..         PUSH    ?V3
   \   00013E   85....       MOV     ?V4,?V6
   \   000141   85....       MOV     ?V5,?V7
   \   000144   E4           CLR     A
   \   000145   F5..         MOV     ?V6,A
   \   000147   F5..         MOV     ?V7,A
   \   000149   90....       MOV     DPTR,#__Constant_15180
   \   00014C   78..         MOV     R0,#?V0
   \   00014E   12....       LCALL   ?L_MOV_X
   \   000151   78..         MOV     R0,#?V4
   \   000153   79..         MOV     R1,#?V0
   \   000155   12....       LCALL   ?L_MUL
   \   000158   D0..         POP     ?V3
   \   00015A   D0..         POP     ?V2
   \   00015C   D0..         POP     ?V1
   \   00015E   D0..         POP     ?V0
   \   000160   78..         MOV     R0,#?V0
   \   000162   79..         MOV     R1,#?V4
   \   000164   12....       LCALL   ?L_ADD
   \   000167   AA..         MOV     R2,?V0
   \   000169   AB..         MOV     R3,?V1
   \   00016B   AC..         MOV     R4,?V2
   \   00016D   AD..         MOV     R5,?V3
   \   00016F   7403         MOV     A,#0x3
   \   000171   02....       LJMP    ?Subroutine0 & 0xFFFF
    338          }

   \                                 In  segment BANKED_CODE, align 1, keep-with-next
   \                     ?Subroutine3:
   \   000000   E0           MOVX    A,@DPTR
   \   000001   F5..         MOV     ?V4,A
   \   000003   E4           CLR     A
   \   000004   F5..         MOV     ?V5,A
   \   000006   F5..         MOV     ?V6,A
   \   000008   F5..         MOV     ?V7,A
   \   00000A   78..         MOV     R0,#?V0
   \   00000C   79..         MOV     R1,#?V4
   \   00000E   22           RET

   \                                 In  segment BANKED_CODE, align 1, keep-with-next
   \                     ?Subroutine5:
   \   000000   90....       MOV     DPTR,#timeMSec
   \   000003   E0           MOVX    A,@DPTR
   \   000004   F8           MOV     R0,A
   \   000005   A3           INC     DPTR
   \   000006   E0           MOVX    A,@DPTR
   \   000007   F9           MOV     R1,A
   \   000008   7AE8         MOV     R2,#-0x18
   \   00000A   7B03         MOV     R3,#0x3
   \   00000C   22           RET

   \                                 In  segment XDATA_ROM_C, align 1
   \                     __Constant_15180:
   \   000000   80510100     DD 86400

   \                                 In  segment XDATA_ROM_C, align 1
   \                     __Constant_3c:
   \   000000   3C000000     DD 60

   \                                 In  segment XDATA_ROM_C, align 1
   \                     __Constant_e10:
   \   000000   100E0000     DD 3600

   \                                 In  segment BANK_RELAYS, align 1
   \                     ??osalTimeUpdate?relay:
   \   000000   12....       LCALL   ?BDISPATCH
   \   000003   ......       DC24    osalTimeUpdate

   \                                 In  segment BANK_RELAYS, align 1
   \                     ??osal_setClock?relay:
   \   000000   12....       LCALL   ?BDISPATCH
   \   000003   ......       DC24    osal_setClock

   \                                 In  segment BANK_RELAYS, align 1
   \                     ??osal_getClock?relay:
   \   000000   12....       LCALL   ?BDISPATCH
   \   000003   ......       DC24    osal_getClock

   \                                 In  segment BANK_RELAYS, align 1
   \                     ??osal_ConvertUTCTime?relay:
   \   000000   12....       LCALL   ?BDISPATCH
   \   000003   ......       DC24    osal_ConvertUTCTime

   \                                 In  segment BANK_RELAYS, align 1
   \                     ??monthLength?relay:
   \   000000   12....       LCALL   ?BDISPATCH
   \   000003   ......       DC24    monthLength

   \                                 In  segment BANK_RELAYS, align 1
   \                     ??osal_ConvertUTCSecs?relay:
   \   000000   12....       LCALL   ?BDISPATCH
   \   000003   ......       DC24    osal_ConvertUTCSecs

   Maximum stack usage in bytes:

   ISTACK XSTACK Function
   ------ ------ --------
      0     22   monthLength
      0     16   osalTimeUpdate
        0     16   -> ll_McuPrecisionCount
        0     16   -> osalTimerUpdate
      4     19   osal_ConvertUTCSecs
        0     19   -> monthLength
      1     26   osal_ConvertUTCTime
        0     22   -> monthLength
      2      0   osal_getClock
      0     12   osal_setClock


   Segment part sizes:

   Bytes  Function/Label
   -----  --------------
       5  ??Subroutine10_0
       9  ??Subroutine11_0
      20  ??Subroutine12_0
       6  ??monthLength?relay
       6  ??osalTimeUpdate?relay
       6  ??osal_ConvertUTCSecs?relay
       6  ??osal_ConvertUTCTime?relay
       6  ??osal_getClock?relay
       6  ??osal_setClock?relay
       3  ?Subroutine0
       1  ?Subroutine1
       6  ?Subroutine2
      15  ?Subroutine3
       2  ?Subroutine4
      13  ?Subroutine5
       4  ?Subroutine6
       4  ?Subroutine7
       5  ?Subroutine8
       9  ?Subroutine9
       4  OSAL_timeSeconds
       4  __Constant_15180
       4  __Constant_3c
       4  __Constant_e10
      31  monthLength
     232  osalTimeUpdate
     372  osal_ConvertUTCSecs
     525  osal_ConvertUTCTime
      17  osal_getClock
      26  osal_setClock
       2  previousLLTimerTick
       2  remUsTicks
       2  timeMSec

 
 1 299 bytes in segment BANKED_CODE
    36 bytes in segment BANK_RELAYS
    12 bytes in segment XDATA_ROM_C
    10 bytes in segment XDATA_Z
 
 1 335 bytes of CODE  memory
     0 bytes of CONST memory (+ 12 bytes shared)
    10 bytes of XDATA memory

Errors: none
Warnings: none
