###############################################################################
#                                                                             #
# IAR C/C++ Compiler V8.30.1.41636 for 8051             02/Jun/2014  17:48:16 #
# Copyright 2004-2013 IAR Systems AB.                                         #
#                                                                             #
#    Core               =  plain                                              #
#    Code model         =  banked                                             #
#    Data model         =  large                                              #
#    Calling convention =  xdata reentrant                                    #
#    Constant location  =  data_rom                                           #
#    Dptr setup         =  1,16                                               #
#                                                                             #
#    Source file        =  c:\Users\Administrator\Documents\Dropbox\Fish      #
#                          Brain\HM-10 Hack\HM-10 Firmware\Components\osal\co #
#                          mmon\osal_bufmgr.c                                 #
#    Command line       =  -f "c:\Users\Administrator\Documents\Dropbox\Fish  #
#                          Brain\HM-10 Hack\HM-10 Firmware\Projects\ble\HostT #
#                          estApp\CC2540\..\..\config\buildComponents.cfg"    #
#                          (-DBROADCASTER_CFG=0x01 -DOBSERVER_CFG=0x02        #
#                          -DPERIPHERAL_CFG=0x04 -DCENTRAL_CFG=0x08           #
#                          -DADV_NCONN_CFG=0x01 -DADV_CONN_CFG=0x02           #
#                          -DSCAN_CFG=0x04 -DINIT_CFG=0x08                    #
#                          -DADV_CFG=ADV_NCONN_CFG+ADV_CONN_CFG               #
#                          -DLINK_CFG=ADV_CONN_CFG+INIT_CFG                   #
#                          -DFULL_CFG=INIT_CFG+SCAN_CFG+ADV_NCONN_CFG+ADV_CON #
#                          N_CFG) -f "c:\Users\Administrator\Documents\Dropbo #
#                          x\Fish Brain\HM-10 Hack\HM-10                      #
#                          Firmware\Projects\ble\HostTestApp\CC2540\buildConf #
#                          ig.cfg" (-DHOST_CONFIG=PERIPHERAL_CFG+CENTRAL_CFG  #
#                          -DGAP_PRIVACY_RECONNECT)                           #
#                          "c:\Users\Administrator\Documents\Dropbox\Fish     #
#                          Brain\HM-10 Hack\HM-10 Firmware\Components\osal\co #
#                          mmon\osal_bufmgr.c" -D INT_HEAP_LEN=2700 -D        #
#                          HALNODEBUG -D OSAL_CBTIMER_NUM_TASKS=1 -D          #
#                          POWER_SAVING -D HAL_AES_DMA=TRUE -D HAL_DMA=TRUE   #
#                          -D HAL_UART=TRUE -D HAL_UART_DMA=0 -D              #
#                          HAL_UART_ISR=0 -D HAL_UART_SPI=2 -D                #
#                          HAL_SPI_QUEUED_TX=TRUE -D HAL_KEY=FALSE -D         #
#                          HAL_LCD=FALSE -D HAL_LED=FALSE -D                  #
#                          GATT_DB_OFF_CHIP -D GAP_BOND_MGR -lCN              #
#                          "c:\Users\Administrator\Documents\Dropbox\Fish     #
#                          Brain\HM-10 Hack\HM-10 Firmware\Projects\ble\HostT #
#                          estApp\CC2540\CC2540SPI\List\" -lA                 #
#                          "c:\Users\Administrator\Documents\Dropbox\Fish     #
#                          Brain\HM-10 Hack\HM-10 Firmware\Projects\ble\HostT #
#                          estApp\CC2540\CC2540SPI\List\" -o                  #
#                          "c:\Users\Administrator\Documents\Dropbox\Fish     #
#                          Brain\HM-10 Hack\HM-10 Firmware\Projects\ble\HostT #
#                          estApp\CC2540\CC2540SPI\Obj\" -e --debug           #
#                          --core=plain --dptr=16,1 --data_model=large        #
#                          --code_model=banked --calling_convention=xdata_ree #
#                          ntrant --place_constants=data_rom                  #
#                          --nr_virtual_regs 8 -I "c:\Users\Administrator\Doc #
#                          uments\Dropbox\Fish Brain\HM-10 Hack\HM-10         #
#                          Firmware\Projects\ble\HostTestApp\CC2540\..\..\com #
#                          mon\" -I "c:\Users\Administrator\Documents\Dropbox #
#                          \Fish Brain\HM-10 Hack\HM-10                       #
#                          Firmware\Projects\ble\HostTestApp\CC2540\..\..\..\ #
#                          ..\Components\hal\include\" -I                     #
#                          "c:\Users\Administrator\Documents\Dropbox\Fish     #
#                          Brain\HM-10 Hack\HM-10 Firmware\Projects\ble\HostT #
#                          estApp\CC2540\..\..\..\..\Components\hal\target\CC #
#                          2540EB\" -I "c:\Users\Administrator\Documents\Drop #
#                          box\Fish Brain\HM-10 Hack\HM-10                    #
#                          Firmware\Projects\ble\HostTestApp\CC2540\..\..\..\ #
#                          ..\Components\osal\include\" -I                    #
#                          "c:\Users\Administrator\Documents\Dropbox\Fish     #
#                          Brain\HM-10 Hack\HM-10 Firmware\Projects\ble\HostT #
#                          estApp\CC2540\..\..\..\..\Components\services\sadd #
#                          r\" -I "c:\Users\Administrator\Documents\Dropbox\F #
#                          ish Brain\HM-10 Hack\HM-10                         #
#                          Firmware\Projects\ble\HostTestApp\CC2540\..\..\..\ #
#                          ..\Components\ble\include\" -I                     #
#                          "c:\Users\Administrator\Documents\Dropbox\Fish     #
#                          Brain\HM-10 Hack\HM-10 Firmware\Projects\ble\HostT #
#                          estApp\CC2540\..\..\..\..\Components\ble\controlle #
#                          r\phy\" -I "c:\Users\Administrator\Documents\Dropb #
#                          ox\Fish Brain\HM-10 Hack\HM-10                     #
#                          Firmware\Projects\ble\HostTestApp\CC2540\..\..\..\ #
#                          ..\Components\ble\controller\include\" -I          #
#                          "c:\Users\Administrator\Documents\Dropbox\Fish     #
#                          Brain\HM-10 Hack\HM-10 Firmware\Projects\ble\HostT #
#                          estApp\CC2540\..\..\..\..\Components\ble\hci\" -I  #
#                          "c:\Users\Administrator\Documents\Dropbox\Fish     #
#                          Brain\HM-10 Hack\HM-10 Firmware\Projects\ble\HostT #
#                          estApp\CC2540\..\..\..\..\Components\ble\host\"    #
#                          -I "c:\Users\Administrator\Documents\Dropbox\Fish  #
#                          Brain\HM-10 Hack\HM-10 Firmware\Projects\ble\HostT #
#                          estApp\CC2540\..\..\common\cc2540\" -I             #
#                          "c:\Users\Administrator\Documents\Dropbox\Fish     #
#                          Brain\HM-10 Hack\HM-10 Firmware\Projects\ble\HostT #
#                          estApp\CC2540\..\..\common\npi\npi_np\" -I         #
#                          "c:\Users\Administrator\Documents\Dropbox\Fish     #
#                          Brain\HM-10 Hack\HM-10 Firmware\Projects\ble\HostT #
#                          estApp\CC2540\..\..\Include\" -I                   #
#                          "c:\Users\Administrator\Documents\Dropbox\Fish     #
#                          Brain\HM-10 Hack\HM-10 Firmware\Projects\ble\HostT #
#                          estApp\CC2540\..\..\Profiles\Roles\" -I            #
#                          "c:\Users\Administrator\Documents\Dropbox\Fish     #
#                          Brain\HM-10 Hack\HM-10 Firmware\Projects\ble\HostT #
#                          estApp\CC2540\..\source\" -Ohz                     #
#    List file          =  c:\Users\Administrator\Documents\Dropbox\Fish      #
#                          Brain\HM-10 Hack\HM-10 Firmware\Projects\ble\HostT #
#                          estApp\CC2540\CC2540SPI\List\osal_bufmgr.lst       #
#    Object file        =  c:\Users\Administrator\Documents\Dropbox\Fish      #
#                          Brain\HM-10 Hack\HM-10 Firmware\Projects\ble\HostT #
#                          estApp\CC2540\CC2540SPI\Obj\osal_bufmgr.r51        #
#                                                                             #
#                                                                             #
###############################################################################

c:\Users\Administrator\Documents\Dropbox\Fish Brain\HM-10 Hack\HM-10 Firmware\Components\osal\common\osal_bufmgr.c
      1          /**************************************************************************************************
      2            Filename:       osal_bufmgr.c
      3            Revised:        $Date: 2009-01-29 09:58:32 -0800 (Thu, 29 Jan 2009) $
      4            Revision:       $Revision: 18882 $
      5          
      6            Description:    This file contains the buffer management APIs. These APIs
      7                            are not reentrant hence cannot be called from an interrupt
      8                            contex.
      9          
     10          
     11            Copyright 2008-2013 Texas Instruments Incorporated. All rights reserved.
     12          
     13            IMPORTANT: Your use of this Software is limited to those specific rights
     14            granted under the terms of a software license agreement between the user
     15            who downloaded the software, his/her employer (which must be your employer)
     16            and Texas Instruments Incorporated (the "License").  You may not use this
     17            Software unless you agree to abide by the terms of the License. The License
     18            limits your use, and you acknowledge, that the Software may not be modified,
     19            copied or distributed unless embedded on a Texas Instruments microcontroller
     20            or used solely and exclusively in conjunction with a Texas Instruments radio
     21            frequency transceiver, which is integrated into your product.  Other than for
     22            the foregoing purpose, you may not use, reproduce, copy, prepare derivative
     23            works of, modify, distribute, perform, display or sell this Software and/or
     24            its documentation for any purpose.
     25          
     26            YOU FURTHER ACKNOWLEDGE AND AGREE THAT THE SOFTWARE AND DOCUMENTATION ARE
     27            PROVIDED “AS IS” WITHOUT WARRANTY OF ANY KIND, EITHER EXPRESS OR IMPLIED,
     28            INCLUDING WITHOUT LIMITATION, ANY WARRANTY OF MERCHANTABILITY, TITLE,
     29            NON-INFRINGEMENT AND FITNESS FOR A PARTICULAR PURPOSE. IN NO EVENT SHALL
     30            TEXAS INSTRUMENTS OR ITS LICENSORS BE LIABLE OR OBLIGATED UNDER CONTRACT,
     31            NEGLIGENCE, STRICT LIABILITY, CONTRIBUTION, BREACH OF WARRANTY, OR OTHER
     32            LEGAL EQUITABLE THEORY ANY DIRECT OR INDIRECT DAMAGES OR EXPENSES
     33            INCLUDING BUT NOT LIMITED TO ANY INCIDENTAL, SPECIAL, INDIRECT, PUNITIVE
     34            OR CONSEQUENTIAL DAMAGES, LOST PROFITS OR LOST DATA, COST OF PROCUREMENT
     35            OF SUBSTITUTE GOODS, TECHNOLOGY, SERVICES, OR ANY CLAIMS BY THIRD PARTIES
     36            (INCLUDING BUT NOT LIMITED TO ANY DEFENSE THEREOF), OR OTHER SIMILAR COSTS.
     37          
     38            Should you have any questions regarding your right to use this Software,
     39            contact Texas Instruments Incorporated at www.TI.com.
     40          **************************************************************************************************/
     41          
     42          
     43          /*********************************************************************
     44           * INCLUDES
     45           */
     46          #include "OSAL.h"
     47          #include "OnBoard.h"

   \                                 In  segment SFR_AN, at 0xa8
   \   union <unnamed> volatile __sfr _A_IEN0
   \                     _A_IEN0:
   \   000000                DS 1
     48          #include "osal_bufmgr.h"
     49          
     50          /*********************************************************************
     51           * MACROS
     52           */
     53          // 'bd_ptr' used with these macros must be of the type 'bm_desc_t *'
     54          #define START_PTR( bd_ptr )  ( (bd_ptr) + 1 )
     55          #define END_PTR( bd_ptr )    ( (uint8 *)START_PTR( bd_ptr ) + (bd_ptr)->payload_len )
     56          
     57          /*********************************************************************
     58           * CONSTANTS
     59           */
     60          
     61          /*********************************************************************
     62           * TYPEDEFS
     63           */
     64          typedef struct bm_desc
     65          {
     66            struct bm_desc *next_ptr;    // pointer to next buffer descriptor
     67            uint16          payload_len; // length of user's buffer
     68          } bm_desc_t;
     69          
     70          /*********************************************************************
     71           * GLOBAL VARIABLES
     72           */
     73          
     74          /*********************************************************************
     75           * GLOBAL FUNCTIONS
     76           */
     77          
     78          /*********************************************************************
     79           * LOCAL VARIABLES
     80           */
     81          // Linked list of allocated buffer descriptors

   \                                 In  segment XDATA_Z, align 1, keep-with-next
     82          static bm_desc_t *bm_list_ptr = NULL;
   \                     bm_list_ptr:
   \   000000                DS 2
   \   000002                REQUIRE __INIT_XDATA_Z
     83          
     84          /*********************************************************************
     85           * LOCAL FUNCTIONS
     86           */
     87          static bm_desc_t *bm_desc_from_payload ( uint8 *payload_ptr );
     88          
     89          /*********************************************************************
     90           * @fn      osal_bm_alloc
     91           *
     92           * @brief   Implementation of the allocator functionality.
     93           *
     94           *          WARNING: THIS FUNCTION CAN BE CALLED ONLY FROM THE BOTTOM
     95           *                   LAYER OF THE STACK (HCI FOR DUAL MODE AND LINK
     96           *                   LAYER FOR SINGLE MODE).
     97           *
     98           * @param   size - number of bytes to allocate from the heap.
     99           *
    100           * @return  pointer to the heap allocation; NULL if error or failure.
    101           */

   \                                 In  segment BANKED_CODE, align 1, keep-with-next
    102          void *osal_bm_alloc( uint16 size )
   \                     osal_bm_alloc:
    103          {
   \   000000                REQUIRE ?V0
   \   000000                REQUIRE ?V2
   \   000000                REQUIRE ?V3
   \   000000   74F4         MOV     A,#-0xc
   \   000002   12....       LCALL   ?BANKED_ENTER_XDATA
   \   000005                ; Saved register size: 12
   \   000005                ; Auto size: 0
   \   000005   EA           MOV     A,R2
   \   000006   FE           MOV     R6,A
   \   000007   EB           MOV     A,R3
   \   000008   FF           MOV     R7,A
    104            halIntState_t  cs;
    105            bm_desc_t     *bd_ptr;
    106          
    107            HAL_ENTER_CRITICAL_SECTION(cs);
   \   000009   A2AF         MOV     C,0xa8.7
   \   00000B   E4           CLR     A
   \   00000C   33           RLC     A
   \   00000D   F5..         MOV     ?V0,A
   \   00000F   C2AF         CLR     0xa8.7
    108          
    109            bd_ptr = osal_mem_alloc( sizeof( bm_desc_t ) + size );
   \   000011                ; Setup parameters for call to function osal_mem_alloc
   \   000011   EE           MOV     A,R6
   \   000012   2404         ADD     A,#0x4
   \   000014   FA           MOV     R2,A
   \   000015   E4           CLR     A
   \   000016   3F           ADDC    A,R7
   \   000017   FB           MOV     R3,A
   \   000018   12....       LCALL   ??osal_mem_alloc?relay; Banked call to: osal_mem_alloc
    110          
    111            if ( bd_ptr != NULL )
   \   00001B   EA           MOV     A,R2
   \   00001C   4B           ORL     A,R3
   \   00001D   602B         JZ      ??osal_bm_alloc_0
    112            {
    113              // set the buffer descriptor info
    114              bd_ptr->payload_len  = size;
   \   00001F   8A82         MOV     DPL,R2
   \   000021   8B83         MOV     DPH,R3
   \   000023   A3           INC     DPTR
   \   000024   A3           INC     DPTR
   \   000025   EE           MOV     A,R6
   \   000026   F0           MOVX    @DPTR,A
   \   000027   A3           INC     DPTR
   \   000028   EF           MOV     A,R7
   \   000029   F0           MOVX    @DPTR,A
    115          
    116              // add item to the beginning of the list
    117              bd_ptr->next_ptr = bm_list_ptr;
   \   00002A   90....       MOV     DPTR,#bm_list_ptr
   \   00002D   E0           MOVX    A,@DPTR
   \   00002E   F8           MOV     R0,A
   \   00002F   A3           INC     DPTR
   \   000030   E0           MOVX    A,@DPTR
   \   000031   F9           MOV     R1,A
   \   000032   8A82         MOV     DPL,R2
   \   000034   8B83         MOV     DPH,R3
   \   000036   E8           MOV     A,R0
   \   000037   F0           MOVX    @DPTR,A
   \   000038   A3           INC     DPTR
   \   000039   E9           MOV     A,R1
   \   00003A   F0           MOVX    @DPTR,A
    118              bm_list_ptr = bd_ptr;
   \   00003B   90....       MOV     DPTR,#bm_list_ptr
   \   00003E   EA           MOV     A,R2
   \   00003F   F0           MOVX    @DPTR,A
   \   000040   A3           INC     DPTR
   \   000041   EB           MOV     A,R3
   \   000042   F0           MOVX    @DPTR,A
    119          
    120              // return start of the buffer
    121              bd_ptr = START_PTR( bd_ptr );
   \   000043   EA           MOV     A,R2
   \   000044   2404         ADD     A,#0x4
   \   000046   FA           MOV     R2,A
   \   000047   5001         JNC     ??osal_bm_alloc_0
   \   000049   0B           INC     R3
    122            }
    123          
    124            HAL_EXIT_CRITICAL_SECTION(cs);
   \                     ??osal_bm_alloc_0:
   \   00004A   E5..         MOV     A,?V0
   \   00004C   A2E0         MOV     C,0xE0 /* A   */.0
   \   00004E   92AF         MOV     0xa8.7,C
    125          
    126            return ( (void *)bd_ptr );
   \   000050                REQUIRE ?Subroutine0
   \   000050                REQUIRE _A_IEN0
   \   000050                ; // Fall through to label ?Subroutine0
    127          }

   \                                 In  segment BANKED_CODE, align 1, keep-with-next
   \                     ?Subroutine0:
   \   000000   7F04         MOV     R7,#0x4
   \   000002   02....       LJMP    ?BANKED_LEAVE_XDATA
    128          
    129          /*********************************************************************
    130           * @fn      osal_bm_free
    131           *
    132           * @brief   Implementation of the de-allocator functionality.
    133           *
    134           * @param   payload_ptr - pointer to the memory to free.
    135           *
    136           * @return  none
    137           */

   \                                 In  segment BANKED_CODE, align 1, keep-with-next
    138          void osal_bm_free( void *payload_ptr )
   \                     osal_bm_free:
    139          {
   \   000000                REQUIRE ?V0
   \   000000                REQUIRE ?V1
   \   000000   74F6         MOV     A,#-0xa
   \   000002   12....       LCALL   ?BANKED_ENTER_XDATA
   \   000005                ; Saved register size: 10
   \   000005                ; Auto size: 0
   \   000005   EA           MOV     A,R2
   \   000006   F8           MOV     R0,A
   \   000007   EB           MOV     A,R3
   \   000008   F9           MOV     R1,A
    140            halIntState_t cs;
    141            bm_desc_t *loop_ptr;
    142            bm_desc_t *prev_ptr;
    143          
    144            HAL_ENTER_CRITICAL_SECTION(cs);
   \   000009   A2AF         MOV     C,0xa8.7
   \   00000B   E4           CLR     A
   \   00000C   33           RLC     A
   \   00000D   FE           MOV     R6,A
   \   00000E   C2AF         CLR     0xa8.7
    145          
    146            prev_ptr = NULL;
   \   000010   7C00         MOV     R4,#0x0
   \   000012   7D00         MOV     R5,#0x0
    147          
    148            loop_ptr = bm_list_ptr;
   \   000014   90....       MOV     DPTR,#bm_list_ptr
   \   000017   12....       LCALL   ??Subroutine3_0 & 0xFFFF
   \                     ??CrossCallReturnLabel_2:
   \   00001A   88..         MOV     ?V0,R0
   \   00001C   89..         MOV     ?V1,R1
   \   00001E   8007         SJMP    ??CrossCallReturnLabel_5
    149            while ( loop_ptr != NULL )
    150            {
    151              if ( payload_ptr >= (void *)START_PTR( loop_ptr ) &&
    152                   payload_ptr <= (void *)END_PTR( loop_ptr) )
    153              {
    154                // unlink item from the linked list
    155                if ( prev_ptr == NULL )
    156                {
    157                  // it's the first item on the list
    158                  bm_list_ptr = loop_ptr->next_ptr;
    159                }
    160                else
    161                {
    162                  prev_ptr->next_ptr = loop_ptr->next_ptr;
    163                }
    164          
    165                // free the memory
    166                osal_mem_free( loop_ptr );
    167          
    168                // we're done here
    169                break;
    170              }
    171          
    172              // move on to next item
    173              prev_ptr = loop_ptr;
   \                     ??osal_bm_free_0:
   \   000020   EA           MOV     A,R2
   \   000021   FC           MOV     R4,A
   \   000022   EB           MOV     A,R3
   \   000023   FD           MOV     R5,A
    174              loop_ptr = loop_ptr->next_ptr;
   \   000024   12....       LCALL   ?Subroutine2 & 0xFFFF
   \                     ??CrossCallReturnLabel_5:
   \   000027   EA           MOV     A,R2
   \   000028   4B           ORL     A,R3
   \   000029   6039         JZ      ??osal_bm_free_1
   \   00002B   EA           MOV     A,R2
   \   00002C   2404         ADD     A,#0x4
   \   00002E   F8           MOV     R0,A
   \   00002F   E4           CLR     A
   \   000030   3B           ADDC    A,R3
   \   000031   F9           MOV     R1,A
   \   000032   C3           CLR     C
   \   000033   E5..         MOV     A,?V0
   \   000035   98           SUBB    A,R0
   \   000036   E5..         MOV     A,?V1
   \   000038   99           SUBB    A,R1
   \   000039   40E5         JC      ??osal_bm_free_0
   \   00003B   12....       LCALL   ?Subroutine1 & 0xFFFF
   \                     ??CrossCallReturnLabel_0:
   \   00003E   95..         SUBB    A,?V0
   \   000040   E583         MOV     A,DPH
   \   000042   95..         SUBB    A,?V1
   \   000044   40DA         JC      ??osal_bm_free_0
   \   000046   8A82         MOV     DPL,R2
   \   000048   8B83         MOV     DPH,R3
   \   00004A   E0           MOVX    A,@DPTR
   \   00004B   F8           MOV     R0,A
   \   00004C   A3           INC     DPTR
   \   00004D   E0           MOVX    A,@DPTR
   \   00004E   F9           MOV     R1,A
   \   00004F   EC           MOV     A,R4
   \   000050   4D           ORL     A,R5
   \   000051   7005         JNZ     ??osal_bm_free_2
   \   000053   90....       MOV     DPTR,#bm_list_ptr
   \   000056   8004         SJMP    ??osal_bm_free_3
   \                     ??osal_bm_free_2:
   \   000058   8C82         MOV     DPL,R4
   \   00005A   8D83         MOV     DPH,R5
   \                     ??osal_bm_free_3:
   \   00005C   E8           MOV     A,R0
   \   00005D   F0           MOVX    @DPTR,A
   \   00005E   A3           INC     DPTR
   \   00005F   E9           MOV     A,R1
   \   000060   F0           MOVX    @DPTR,A
   \   000061                ; Setup parameters for call to function osal_mem_free
   \   000061   12....       LCALL   ??osal_mem_free?relay; Banked call to: osal_mem_free
    175            }
    176          
    177            HAL_EXIT_CRITICAL_SECTION(cs);
   \                     ??osal_bm_free_1:
   \   000064   EE           MOV     A,R6
   \   000065   A2E0         MOV     C,0xE0 /* A   */.0
   \   000067   92AF         MOV     0xa8.7,C
    178          
    179            return;
   \   000069   7F02         MOV     R7,#0x2
   \   00006B   02....       LJMP    ?BANKED_LEAVE_XDATA
   \   00006E                REQUIRE _A_IEN0
    180          }

   \                                 In  segment BANKED_CODE, align 1, keep-with-next
   \                     ?Subroutine2:
   \   000000   8A82         MOV     DPL,R2
   \   000002   8B83         MOV     DPH,R3
   \   000004                REQUIRE ??Subroutine3_0
   \   000004                ; // Fall through to label ??Subroutine3_0

   \                                 In  segment BANKED_CODE, align 1, keep-with-next
   \                     ??Subroutine3_0:
   \   000000   E0           MOVX    A,@DPTR
   \   000001   FA           MOV     R2,A
   \   000002   A3           INC     DPTR
   \   000003   E0           MOVX    A,@DPTR
   \   000004   FB           MOV     R3,A
   \   000005   22           RET

   \                                 In  segment BANKED_CODE, align 1, keep-with-next
   \                     ?Subroutine1:
   \   000000   8A82         MOV     DPL,R2
   \   000002   8B83         MOV     DPH,R3
   \   000004   A3           INC     DPTR
   \   000005   A3           INC     DPTR
   \   000006   E0           MOVX    A,@DPTR
   \   000007   F8           MOV     R0,A
   \   000008   A3           INC     DPTR
   \   000009   E0           MOVX    A,@DPTR
   \   00000A   F9           MOV     R1,A
   \   00000B   EA           MOV     A,R2
   \   00000C   28           ADD     A,R0
   \   00000D   F582         MOV     DPL,A
   \   00000F   EB           MOV     A,R3
   \   000010   39           ADDC    A,R1
   \   000011   F583         MOV     DPH,A
   \   000013   A3           INC     DPTR
   \   000014   A3           INC     DPTR
   \   000015   A3           INC     DPTR
   \   000016   A3           INC     DPTR
   \   000017   C3           CLR     C
   \   000018   E582         MOV     A,DPL
   \   00001A   22           RET
    181          
    182          /*********************************************************************
    183           * @fn      osal_bm_adjust_header
    184           *
    185           * @brief   Add or remove header space for the payload pointer. A positive
    186           *          adjustment adds header space, and negative removes header space.
    187           *
    188           * @param   payload_ptr - pointer to payload
    189           * @param   size - +/- number of bytes to move (affecting header area)
    190           *
    191           * @return  pointer to payload at the new adjusted location
    192           */

   \                                 In  segment BANKED_CODE, align 1, keep-with-next
    193          void *osal_bm_adjust_header( void *payload_ptr, int16 size )
   \                     osal_bm_adjust_header:
    194          {
   \   000000                REQUIRE ?V0
   \   000000                REQUIRE ?V1
   \   000000                REQUIRE ?V2
   \   000000                REQUIRE ?V3
   \   000000   74F4         MOV     A,#-0xc
   \   000002   12....       LCALL   ?BANKED_ENTER_XDATA
   \   000005                ; Saved register size: 12
   \   000005                ; Auto size: 0
   \   000005   EA           MOV     A,R2
   \   000006   FE           MOV     R6,A
   \   000007   EB           MOV     A,R3
   \   000008   FF           MOV     R7,A
   \   000009   8C..         MOV     ?V0,R4
   \   00000B   8D..         MOV     ?V1,R5
    195            bm_desc_t *bd_ptr;
    196            uint8 *new_payload_ptr;
    197          
    198            bd_ptr = bm_desc_from_payload( (uint8 *)payload_ptr );
   \   00000D                ; Setup parameters for call to function bm_desc_from_payload
   \   00000D   12....       LCALL   ??bm_desc_from_payload?relay; Banked call to: bm_desc_from_payload
   \   000010   8A..         MOV     ?V2,R2
   \   000012   8B..         MOV     ?V3,R3
   \   000014   A8..         MOV     R0,?V2
   \   000016   A9..         MOV     R1,?V3
    199            if ( bd_ptr != NULL )
   \   000018   E8           MOV     A,R0
   \   000019   49           ORL     A,R1
   \   00001A   6043         JZ      ??osal_bm_adjust_header_0
    200            {
    201              new_payload_ptr = (uint8 *)( (uint8 *)payload_ptr - size );
   \   00001C   C3           CLR     C
   \   00001D   E4           CLR     A
   \   00001E   95..         SUBB    A,?V0
   \   000020   FA           MOV     R2,A
   \   000021   E4           CLR     A
   \   000022   95..         SUBB    A,?V1
   \   000024   FB           MOV     R3,A
   \   000025   EE           MOV     A,R6
   \   000026   2A           ADD     A,R2
   \   000027   FA           MOV     R2,A
   \   000028   EF           MOV     A,R7
   \   000029   3B           ADDC    A,R3
   \   00002A   FB           MOV     R3,A
    202          
    203              // make sure the new payload is within valid range
    204              if ( new_payload_ptr >= (uint8 *)START_PTR( bd_ptr ) &&
    205                   new_payload_ptr <= (uint8 *)END_PTR( bd_ptr ) )
   \   00002B   8A..         MOV     ?V0,R2
   \   00002D   8B..         MOV     ?V1,R3
   \   00002F   E8           MOV     A,R0
   \   000030   2404         ADD     A,#0x4
   \   000032   FC           MOV     R4,A
   \   000033   E4           CLR     A
   \   000034   39           ADDC    A,R1
   \   000035   FD           MOV     R5,A
   \   000036   C3           CLR     C
   \   000037   EA           MOV     A,R2
   \   000038   9C           SUBB    A,R4
   \   000039   EB           MOV     A,R3
   \   00003A   9D           SUBB    A,R5
   \   00003B   4022         JC      ??osal_bm_adjust_header_0
   \   00003D   8882         MOV     DPL,R0
   \   00003F   8983         MOV     DPH,R1
   \   000041   A3           INC     DPTR
   \   000042   A3           INC     DPTR
   \   000043   E0           MOVX    A,@DPTR
   \   000044   FC           MOV     R4,A
   \   000045   A3           INC     DPTR
   \   000046   E0           MOVX    A,@DPTR
   \   000047   FD           MOV     R5,A
   \   000048   E8           MOV     A,R0
   \   000049   2C           ADD     A,R4
   \   00004A   F582         MOV     DPL,A
   \   00004C   E9           MOV     A,R1
   \   00004D   3D           ADDC    A,R5
   \   00004E   F583         MOV     DPH,A
   \   000050   A3           INC     DPTR
   \   000051   A3           INC     DPTR
   \   000052   A3           INC     DPTR
   \   000053   A3           INC     DPTR
   \   000054   C3           CLR     C
   \   000055   E582         MOV     A,DPL
   \   000057   95..         SUBB    A,?V0
   \   000059   E583         MOV     A,DPH
   \   00005B   95..         SUBB    A,?V1
   \   00005D   5004         JNC     ??osal_bm_adjust_header_1
    206              {
    207                // return new payload pointer
    208                return ( (void *)new_payload_ptr );
    209              }
    210            }
    211          
    212            // return original value
    213            return ( payload_ptr );
   \                     ??osal_bm_adjust_header_0:
   \   00005F   EE           MOV     A,R6
   \   000060   FA           MOV     R2,A
   \   000061   EF           MOV     A,R7
   \   000062   FB           MOV     R3,A
   \                     ??osal_bm_adjust_header_1:
   \   000063   02....       LJMP    ?Subroutine0 & 0xFFFF
    214          }
    215          
    216          /*********************************************************************
    217           * @fn      osal_bm_adjust_tail
    218           *
    219           * @brief   Add or remove tail space for the payload pointer. A positive
    220           *          adjustment adds tail space, and negative removes tail space.
    221           *
    222           * @param   payload_ptr - pointer to payload
    223           * @param   size - +/- number of bytes to move (affecting header area)
    224           *
    225           * @return  pointer to payload at the new adjusted location
    226           */

   \                                 In  segment BANKED_CODE, align 1, keep-with-next
    227          void *osal_bm_adjust_tail( void *payload_ptr, int16 size )
   \                     osal_bm_adjust_tail:
    228          {
   \   000000                REQUIRE ?V0
   \   000000                REQUIRE ?V1
   \   000000                REQUIRE ?V2
   \   000000                REQUIRE ?V3
   \   000000   74F4         MOV     A,#-0xc
   \   000002   12....       LCALL   ?BANKED_ENTER_XDATA
   \   000005                ; Saved register size: 12
   \   000005                ; Auto size: 0
   \   000005   8A..         MOV     ?V0,R2
   \   000007   8B..         MOV     ?V1,R3
   \   000009   EC           MOV     A,R4
   \   00000A   FE           MOV     R6,A
   \   00000B   ED           MOV     A,R5
   \   00000C   FF           MOV     R7,A
    229            bm_desc_t *bd_ptr;
    230            uint8 *new_payload_ptr;
    231          
    232            bd_ptr = bm_desc_from_payload( (uint8 *)payload_ptr );
   \   00000D                ; Setup parameters for call to function bm_desc_from_payload
   \   00000D   12....       LCALL   ??bm_desc_from_payload?relay; Banked call to: bm_desc_from_payload
   \   000010   8A..         MOV     ?V2,R2
   \   000012   8B..         MOV     ?V3,R3
   \   000014   A8..         MOV     R0,?V2
   \   000016   A9..         MOV     R1,?V3
    233            if ( bd_ptr != NULL )
   \   000018   E8           MOV     A,R0
   \   000019   49           ORL     A,R1
   \   00001A   6045         JZ      ??osal_bm_adjust_tail_0
   \   00001C   8882         MOV     DPL,R0
   \   00001E   8983         MOV     DPH,R1
   \   000020   A3           INC     DPTR
   \   000021   A3           INC     DPTR
   \   000022   12....       LCALL   ??Subroutine3_0 & 0xFFFF
   \                     ??CrossCallReturnLabel_3:
   \   000025   E8           MOV     A,R0
   \   000026   2A           ADD     A,R2
   \   000027   F582         MOV     DPL,A
   \   000029   E9           MOV     A,R1
   \   00002A   3B           ADDC    A,R3
   \   00002B   F583         MOV     DPH,A
   \   00002D   C3           CLR     C
   \   00002E   E4           CLR     A
   \   00002F   9E           SUBB    A,R6
   \   000030   FA           MOV     R2,A
   \   000031   E4           CLR     A
   \   000032   9F           SUBB    A,R7
   \   000033   FB           MOV     R3,A
   \   000034   E582         MOV     A,DPL
   \   000036   2A           ADD     A,R2
   \   000037   FA           MOV     R2,A
   \   000038   E583         MOV     A,DPH
   \   00003A   3B           ADDC    A,R3
   \   00003B   FB           MOV     R3,A
   \   00003C   EA           MOV     A,R2
   \   00003D   2404         ADD     A,#0x4
   \   00003F   FA           MOV     R2,A
   \   000040   5001         JNC     ??osal_bm_adjust_tail_1
   \   000042   0B           INC     R3
    234            {
    235              new_payload_ptr = (uint8 *)END_PTR( bd_ptr ) - size;
    236          
    237              // make sure the new payload is within valid range
    238              if ( new_payload_ptr >= (uint8 *)START_PTR( bd_ptr ) &&
    239                   new_payload_ptr <= (uint8 *)END_PTR( bd_ptr ) )
   \                     ??osal_bm_adjust_tail_1:
   \   000043   FC           MOV     R4,A
   \   000044   EB           MOV     A,R3
   \   000045   FD           MOV     R5,A
   \   000046   E8           MOV     A,R0
   \   000047   2404         ADD     A,#0x4
   \   000049   F8           MOV     R0,A
   \   00004A   5001         JNC     ??osal_bm_adjust_tail_2
   \   00004C   09           INC     R1
   \                     ??osal_bm_adjust_tail_2:
   \   00004D   C3           CLR     C
   \   00004E   EC           MOV     A,R4
   \   00004F   98           SUBB    A,R0
   \   000050   ED           MOV     A,R5
   \   000051   99           SUBB    A,R1
   \   000052   400D         JC      ??osal_bm_adjust_tail_0
   \   000054   A3           INC     DPTR
   \   000055   A3           INC     DPTR
   \   000056   A3           INC     DPTR
   \   000057   A3           INC     DPTR
   \   000058   C3           CLR     C
   \   000059   E582         MOV     A,DPL
   \   00005B   9C           SUBB    A,R4
   \   00005C   E583         MOV     A,DPH
   \   00005E   9D           SUBB    A,R5
   \   00005F   5004         JNC     ??osal_bm_adjust_tail_3
    240              {
    241                // return new payload pointer
    242                return ( (void *)new_payload_ptr );
    243              }
    244            }
    245          
    246            // return original value
    247            return ( payload_ptr );
   \                     ??osal_bm_adjust_tail_0:
   \   000061   AA..         MOV     R2,?V0
   \   000063   AB..         MOV     R3,?V1
   \                     ??osal_bm_adjust_tail_3:
   \   000065   02....       LJMP    ?Subroutine0 & 0xFFFF
    248          }
    249          
    250          /*********************************************************************
    251           * @fn      bm_desc_from_payload
    252           *
    253           * @brief   Find buffer descriptor from payload pointer
    254           *
    255           * @param   payload_ptr - pointer to payload
    256           *
    257           * @return  pointer to buffer descriptor
    258           */

   \                                 In  segment BANKED_CODE, align 1, keep-with-next
    259          static bm_desc_t *bm_desc_from_payload ( uint8 *payload_ptr )
   \                     bm_desc_from_payload:
    260          {
   \   000000   C082         PUSH    DPL
   \   000002   C083         PUSH    DPH
   \   000004                ; Saved register size: 2
   \   000004                ; Auto size: 0
   \   000004   EA           MOV     A,R2
   \   000005   F8           MOV     R0,A
   \   000006   EB           MOV     A,R3
   \   000007   F9           MOV     R1,A
    261            bm_desc_t *loop_ptr;
    262          
    263            loop_ptr = bm_list_ptr;
   \   000008   90....       MOV     DPTR,#bm_list_ptr
   \   00000B   12....       LCALL   ??Subroutine3_0 & 0xFFFF
   \                     ??CrossCallReturnLabel_4:
   \   00000E   E8           MOV     A,R0
   \   00000F   FC           MOV     R4,A
   \   000010   E9           MOV     A,R1
   \   000011   FD           MOV     R5,A
   \   000012   8003         SJMP    ??CrossCallReturnLabel_6
    264            while ( loop_ptr != NULL )
    265            {
    266              if ( payload_ptr >= (uint8 *)START_PTR( loop_ptr ) &&
    267                   payload_ptr <= (uint8 *)END_PTR( loop_ptr) )
    268              {
    269                // item found
    270                break;
    271              }
    272          
    273              // move on to next item
    274              loop_ptr = loop_ptr->next_ptr;
   \                     ??bm_desc_from_payload_0:
   \   000014   12....       LCALL   ?Subroutine2 & 0xFFFF
   \                     ??CrossCallReturnLabel_6:
   \   000017   EA           MOV     A,R2
   \   000018   4B           ORL     A,R3
   \   000019   6017         JZ      ??bm_desc_from_payload_1
   \   00001B   EA           MOV     A,R2
   \   00001C   2404         ADD     A,#0x4
   \   00001E   F8           MOV     R0,A
   \   00001F   E4           CLR     A
   \   000020   3B           ADDC    A,R3
   \   000021   F9           MOV     R1,A
   \   000022   C3           CLR     C
   \   000023   EC           MOV     A,R4
   \   000024   98           SUBB    A,R0
   \   000025   ED           MOV     A,R5
   \   000026   99           SUBB    A,R1
   \   000027   40EB         JC      ??bm_desc_from_payload_0
   \   000029   12....       LCALL   ?Subroutine1 & 0xFFFF
    275            }
   \                     ??CrossCallReturnLabel_1:
   \   00002C   9C           SUBB    A,R4
   \   00002D   E583         MOV     A,DPH
   \   00002F   9D           SUBB    A,R5
   \   000030   40E2         JC      ??bm_desc_from_payload_0
    276          
    277            return ( loop_ptr );
   \                     ??bm_desc_from_payload_1:
   \   000032   D083         POP     DPH
   \   000034   D082         POP     DPL
   \   000036   02....       LJMP    ?BRET
    278          }

   \                                 In  segment BANK_RELAYS, align 1
   \                     ??osal_bm_alloc?relay:
   \   000000   12....       LCALL   ?BDISPATCH
   \   000003   ......       DC24    osal_bm_alloc

   \                                 In  segment BANK_RELAYS, align 1
   \                     ??osal_bm_free?relay:
   \   000000   12....       LCALL   ?BDISPATCH
   \   000003   ......       DC24    osal_bm_free

   \                                 In  segment BANK_RELAYS, align 1
   \                     ??osal_bm_adjust_header?relay:
   \   000000   12....       LCALL   ?BDISPATCH
   \   000003   ......       DC24    osal_bm_adjust_header

   \                                 In  segment BANK_RELAYS, align 1
   \                     ??osal_bm_adjust_tail?relay:
   \   000000   12....       LCALL   ?BDISPATCH
   \   000003   ......       DC24    osal_bm_adjust_tail

   \                                 In  segment BANK_RELAYS, align 1
   \                     ??bm_desc_from_payload?relay:
   \   000000   12....       LCALL   ?BDISPATCH
   \   000003   ......       DC24    bm_desc_from_payload
    279          
    280          
    281          /****************************************************************************
    282          ****************************************************************************/

   Maximum stack usage in bytes:

   ISTACK XSTACK Function
   ------ ------ --------
      2     12   bm_desc_from_payload
      0     12   osal_bm_adjust_header
        0     12   -> bm_desc_from_payload
      0     12   osal_bm_adjust_tail
        0     12   -> bm_desc_from_payload
      0     12   osal_bm_alloc
        0     12   -> osal_mem_alloc
      0     10   osal_bm_free
        0     10   -> osal_mem_free


   Segment part sizes:

   Bytes  Function/Label
   -----  --------------
       6  ??Subroutine3_0
       6  ??bm_desc_from_payload?relay
       6  ??osal_bm_adjust_header?relay
       6  ??osal_bm_adjust_tail?relay
       6  ??osal_bm_alloc?relay
       6  ??osal_bm_free?relay
       5  ?Subroutine0
      27  ?Subroutine1
       4  ?Subroutine2
       1  _A_IEN0
      57  bm_desc_from_payload
       2  bm_list_ptr
     102  osal_bm_adjust_header
     104  osal_bm_adjust_tail
      80  osal_bm_alloc
     110  osal_bm_free

 
 495 bytes in segment BANKED_CODE
  30 bytes in segment BANK_RELAYS
   1 byte  in segment SFR_AN
   2 bytes in segment XDATA_Z
 
 525 bytes of CODE  memory
   0 bytes of DATA  memory (+ 1 byte shared)
   2 bytes of XDATA memory

Errors: none
Warnings: none
