///////////////////////////////////////////////////////////////////////////////
//                                                                            /
// IAR C/C++ Compiler V8.30.1.41636 for 8051            02/Jun/2014  22:55:48 /
// Copyright 2004-2013 IAR Systems AB.                                        /
//                                                                            /
//    Core               =  plain                                             /
//    Code model         =  banked                                            /
//    Data model         =  large                                             /
//    Calling convention =  xdata reentrant                                   /
//    Constant location  =  data_rom                                          /
//    Dptr setup         =  1,16                                              /
//                                                                            /
//    Source file        =  c:\Users\Administrator\Documents\Dropbox\Fish     /
//                          Brain\HM-10 Hack\HM-10 Firmware\Projects\ble\Host /
//                          TestApp\Source\OSAL_HostTest.c                    /
//    Command line       =  -f "c:\Users\Administrator\Documents\Dropbox\Fish /
//                           Brain\HM-10 Hack\HM-10                           /
//                          Firmware\Projects\ble\HostTestApp\CC2540\..\..\co /
//                          nfig\buildComponents.cfg"                         /
//                          (-DBROADCASTER_CFG=0x01 -DOBSERVER_CFG=0x02       /
//                          -DPERIPHERAL_CFG=0x04 -DCENTRAL_CFG=0x08          /
//                          -DADV_NCONN_CFG=0x01 -DADV_CONN_CFG=0x02          /
//                          -DSCAN_CFG=0x04 -DINIT_CFG=0x08                   /
//                          -DADV_CFG=ADV_NCONN_CFG+ADV_CONN_CFG              /
//                          -DLINK_CFG=ADV_CONN_CFG+INIT_CFG                  /
//                          -DFULL_CFG=INIT_CFG+SCAN_CFG+ADV_NCONN_CFG+ADV_CO /
//                          NN_CFG) -f "c:\Users\Administrator\Documents\Drop /
//                          box\Fish Brain\HM-10 Hack\HM-10                   /
//                          Firmware\Projects\ble\HostTestApp\CC2540\buildCon /
//                          fig.cfg" (-DHOST_CONFIG=PERIPHERAL_CFG+CENTRAL_CF /
//                          G -DGAP_PRIVACY_RECONNECT)                        /
//                          "c:\Users\Administrator\Documents\Dropbox\Fish    /
//                          Brain\HM-10 Hack\HM-10 Firmware\Projects\ble\Host /
//                          TestApp\Source\OSAL_HostTest.c" -D                /
//                          INT_HEAP_LEN=2700 -D HALNODEBUG -D                /
//                          OSAL_CBTIMER_NUM_TASKS=1 -D POWER_SAVING -D       /
//                          HAL_AES_DMA=TRUE -D HAL_DMA=TRUE -D               /
//                          HAL_UART=TRUE -D HAL_UART_DMA=0 -D                /
//                          HAL_UART_ISR=0 -D HAL_UART_SPI=2 -D               /
//                          HAL_SPI_QUEUED_TX=TRUE -D HAL_KEY=FALSE -D        /
//                          HAL_LCD=FALSE -D HAL_LED=FALSE -D                 /
//                          GATT_DB_OFF_CHIP -D GAP_BOND_MGR -lCN             /
//                          "c:\Users\Administrator\Documents\Dropbox\Fish    /
//                          Brain\HM-10 Hack\HM-10 Firmware\Projects\ble\Host /
//                          TestApp\CC2540\CC2540SPI\List\" -lA               /
//                          "c:\Users\Administrator\Documents\Dropbox\Fish    /
//                          Brain\HM-10 Hack\HM-10 Firmware\Projects\ble\Host /
//                          TestApp\CC2540\CC2540SPI\List\" -o                /
//                          "c:\Users\Administrator\Documents\Dropbox\Fish    /
//                          Brain\HM-10 Hack\HM-10 Firmware\Projects\ble\Host /
//                          TestApp\CC2540\CC2540SPI\Obj\" -e --debug         /
//                          --core=plain --dptr=16,1 --data_model=large       /
//                          --code_model=banked --calling_convention=xdata_re /
//                          entrant --place_constants=data_rom                /
//                          --nr_virtual_regs 8 -I "c:\Users\Administrator\Do /
//                          cuments\Dropbox\Fish Brain\HM-10 Hack\HM-10       /
//                          Firmware\Projects\ble\HostTestApp\CC2540\..\..\co /
//                          mmon\" -I "c:\Users\Administrator\Documents\Dropb /
//                          ox\Fish Brain\HM-10 Hack\HM-10                    /
//                          Firmware\Projects\ble\HostTestApp\CC2540\..\..\.. /
//                          \..\Components\hal\include\" -I                   /
//                          "c:\Users\Administrator\Documents\Dropbox\Fish    /
//                          Brain\HM-10 Hack\HM-10 Firmware\Projects\ble\Host /
//                          TestApp\CC2540\..\..\..\..\Components\hal\target\ /
//                          CC2540EB\" -I "c:\Users\Administrator\Documents\D /
//                          ropbox\Fish Brain\HM-10 Hack\HM-10                /
//                          Firmware\Projects\ble\HostTestApp\CC2540\..\..\.. /
//                          \..\Components\osal\include\" -I                  /
//                          "c:\Users\Administrator\Documents\Dropbox\Fish    /
//                          Brain\HM-10 Hack\HM-10 Firmware\Projects\ble\Host /
//                          TestApp\CC2540\..\..\..\..\Components\services\sa /
//                          ddr\" -I "c:\Users\Administrator\Documents\Dropbo /
//                          x\Fish Brain\HM-10 Hack\HM-10                     /
//                          Firmware\Projects\ble\HostTestApp\CC2540\..\..\.. /
//                          \..\Components\ble\include\" -I                   /
//                          "c:\Users\Administrator\Documents\Dropbox\Fish    /
//                          Brain\HM-10 Hack\HM-10 Firmware\Projects\ble\Host /
//                          TestApp\CC2540\..\..\..\..\Components\ble\control /
//                          ler\phy\" -I "c:\Users\Administrator\Documents\Dr /
//                          opbox\Fish Brain\HM-10 Hack\HM-10                 /
//                          Firmware\Projects\ble\HostTestApp\CC2540\..\..\.. /
//                          \..\Components\ble\controller\include\" -I        /
//                          "c:\Users\Administrator\Documents\Dropbox\Fish    /
//                          Brain\HM-10 Hack\HM-10 Firmware\Projects\ble\Host /
//                          TestApp\CC2540\..\..\..\..\Components\ble\hci\"   /
//                          -I "c:\Users\Administrator\Documents\Dropbox\Fish /
//                           Brain\HM-10 Hack\HM-10                           /
//                          Firmware\Projects\ble\HostTestApp\CC2540\..\..\.. /
//                          \..\Components\ble\host\" -I                      /
//                          "c:\Users\Administrator\Documents\Dropbox\Fish    /
//                          Brain\HM-10 Hack\HM-10 Firmware\Projects\ble\Host /
//                          TestApp\CC2540\..\..\common\cc2540\" -I           /
//                          "c:\Users\Administrator\Documents\Dropbox\Fish    /
//                          Brain\HM-10 Hack\HM-10 Firmware\Projects\ble\Host /
//                          TestApp\CC2540\..\..\common\npi\npi_np\" -I       /
//                          "c:\Users\Administrator\Documents\Dropbox\Fish    /
//                          Brain\HM-10 Hack\HM-10 Firmware\Projects\ble\Host /
//                          TestApp\CC2540\..\..\Include\" -I                 /
//                          "c:\Users\Administrator\Documents\Dropbox\Fish    /
//                          Brain\HM-10 Hack\HM-10 Firmware\Projects\ble\Host /
//                          TestApp\CC2540\..\..\Profiles\Roles\" -I          /
//                          "c:\Users\Administrator\Documents\Dropbox\Fish    /
//                          Brain\HM-10 Hack\HM-10 Firmware\Projects\ble\Host /
//                          TestApp\CC2540\..\source\" -Ohz                   /
//    List file          =  c:\Users\Administrator\Documents\Dropbox\Fish     /
//                          Brain\HM-10 Hack\HM-10 Firmware\Projects\ble\Host /
//                          TestApp\CC2540\CC2540SPI\List\OSAL_HostTest.s51   /
//                                                                            /
//                                                                            /
///////////////////////////////////////////////////////////////////////////////

        NAME OSAL_HostTest

        RTMODEL "__SystemLibrary", "CLib"
        RTMODEL "__calling_convention", "xdata_reentrant"
        RTMODEL "__code_model", "banked"
        RTMODEL "__core", "plain"
        RTMODEL "__data_model", "large"
        RTMODEL "__dptr_size", "16"
        RTMODEL "__extended_stack", "disabled"
        RTMODEL "__location_for_constants", "data"
        RTMODEL "__number_of_dptrs", "1"
        RTMODEL "__rt_version", "1"

        RSEG DOVERLAY:DATA:NOROOT(0)
        RSEG IOVERLAY:IDATA:NOROOT(0)
        RSEG ISTACK:IDATA:NOROOT(0)
        RSEG PSTACK:XDATA:NOROOT(0)
        RSEG XSTACK:XDATA:NOROOT(0)

        EXTERN ?BDISPATCH
        EXTERN ?BRET
        EXTERN __INIT_XDATA_Z

        PUBLIC ??osalInitTasks?relay
        FUNCTION ??osalInitTasks?relay,0203H
        PUBLIC osalInitTasks
        FUNCTION osalInitTasks,021203H
        ARGFRAME XSTACK, 0, STACK
        LOCFRAME ISTACK, 2, STACK
        PUBLIC tasksArr
        PUBLIC tasksCnt
        PUBLIC tasksEvents
        
          CFI Names cfiNames0
          CFI StackFrame CFA_SP SP IDATA
          CFI StackFrame CFA_PSP16 PSP16 XDATA
          CFI StackFrame CFA_XSP16 XSP16 XDATA
          CFI StaticOverlayFrame CFA_IOVERLAY IOVERLAY
          CFI StaticOverlayFrame CFA_DOVERLAY DOVERLAY
          CFI Resource `PSW.CY`:1, `B.BR0`:1, `B.BR1`:1, `B.BR2`:1, `B.BR3`:1
          CFI Resource `B.BR4`:1, `B.BR5`:1, `B.BR6`:1, `B.BR7`:1, `VB.BR8`:1
          CFI Resource `VB.BR9`:1, `VB.BR10`:1, `VB.BR11`:1, `VB.BR12`:1
          CFI Resource `VB.BR13`:1, `VB.BR14`:1, `VB.BR15`:1, VB:8, B:8, A:8
          CFI Resource PSW:8, DPL0:8, DPH0:8, R0:8, R1:8, R2:8, R3:8, R4:8, R5:8
          CFI Resource R6:8, R7:8, V0:8, V1:8, V2:8, V3:8, V4:8, V5:8, V6:8, V7:8
          CFI Resource SP:8, PSPH:8, PSPL:8, PSP16:16, XSPH:8, XSPL:8, XSP16:16
          CFI VirtualResource ?RET:24
          CFI Resource ?BRET_EXT:8
          CFI VirtualResource ?RET_HIGH:8, ?RET_LOW:8
          CFI ResourceParts PSP16 PSPH, PSPL
          CFI ResourceParts XSP16 XSPH, XSPL
          CFI ResourceParts ?RET ?BRET_EXT, ?RET_HIGH, ?RET_LOW
          CFI EndNames cfiNames0
        
          CFI Common cfiCommon0 Using cfiNames0
          CFI CodeAlign 1
          CFI DataAlign -1
          CFI ReturnAddress ?RET CODE
          CFI CFA_DOVERLAY Used
          CFI CFA_IOVERLAY Used
          CFI CFA_SP SP+-3
          CFI CFA_PSP16 PSP16+0
          CFI CFA_XSP16 XSP16+0
          CFI `PSW.CY` SameValue
          CFI `B.BR0` SameValue
          CFI `B.BR1` SameValue
          CFI `B.BR2` SameValue
          CFI `B.BR3` SameValue
          CFI `B.BR4` SameValue
          CFI `B.BR5` SameValue
          CFI `B.BR6` SameValue
          CFI `B.BR7` SameValue
          CFI `VB.BR8` SameValue
          CFI `VB.BR9` SameValue
          CFI `VB.BR10` SameValue
          CFI `VB.BR11` SameValue
          CFI `VB.BR12` SameValue
          CFI `VB.BR13` SameValue
          CFI `VB.BR14` SameValue
          CFI `VB.BR15` SameValue
          CFI VB SameValue
          CFI B Undefined
          CFI A Undefined
          CFI PSW SameValue
          CFI DPL0 SameValue
          CFI DPH0 SameValue
          CFI R0 Undefined
          CFI R1 Undefined
          CFI R2 Undefined
          CFI R3 Undefined
          CFI R4 Undefined
          CFI R5 Undefined
          CFI R6 SameValue
          CFI R7 SameValue
          CFI V0 SameValue
          CFI V1 SameValue
          CFI V2 SameValue
          CFI V3 SameValue
          CFI V4 SameValue
          CFI V5 SameValue
          CFI V6 SameValue
          CFI V7 SameValue
          CFI PSPH Undefined
          CFI PSPL Undefined
          CFI XSPH Undefined
          CFI XSPL Undefined
          CFI ?RET Concat
          CFI ?BRET_EXT Frame(CFA_SP, 3)
          CFI ?RET_HIGH Frame(CFA_SP, 2)
          CFI ?RET_LOW Frame(CFA_SP, 1)
          CFI EndCommon cfiCommon0
        
GAPBondMgr_Init     SYMBOL "GAPBondMgr_Init"
??GAPBondMgr_Init?relay SYMBOL "?relay", GAPBondMgr_Init
`?<Name GAPBondMgr_ProcessEv 2>` SYMBOL "GAPBondMgr_ProcessEvent"
??GAPBondMgr_ProcessEvent?relay SYMBOL "?relay", `?<Name GAPBondMgr_ProcessEv 2>`
GAP_Init            SYMBOL "GAP_Init"
??GAP_Init?relay    SYMBOL "?relay", GAP_Init
`?<Name GAP_ProcessEvent 6>` SYMBOL "GAP_ProcessEvent"
??GAP_ProcessEvent?relay SYMBOL "?relay", `?<Name GAP_ProcessEvent 6>`
GATT_Init           SYMBOL "GATT_Init"
??GATT_Init?relay   SYMBOL "?relay", GATT_Init
`?<Name GATT_ProcessEvent 10>` SYMBOL "GATT_ProcessEvent"
??GATT_ProcessEvent?relay SYMBOL "?relay", `?<Name GATT_ProcessEvent 10>`
HCI_EXT_App_Init    SYMBOL "HCI_EXT_App_Init"
??HCI_EXT_App_Init?relay SYMBOL "?relay", HCI_EXT_App_Init
`?<Name HCI_EXT_App_ProcessE 14>` SYMBOL "HCI_EXT_App_ProcessEvent"
??HCI_EXT_App_ProcessEvent?relay SYMBOL "?relay", `?<Name HCI_EXT_App_ProcessE 14>`
HCI_Init            SYMBOL "HCI_Init"
??HCI_Init?relay    SYMBOL "?relay", HCI_Init
`?<Name HCI_ProcessEvent 18>` SYMBOL "HCI_ProcessEvent"
??HCI_ProcessEvent?relay SYMBOL "?relay", `?<Name HCI_ProcessEvent 18>`
Hal_Init            SYMBOL "Hal_Init"
??Hal_Init?relay    SYMBOL "?relay", Hal_Init
`?<Name Hal_ProcessEvent 22>` SYMBOL "Hal_ProcessEvent"
??Hal_ProcessEvent?relay SYMBOL "?relay", `?<Name Hal_ProcessEvent 22>`
L2CAP_Init          SYMBOL "L2CAP_Init"
??L2CAP_Init?relay  SYMBOL "?relay", L2CAP_Init
`?<Name L2CAP_ProcessEvent 26>` SYMBOL "L2CAP_ProcessEvent"
??L2CAP_ProcessEvent?relay SYMBOL "?relay", `?<Name L2CAP_ProcessEvent 26>`
LL_Init             SYMBOL "LL_Init"
??LL_Init?relay     SYMBOL "?relay", LL_Init
`?<Name LL_ProcessEvent 30>` SYMBOL "LL_ProcessEvent"
??LL_ProcessEvent?relay SYMBOL "?relay", `?<Name LL_ProcessEvent 30>`
SM_Init             SYMBOL "SM_Init"
??SM_Init?relay     SYMBOL "?relay", SM_Init
`?<Name SM_ProcessEvent 34>` SYMBOL "SM_ProcessEvent"
??SM_ProcessEvent?relay SYMBOL "?relay", `?<Name SM_ProcessEvent 34>`
SPI_Interface_Init  SYMBOL "SPI_Interface_Init"
??SPI_Interface_Init?relay SYMBOL "?relay", SPI_Interface_Init
`?<Name SPI_Interface_Proces 38>` SYMBOL "SPI_Interface_ProcessEvent"
??SPI_Interface_ProcessEvent?relay SYMBOL "?relay", `?<Name SPI_Interface_Proces 38>`
osal_CbTimerInit    SYMBOL "osal_CbTimerInit"
??osal_CbTimerInit?relay SYMBOL "?relay", osal_CbTimerInit
`?<Name osal_CbTimerProcessE 42>` SYMBOL "osal_CbTimerProcessEvent"
??osal_CbTimerProcessEvent?relay SYMBOL "?relay", `?<Name osal_CbTimerProcessE 42>`
osal_mem_alloc      SYMBOL "osal_mem_alloc"
??osal_mem_alloc?relay SYMBOL "?relay", osal_mem_alloc
osal_memset         SYMBOL "osal_memset"
??osal_memset?relay SYMBOL "?relay", osal_memset
osalInitTasks       SYMBOL "osalInitTasks"
??osalInitTasks?relay SYMBOL "?relay", osalInitTasks

        EXTERN ??GAPBondMgr_Init?relay
        FUNCTION ??GAPBondMgr_Init?relay,00H
        EXTERN ??GAPBondMgr_ProcessEvent?relay
        FUNCTION ??GAPBondMgr_ProcessEvent?relay,00H
        EXTERN ??GAP_Init?relay
        FUNCTION ??GAP_Init?relay,00H
        EXTERN ??GAP_ProcessEvent?relay
        FUNCTION ??GAP_ProcessEvent?relay,00H
        EXTERN ??GATT_Init?relay
        FUNCTION ??GATT_Init?relay,00H
        EXTERN ??GATT_ProcessEvent?relay
        FUNCTION ??GATT_ProcessEvent?relay,00H
        EXTERN ??HCI_EXT_App_Init?relay
        FUNCTION ??HCI_EXT_App_Init?relay,00H
        EXTERN ??HCI_EXT_App_ProcessEvent?relay
        FUNCTION ??HCI_EXT_App_ProcessEvent?relay,00H
        EXTERN ??HCI_Init?relay
        FUNCTION ??HCI_Init?relay,00H
        EXTERN ??HCI_ProcessEvent?relay
        FUNCTION ??HCI_ProcessEvent?relay,00H
        EXTERN ??Hal_Init?relay
        FUNCTION ??Hal_Init?relay,00H
        EXTERN ??Hal_ProcessEvent?relay
        FUNCTION ??Hal_ProcessEvent?relay,00H
        EXTERN ??L2CAP_Init?relay
        FUNCTION ??L2CAP_Init?relay,00H
        EXTERN ??L2CAP_ProcessEvent?relay
        FUNCTION ??L2CAP_ProcessEvent?relay,00H
        EXTERN ??LL_Init?relay
        FUNCTION ??LL_Init?relay,00H
        EXTERN ??LL_ProcessEvent?relay
        FUNCTION ??LL_ProcessEvent?relay,00H
        EXTERN ??SM_Init?relay
        FUNCTION ??SM_Init?relay,00H
        EXTERN ??SM_ProcessEvent?relay
        FUNCTION ??SM_ProcessEvent?relay,00H
        EXTERN ??SPI_Interface_Init?relay
        FUNCTION ??SPI_Interface_Init?relay,00H
        EXTERN ??SPI_Interface_ProcessEvent?relay
        FUNCTION ??SPI_Interface_ProcessEvent?relay,00H
        EXTERN ??osal_CbTimerInit?relay
        FUNCTION ??osal_CbTimerInit?relay,00H
        EXTERN ??osal_CbTimerProcessEvent?relay
        FUNCTION ??osal_CbTimerProcessEvent?relay,00H
        EXTERN ??osal_mem_alloc?relay
        FUNCTION ??osal_mem_alloc?relay,00H
        EXTERN ??osal_memset?relay
        FUNCTION ??osal_memset?relay,00H
        EXTERN GAPBondMgr_Init
        FUNCTION GAPBondMgr_Init,0202H
        ARGFRAME ISTACK, 2, STACK
        ARGFRAME PSTACK, 0, STACK
        ARGFRAME XSTACK, 0, STACK
        ARGFRAME IOVERLAY, 0, STATIC
        ARGFRAME DOVERLAY, 0, STATIC
        EXTERN GAP_Init
        FUNCTION GAP_Init,0202H
        ARGFRAME ISTACK, 2, STACK
        ARGFRAME PSTACK, 0, STACK
        ARGFRAME XSTACK, 0, STACK
        ARGFRAME IOVERLAY, 0, STATIC
        ARGFRAME DOVERLAY, 0, STATIC
        EXTERN GATT_Init
        FUNCTION GATT_Init,0202H
        ARGFRAME ISTACK, 2, STACK
        ARGFRAME PSTACK, 0, STACK
        ARGFRAME XSTACK, 0, STACK
        ARGFRAME IOVERLAY, 0, STATIC
        ARGFRAME DOVERLAY, 0, STATIC
        EXTERN HCI_EXT_App_Init
        FUNCTION HCI_EXT_App_Init,0202H
        ARGFRAME ISTACK, 2, STACK
        ARGFRAME PSTACK, 0, STACK
        ARGFRAME XSTACK, 0, STACK
        ARGFRAME IOVERLAY, 0, STATIC
        ARGFRAME DOVERLAY, 0, STATIC
        EXTERN HCI_Init
        FUNCTION HCI_Init,0202H
        ARGFRAME ISTACK, 2, STACK
        ARGFRAME PSTACK, 0, STACK
        ARGFRAME XSTACK, 0, STACK
        ARGFRAME IOVERLAY, 0, STATIC
        ARGFRAME DOVERLAY, 0, STATIC
        EXTERN Hal_Init
        FUNCTION Hal_Init,0202H
        ARGFRAME ISTACK, 2, STACK
        ARGFRAME PSTACK, 0, STACK
        ARGFRAME XSTACK, 0, STACK
        ARGFRAME IOVERLAY, 0, STATIC
        ARGFRAME DOVERLAY, 0, STATIC
        EXTERN L2CAP_Init
        FUNCTION L2CAP_Init,0202H
        ARGFRAME ISTACK, 2, STACK
        ARGFRAME PSTACK, 0, STACK
        ARGFRAME XSTACK, 0, STACK
        ARGFRAME IOVERLAY, 0, STATIC
        ARGFRAME DOVERLAY, 0, STATIC
        EXTERN LL_Init
        FUNCTION LL_Init,0202H
        ARGFRAME ISTACK, 2, STACK
        ARGFRAME PSTACK, 0, STACK
        ARGFRAME XSTACK, 0, STACK
        ARGFRAME IOVERLAY, 0, STATIC
        ARGFRAME DOVERLAY, 0, STATIC
        EXTERN SM_Init
        FUNCTION SM_Init,0202H
        ARGFRAME ISTACK, 2, STACK
        ARGFRAME PSTACK, 0, STACK
        ARGFRAME XSTACK, 0, STACK
        ARGFRAME IOVERLAY, 0, STATIC
        ARGFRAME DOVERLAY, 0, STATIC
        EXTERN SPI_Interface_Init
        FUNCTION SPI_Interface_Init,0202H
        ARGFRAME ISTACK, 2, STACK
        ARGFRAME PSTACK, 0, STACK
        ARGFRAME XSTACK, 0, STACK
        ARGFRAME IOVERLAY, 0, STATIC
        ARGFRAME DOVERLAY, 0, STATIC
        EXTERN osal_CbTimerInit
        FUNCTION osal_CbTimerInit,0202H
        ARGFRAME ISTACK, 2, STACK
        ARGFRAME PSTACK, 0, STACK
        ARGFRAME XSTACK, 0, STACK
        ARGFRAME IOVERLAY, 0, STATIC
        ARGFRAME DOVERLAY, 0, STATIC
        EXTERN osal_mem_alloc
        FUNCTION osal_mem_alloc,0202H
        ARGFRAME ISTACK, 2, STACK
        ARGFRAME PSTACK, 0, STACK
        ARGFRAME XSTACK, 0, STACK
        ARGFRAME IOVERLAY, 0, STATIC
        ARGFRAME DOVERLAY, 0, STATIC
        EXTERN osal_memset
        FUNCTION osal_memset,0202H
        ARGFRAME ISTACK, 2, STACK
        ARGFRAME PSTACK, 0, STACK
        ARGFRAME XSTACK, 0, STACK
        ARGFRAME IOVERLAY, 0, STATIC
        ARGFRAME DOVERLAY, 0, STATIC

// c:\Users\Administrator\Documents\Dropbox\Fish Brain\HM-10 Hack\HM-10 Firmware\Projects\ble\HostTestApp\Source\OSAL_HostTest.c
//    1 /**************************************************************************************************
//    2   Filename:       OSAL_HostTest.c
//    3   Revised:        $Date: 2013-08-16 11:27:49 -0700 (Fri, 16 Aug 2013) $
//    4   Revision:       $Revision: 35000 $
//    5 
//    6   Description:    This file contains function that allows user setup tasks
//    7 
//    8 
//    9   Copyright 2009 - 2013 Texas Instruments Incorporated. All rights reserved.
//   10 
//   11   IMPORTANT: Your use of this Software is limited to those specific rights
//   12   granted under the terms of a software license agreement between the user
//   13   who downloaded the software, his/her employer (which must be your employer)
//   14   and Texas Instruments Incorporated (the "License").  You may not use this
//   15   Software unless you agree to abide by the terms of the License. The License
//   16   limits your use, and you acknowledge, that the Software may not be modified,
//   17   copied or distributed unless embedded on a Texas Instruments microcontroller
//   18   or used solely and exclusively in conjunction with a Texas Instruments radio
//   19   frequency transceiver, which is integrated into your product.  Other than for
//   20   the foregoing purpose, you may not use, reproduce, copy, prepare derivative
//   21   works of, modify, distribute, perform, display or sell this Software and/or
//   22   its documentation for any purpose.
//   23 
//   24   YOU FURTHER ACKNOWLEDGE AND AGREE THAT THE SOFTWARE AND DOCUMENTATION ARE
//   25   PROVIDED “AS IS?WITHOUT WARRANTY OF ANY KIND, EITHER EXPRESS OR IMPLIED,
//   26   INCLUDING WITHOUT LIMITATION, ANY WARRANTY OF MERCHANTABILITY, TITLE,
//   27   NON-INFRINGEMENT AND FITNESS FOR A PARTICULAR PURPOSE. IN NO EVENT SHALL
//   28   TEXAS INSTRUMENTS OR ITS LICENSORS BE LIABLE OR OBLIGATED UNDER CONTRACT,
//   29   NEGLIGENCE, STRICT LIABILITY, CONTRIBUTION, BREACH OF WARRANTY, OR OTHER
//   30   LEGAL EQUITABLE THEORY ANY DIRECT OR INDIRECT DAMAGES OR EXPENSES
//   31   INCLUDING BUT NOT LIMITED TO ANY INCIDENTAL, SPECIAL, INDIRECT, PUNITIVE
//   32   OR CONSEQUENTIAL DAMAGES, LOST PROFITS OR LOST DATA, COST OF PROCUREMENT
//   33   OF SUBSTITUTE GOODS, TECHNOLOGY, SERVICES, OR ANY CLAIMS BY THIRD PARTIES
//   34   (INCLUDING BUT NOT LIMITED TO ANY DEFENSE THEREOF), OR OTHER SIMILAR COSTS.
//   35 
//   36   Should you have any questions regarding your right to use this Software,
//   37   contact Texas Instruments Incorporated at www.TI.com.
//   38 **************************************************************************************************/
//   39 
//   40 /**************************************************************************************************
//   41  *                                            INCLUDES
//   42  **************************************************************************************************/
//   43 #include "hal_types.h"
//   44 #include "OSAL.h"
//   45 #include "OSAL_Tasks.h"
//   46 
//   47 /* HAL */
//   48 #include "hal_drivers.h"
//   49 
//   50 /* LL */
//   51 #include "ll.h"
//   52 
//   53 #if defined ( OSAL_CBTIMER_NUM_TASKS )
//   54   #include "osal_cbTimer.h"
//   55 #endif
//   56 
//   57 /* L2CAP */
//   58 #include "l2cap.h"
//   59 
//   60 /* gap */
//   61 #include "gap.h"
//   62 
//   63 #if defined ( GAP_BOND_MGR )
//   64   #include "gapbondmgr.h"
//   65 #endif
//   66 
//   67 /* GATT */
//   68 #include "gatt.h"
//   69 
//   70 /* Application */
//   71 #include "hci_tl.h"
//   72 
//   73 #if !defined ( GATT_DB_OFF_CHIP )
//   74   #include "gattservapp.h"
//   75 
//   76   #if defined ( GATT_TEST )
//   77     #include "gatttest.h"
//   78   #endif
//   79 #endif // GATT_DB_OFF_CHIP
//   80 
//   81 #include "spi_interface.h"
//   82 
//   83 #include "hci_ext_app.h"
//   84 
//   85 /*********************************************************************
//   86  * GLOBAL VARIABLES
//   87  */
//   88 
//   89 // The order in this table must be identical to the task initialization calls below in osalInitTask.

        RSEG XDATA_ROM_C:CONST:REORDER:NOROOT(0)
        DATA8
//   90 const pTaskEventHandlerFn tasksArr[] =
tasksArr:
        DATA16
        DW ??LL_ProcessEvent?relay
        DW ??Hal_ProcessEvent?relay
        DW ??HCI_ProcessEvent?relay
        DW ??osal_CbTimerProcessEvent?relay
        DW ??L2CAP_ProcessEvent?relay
        DW ??GAP_ProcessEvent?relay
        DW ??GATT_ProcessEvent?relay
        DW ??SM_ProcessEvent?relay
        DW ??GAPBondMgr_ProcessEvent?relay
        DW ??SPI_Interface_ProcessEvent?relay
        DW ??HCI_EXT_App_ProcessEvent?relay
//   91 {
//   92   LL_ProcessEvent,
//   93   Hal_ProcessEvent,
//   94   HCI_ProcessEvent,
//   95 #if defined ( OSAL_CBTIMER_NUM_TASKS )
//   96   OSAL_CBTIMER_PROCESS_EVENT( osal_CbTimerProcessEvent ),
//   97 #endif
//   98   L2CAP_ProcessEvent,
//   99   GAP_ProcessEvent,
//  100   GATT_ProcessEvent,
//  101   SM_ProcessEvent,
//  102 #if defined ( GAP_BOND_MGR )
//  103   GAPBondMgr_ProcessEvent,
//  104 #endif
//  105 #if !defined ( GATT_DB_OFF_CHIP )
//  106   GATTServApp_ProcessEvent,
//  107   #if defined ( GATT_TEST )
//  108     GATTTest_ProcessEvent,
//  109   #endif
//  110 #endif
//  111   SPI_Interface_ProcessEvent,
//  112   HCI_EXT_App_ProcessEvent
//  113 };
//  114 

        RSEG XDATA_ROM_C:CONST:REORDER:NOROOT(0)
        DATA8
//  115 const uint8 tasksCnt = sizeof( tasksArr ) / sizeof( tasksArr[0] );
tasksCnt:
        DB 11

        RSEG XDATA_Z:XDATA:NOROOT(0)
        DATA16
//  116 uint16 *tasksEvents;
tasksEvents:
        DS 2
        REQUIRE __INIT_XDATA_Z
//  117 
//  118 /*********************************************************************
//  119  * FUNCTIONS
//  120  *********************************************************************/
//  121 
//  122 /*********************************************************************
//  123  * @fn      osalInitTasks
//  124  *
//  125  * @brief   This function invokes the initialization function for each task.
//  126  *
//  127  * @param   void
//  128  *
//  129  * @return  none
//  130  */

        RSEG BANKED_CODE:CODE:NOROOT(0)
//  131 void osalInitTasks( void )
osalInitTasks:
          CFI Block cfiBlock0 Using cfiCommon0
          CFI Function osalInitTasks
        CODE
//  132 {
        FUNCALL osalInitTasks, osal_mem_alloc
        LOCFRAME ISTACK, 2, STACK
        LOCFRAME PSTACK, 0, STACK
        LOCFRAME XSTACK, 0, STACK
        LOCFRAME IOVERLAY, 0, STATIC
        LOCFRAME DOVERLAY, 0, STATIC
        ARGFRAME ISTACK, 2, STACK
        ARGFRAME PSTACK, 0, STACK
        ARGFRAME XSTACK, 0, STACK
        ARGFRAME IOVERLAY, 0, STATIC
        ARGFRAME DOVERLAY, 0, STATIC
        FUNCALL osalInitTasks, osal_memset
        LOCFRAME ISTACK, 2, STACK
        LOCFRAME PSTACK, 0, STACK
        LOCFRAME XSTACK, 0, STACK
        LOCFRAME IOVERLAY, 0, STATIC
        LOCFRAME DOVERLAY, 0, STATIC
        ARGFRAME ISTACK, 2, STACK
        ARGFRAME PSTACK, 0, STACK
        ARGFRAME XSTACK, 0, STACK
        ARGFRAME IOVERLAY, 0, STATIC
        ARGFRAME DOVERLAY, 0, STATIC
        FUNCALL osalInitTasks, LL_Init
        LOCFRAME ISTACK, 2, STACK
        LOCFRAME PSTACK, 0, STACK
        LOCFRAME XSTACK, 0, STACK
        LOCFRAME IOVERLAY, 0, STATIC
        LOCFRAME DOVERLAY, 0, STATIC
        ARGFRAME ISTACK, 2, STACK
        ARGFRAME PSTACK, 0, STACK
        ARGFRAME XSTACK, 0, STACK
        ARGFRAME IOVERLAY, 0, STATIC
        ARGFRAME DOVERLAY, 0, STATIC
        FUNCALL osalInitTasks, Hal_Init
        LOCFRAME ISTACK, 2, STACK
        LOCFRAME PSTACK, 0, STACK
        LOCFRAME XSTACK, 0, STACK
        LOCFRAME IOVERLAY, 0, STATIC
        LOCFRAME DOVERLAY, 0, STATIC
        ARGFRAME ISTACK, 2, STACK
        ARGFRAME PSTACK, 0, STACK
        ARGFRAME XSTACK, 0, STACK
        ARGFRAME IOVERLAY, 0, STATIC
        ARGFRAME DOVERLAY, 0, STATIC
        FUNCALL osalInitTasks, HCI_Init
        LOCFRAME ISTACK, 2, STACK
        LOCFRAME PSTACK, 0, STACK
        LOCFRAME XSTACK, 0, STACK
        LOCFRAME IOVERLAY, 0, STATIC
        LOCFRAME DOVERLAY, 0, STATIC
        ARGFRAME ISTACK, 2, STACK
        ARGFRAME PSTACK, 0, STACK
        ARGFRAME XSTACK, 0, STACK
        ARGFRAME IOVERLAY, 0, STATIC
        ARGFRAME DOVERLAY, 0, STATIC
        FUNCALL osalInitTasks, osal_CbTimerInit
        LOCFRAME ISTACK, 2, STACK
        LOCFRAME PSTACK, 0, STACK
        LOCFRAME XSTACK, 0, STACK
        LOCFRAME IOVERLAY, 0, STATIC
        LOCFRAME DOVERLAY, 0, STATIC
        ARGFRAME ISTACK, 2, STACK
        ARGFRAME PSTACK, 0, STACK
        ARGFRAME XSTACK, 0, STACK
        ARGFRAME IOVERLAY, 0, STATIC
        ARGFRAME DOVERLAY, 0, STATIC
        FUNCALL osalInitTasks, L2CAP_Init
        LOCFRAME ISTACK, 2, STACK
        LOCFRAME PSTACK, 0, STACK
        LOCFRAME XSTACK, 0, STACK
        LOCFRAME IOVERLAY, 0, STATIC
        LOCFRAME DOVERLAY, 0, STATIC
        ARGFRAME ISTACK, 2, STACK
        ARGFRAME PSTACK, 0, STACK
        ARGFRAME XSTACK, 0, STACK
        ARGFRAME IOVERLAY, 0, STATIC
        ARGFRAME DOVERLAY, 0, STATIC
        FUNCALL osalInitTasks, GAP_Init
        LOCFRAME ISTACK, 2, STACK
        LOCFRAME PSTACK, 0, STACK
        LOCFRAME XSTACK, 0, STACK
        LOCFRAME IOVERLAY, 0, STATIC
        LOCFRAME DOVERLAY, 0, STATIC
        ARGFRAME ISTACK, 2, STACK
        ARGFRAME PSTACK, 0, STACK
        ARGFRAME XSTACK, 0, STACK
        ARGFRAME IOVERLAY, 0, STATIC
        ARGFRAME DOVERLAY, 0, STATIC
        FUNCALL osalInitTasks, GATT_Init
        LOCFRAME ISTACK, 2, STACK
        LOCFRAME PSTACK, 0, STACK
        LOCFRAME XSTACK, 0, STACK
        LOCFRAME IOVERLAY, 0, STATIC
        LOCFRAME DOVERLAY, 0, STATIC
        ARGFRAME ISTACK, 2, STACK
        ARGFRAME PSTACK, 0, STACK
        ARGFRAME XSTACK, 0, STACK
        ARGFRAME IOVERLAY, 0, STATIC
        ARGFRAME DOVERLAY, 0, STATIC
        FUNCALL osalInitTasks, SM_Init
        LOCFRAME ISTACK, 2, STACK
        LOCFRAME PSTACK, 0, STACK
        LOCFRAME XSTACK, 0, STACK
        LOCFRAME IOVERLAY, 0, STATIC
        LOCFRAME DOVERLAY, 0, STATIC
        ARGFRAME ISTACK, 2, STACK
        ARGFRAME PSTACK, 0, STACK
        ARGFRAME XSTACK, 0, STACK
        ARGFRAME IOVERLAY, 0, STATIC
        ARGFRAME DOVERLAY, 0, STATIC
        FUNCALL osalInitTasks, GAPBondMgr_Init
        LOCFRAME ISTACK, 2, STACK
        LOCFRAME PSTACK, 0, STACK
        LOCFRAME XSTACK, 0, STACK
        LOCFRAME IOVERLAY, 0, STATIC
        LOCFRAME DOVERLAY, 0, STATIC
        ARGFRAME ISTACK, 2, STACK
        ARGFRAME PSTACK, 0, STACK
        ARGFRAME XSTACK, 0, STACK
        ARGFRAME IOVERLAY, 0, STATIC
        ARGFRAME DOVERLAY, 0, STATIC
        FUNCALL osalInitTasks, SPI_Interface_Init
        LOCFRAME ISTACK, 2, STACK
        LOCFRAME PSTACK, 0, STACK
        LOCFRAME XSTACK, 0, STACK
        LOCFRAME IOVERLAY, 0, STATIC
        LOCFRAME DOVERLAY, 0, STATIC
        ARGFRAME ISTACK, 2, STACK
        ARGFRAME PSTACK, 0, STACK
        ARGFRAME XSTACK, 0, STACK
        ARGFRAME IOVERLAY, 0, STATIC
        ARGFRAME DOVERLAY, 0, STATIC
        FUNCALL osalInitTasks, HCI_EXT_App_Init
        LOCFRAME ISTACK, 2, STACK
        LOCFRAME PSTACK, 0, STACK
        LOCFRAME XSTACK, 0, STACK
        LOCFRAME IOVERLAY, 0, STATIC
        LOCFRAME DOVERLAY, 0, STATIC
        ARGFRAME ISTACK, 2, STACK
        ARGFRAME PSTACK, 0, STACK
        ARGFRAME XSTACK, 0, STACK
        ARGFRAME IOVERLAY, 0, STATIC
        ARGFRAME DOVERLAY, 0, STATIC
        PUSH    DPL
          CFI DPL0 Frame(CFA_SP, 4)
          CFI CFA_SP SP+-4
        PUSH    DPH
          CFI DPH0 Frame(CFA_SP, 5)
          CFI CFA_SP SP+-5
        ; Saved register size: 2
        ; Auto size: 0
//  133   uint8 taskID = 0;
//  134 
//  135   tasksEvents = (uint16 *)osal_mem_alloc( sizeof( uint16 ) * tasksCnt);
        ; Setup parameters for call to function osal_mem_alloc
        MOV     R2,#0x16
        MOV     R3,#0x0
        LCALL   ??osal_mem_alloc?relay; Banked call to: osal_mem_alloc
        MOV     DPTR,#tasksEvents
        MOV     A,R2
        MOVX    @DPTR,A
        INC     DPTR
        MOV     A,R3
        MOVX    @DPTR,A
//  136   VOID osal_memset( tasksEvents, 0, (sizeof( uint16 ) * tasksCnt));
        ; Setup parameters for call to function osal_memset
        MOV     R4,#0x16
        MOV     R5,#0x0
        MOV     R1,#0x0
        LCALL   ??osal_memset?relay  ; Banked call to: osal_memset
//  137 
//  138   /* LL Task */
//  139   LL_Init( taskID++ );
        ; Setup parameters for call to function LL_Init
        MOV     R1,#0x0
        LCALL   ??LL_Init?relay      ; Banked call to: LL_Init
//  140 
//  141   /* Hal Task */
//  142   Hal_Init( taskID++ );
        ; Setup parameters for call to function Hal_Init
        MOV     R1,#0x1
        LCALL   ??Hal_Init?relay     ; Banked call to: Hal_Init
//  143 
//  144   /* HCI Task */
//  145   HCI_Init( taskID++ );
        ; Setup parameters for call to function HCI_Init
        MOV     R1,#0x2
        LCALL   ??HCI_Init?relay     ; Banked call to: HCI_Init
//  146 
//  147 #if defined ( OSAL_CBTIMER_NUM_TASKS )
//  148   /* Callback Timer Tasks */
//  149   osal_CbTimerInit( taskID );
        ; Setup parameters for call to function osal_CbTimerInit
        MOV     R1,#0x3
        LCALL   ??osal_CbTimerInit?relay; Banked call to: osal_CbTimerInit
//  150   taskID += OSAL_CBTIMER_NUM_TASKS;
//  151 #endif
//  152 
//  153   /* L2CAP Task */
//  154   L2CAP_Init( taskID++ );
        ; Setup parameters for call to function L2CAP_Init
        MOV     R1,#0x4
        LCALL   ??L2CAP_Init?relay   ; Banked call to: L2CAP_Init
//  155 
//  156   /* GAP Task */
//  157   GAP_Init( taskID++ );
        ; Setup parameters for call to function GAP_Init
        MOV     R1,#0x5
        LCALL   ??GAP_Init?relay     ; Banked call to: GAP_Init
//  158 
//  159   /* GATT Task */
//  160   GATT_Init( taskID++ );
        ; Setup parameters for call to function GATT_Init
        MOV     R1,#0x6
        LCALL   ??GATT_Init?relay    ; Banked call to: GATT_Init
//  161   
//  162   /* SM Task */
//  163   SM_Init( taskID++ );
        ; Setup parameters for call to function SM_Init
        MOV     R1,#0x7
        LCALL   ??SM_Init?relay      ; Banked call to: SM_Init
//  164   
//  165 #if defined ( GAP_BOND_MGR )
//  166     GAPBondMgr_Init( taskID++ );
        ; Setup parameters for call to function GAPBondMgr_Init
        MOV     R1,#0x8
        LCALL   ??GAPBondMgr_Init?relay; Banked call to: GAPBondMgr_Init
//  167 #endif
//  168     
//  169 #if !defined ( GATT_DB_OFF_CHIP )
//  170   /* GATT Server App Task */
//  171   GATTServApp_Init( taskID++ );
//  172 
//  173   #if defined ( GATT_TEST )
//  174     /* GATT Test Task */
//  175     GATTTest_Init( taskID++ );
//  176   #endif
//  177 #endif // GATT_DB_OFF_CHIP
//  178 
//  179   /* HCI Extension GAP Task */
//  180 	SPI_Interface_Init( taskID++ );
        ; Setup parameters for call to function SPI_Interface_Init
        MOV     R1,#0x9
        LCALL   ??SPI_Interface_Init?relay; Banked call to: SPI_Interface_Init
//  181   HCI_EXT_App_Init( taskID );
        ; Setup parameters for call to function HCI_EXT_App_Init
        MOV     R1,#0xa
        LCALL   ??HCI_EXT_App_Init?relay; Banked call to: HCI_EXT_App_Init
//  182 }
        POP     DPH
          CFI DPH0 SameValue
          CFI CFA_SP SP+-4
        POP     DPL
          CFI DPL0 SameValue
          CFI CFA_SP SP+-3
        LJMP    ?BRET
          CFI EndBlock cfiBlock0

        RSEG BANK_RELAYS:CODE:REORDER:NOROOT(0)
??osalInitTasks?relay:
        CODE
        LCALL   ?BDISPATCH
        DATA24
        DC24    osalInitTasks

        END
//  183 
//  184 /*********************************************************************
//  185 *********************************************************************/
// 
// 90 bytes in segment BANKED_CODE
//  6 bytes in segment BANK_RELAYS
// 23 bytes in segment XDATA_ROM_C
//  2 bytes in segment XDATA_Z
// 
// 96 bytes of CODE  memory
// 23 bytes of CONST memory
//  2 bytes of XDATA memory
//
//Errors: none
//Warnings: none
